ARM GAS  C:\Users\HPSPEC~1\AppData\Local\Temp\ccPokLyk.s 			page 1


   1              		.syntax unified
   2              		.cpu cortex-m3
   3              		.fpu softvfp
   4              		.eabi_attribute 20, 1
   5              		.eabi_attribute 21, 1
   6              		.eabi_attribute 23, 3
   7              		.eabi_attribute 24, 1
   8              		.eabi_attribute 25, 1
   9              		.eabi_attribute 26, 1
  10              		.eabi_attribute 30, 1
  11              		.eabi_attribute 34, 1
  12              		.eabi_attribute 18, 4
  13              		.thumb
  14              		.syntax unified
  15              		.file	"cyfitter_cfg.c"
  16              		.text
  17              	.Ltext0:
  18              		.cfi_sections	.debug_frame
  19              		.section	.text.CyClockStartupError,"ax",%progbits
  20              		.align	2
  21              		.thumb
  22              		.thumb_func
  23              		.type	CyClockStartupError, %function
  24              	CyClockStartupError:
  25              	.LFB3:
  26              		.file 1 "Generated_Source\\PSoC5\\cyfitter_cfg.c"
   1:Generated_Source\PSoC5/cyfitter_cfg.c **** 
   2:Generated_Source\PSoC5/cyfitter_cfg.c **** /*******************************************************************************
   3:Generated_Source\PSoC5/cyfitter_cfg.c **** * File Name: cyfitter_cfg.c
   4:Generated_Source\PSoC5/cyfitter_cfg.c **** * 
   5:Generated_Source\PSoC5/cyfitter_cfg.c **** * PSoC Creator  4.4
   6:Generated_Source\PSoC5/cyfitter_cfg.c **** *
   7:Generated_Source\PSoC5/cyfitter_cfg.c **** * Description:
   8:Generated_Source\PSoC5/cyfitter_cfg.c **** * This file contains device initialization code.
   9:Generated_Source\PSoC5/cyfitter_cfg.c **** * Except for the user defined sections in CyClockStartupError(), this file should not be modified.
  10:Generated_Source\PSoC5/cyfitter_cfg.c **** * This file is automatically generated by PSoC Creator.
  11:Generated_Source\PSoC5/cyfitter_cfg.c **** *
  12:Generated_Source\PSoC5/cyfitter_cfg.c **** ********************************************************************************
  13:Generated_Source\PSoC5/cyfitter_cfg.c **** * Copyright (c) 2007-2020 Cypress Semiconductor.  All rights reserved.
  14:Generated_Source\PSoC5/cyfitter_cfg.c **** * You may use this file only in accordance with the license, terms, conditions, 
  15:Generated_Source\PSoC5/cyfitter_cfg.c **** * disclaimers, and limitations in the end user license agreement accompanying 
  16:Generated_Source\PSoC5/cyfitter_cfg.c **** * the software package with which this file was provided.
  17:Generated_Source\PSoC5/cyfitter_cfg.c **** ********************************************************************************/
  18:Generated_Source\PSoC5/cyfitter_cfg.c **** 
  19:Generated_Source\PSoC5/cyfitter_cfg.c **** #include <string.h>
  20:Generated_Source\PSoC5/cyfitter_cfg.c **** #include "cytypes.h"
  21:Generated_Source\PSoC5/cyfitter_cfg.c **** #include "cydevice_trm.h"
  22:Generated_Source\PSoC5/cyfitter_cfg.c **** #include "cyfitter.h"
  23:Generated_Source\PSoC5/cyfitter_cfg.c **** #include "CyLib.h"
  24:Generated_Source\PSoC5/cyfitter_cfg.c **** #include "cyfitter_cfg.h"
  25:Generated_Source\PSoC5/cyfitter_cfg.c **** #include "cyapicallbacks.h"
  26:Generated_Source\PSoC5/cyfitter_cfg.c **** 
  27:Generated_Source\PSoC5/cyfitter_cfg.c **** #define CY_NEED_CYCLOCKSTARTUPERROR 1
  28:Generated_Source\PSoC5/cyfitter_cfg.c **** 
  29:Generated_Source\PSoC5/cyfitter_cfg.c **** 
  30:Generated_Source\PSoC5/cyfitter_cfg.c **** #if defined(__GNUC__) || defined(__ARMCC_VERSION)
  31:Generated_Source\PSoC5/cyfitter_cfg.c ****     #define CYPACKED 
ARM GAS  C:\Users\HPSPEC~1\AppData\Local\Temp\ccPokLyk.s 			page 2


  32:Generated_Source\PSoC5/cyfitter_cfg.c ****     #define CYPACKED_ATTR __attribute__ ((packed))
  33:Generated_Source\PSoC5/cyfitter_cfg.c ****     #define CYALIGNED __attribute__ ((aligned))
  34:Generated_Source\PSoC5/cyfitter_cfg.c ****     #define CY_CFG_UNUSED __attribute__ ((unused))
  35:Generated_Source\PSoC5/cyfitter_cfg.c ****     #ifndef CY_CFG_SECTION
  36:Generated_Source\PSoC5/cyfitter_cfg.c ****         #define CY_CFG_SECTION __attribute__ ((section(".psocinit")))
  37:Generated_Source\PSoC5/cyfitter_cfg.c ****     #endif
  38:Generated_Source\PSoC5/cyfitter_cfg.c ****     
  39:Generated_Source\PSoC5/cyfitter_cfg.c ****     #if defined(__ARMCC_VERSION)
  40:Generated_Source\PSoC5/cyfitter_cfg.c ****         #define CY_CFG_MEMORY_BARRIER() __memory_changed()
  41:Generated_Source\PSoC5/cyfitter_cfg.c ****     #else
  42:Generated_Source\PSoC5/cyfitter_cfg.c ****         #define CY_CFG_MEMORY_BARRIER() __sync_synchronize()
  43:Generated_Source\PSoC5/cyfitter_cfg.c ****     #endif
  44:Generated_Source\PSoC5/cyfitter_cfg.c ****     
  45:Generated_Source\PSoC5/cyfitter_cfg.c **** #elif defined(__ICCARM__)
  46:Generated_Source\PSoC5/cyfitter_cfg.c ****     #include <intrinsics.h>
  47:Generated_Source\PSoC5/cyfitter_cfg.c **** 
  48:Generated_Source\PSoC5/cyfitter_cfg.c ****     #define CYPACKED __packed
  49:Generated_Source\PSoC5/cyfitter_cfg.c ****     #define CYPACKED_ATTR 
  50:Generated_Source\PSoC5/cyfitter_cfg.c ****     #define CYALIGNED _Pragma("data_alignment=4")
  51:Generated_Source\PSoC5/cyfitter_cfg.c ****     #define CY_CFG_UNUSED _Pragma("diag_suppress=Pe177")
  52:Generated_Source\PSoC5/cyfitter_cfg.c ****     #define CY_CFG_SECTION _Pragma("location=\".psocinit\"")
  53:Generated_Source\PSoC5/cyfitter_cfg.c ****     
  54:Generated_Source\PSoC5/cyfitter_cfg.c ****     #define CY_CFG_MEMORY_BARRIER() __DMB()
  55:Generated_Source\PSoC5/cyfitter_cfg.c ****     
  56:Generated_Source\PSoC5/cyfitter_cfg.c **** #else
  57:Generated_Source\PSoC5/cyfitter_cfg.c ****     #error Unsupported toolchain
  58:Generated_Source\PSoC5/cyfitter_cfg.c **** #endif
  59:Generated_Source\PSoC5/cyfitter_cfg.c **** 
  60:Generated_Source\PSoC5/cyfitter_cfg.c **** #ifndef CYCODE
  61:Generated_Source\PSoC5/cyfitter_cfg.c ****     #define CYCODE
  62:Generated_Source\PSoC5/cyfitter_cfg.c **** #endif
  63:Generated_Source\PSoC5/cyfitter_cfg.c **** #ifndef CYDATA
  64:Generated_Source\PSoC5/cyfitter_cfg.c ****     #define CYDATA
  65:Generated_Source\PSoC5/cyfitter_cfg.c **** #endif
  66:Generated_Source\PSoC5/cyfitter_cfg.c **** #ifndef CYFAR
  67:Generated_Source\PSoC5/cyfitter_cfg.c ****     #define CYFAR
  68:Generated_Source\PSoC5/cyfitter_cfg.c **** #endif
  69:Generated_Source\PSoC5/cyfitter_cfg.c **** #ifndef CYXDATA
  70:Generated_Source\PSoC5/cyfitter_cfg.c ****     #define CYXDATA
  71:Generated_Source\PSoC5/cyfitter_cfg.c **** #endif
  72:Generated_Source\PSoC5/cyfitter_cfg.c **** 
  73:Generated_Source\PSoC5/cyfitter_cfg.c **** 
  74:Generated_Source\PSoC5/cyfitter_cfg.c **** CY_CFG_UNUSED
  75:Generated_Source\PSoC5/cyfitter_cfg.c **** static void CYMEMZERO(void *s, size_t n);
  76:Generated_Source\PSoC5/cyfitter_cfg.c **** CY_CFG_UNUSED
  77:Generated_Source\PSoC5/cyfitter_cfg.c **** static void CYMEMZERO(void *s, size_t n)
  78:Generated_Source\PSoC5/cyfitter_cfg.c **** {
  79:Generated_Source\PSoC5/cyfitter_cfg.c **** 	(void)memset(s, 0, n);
  80:Generated_Source\PSoC5/cyfitter_cfg.c **** }
  81:Generated_Source\PSoC5/cyfitter_cfg.c **** CY_CFG_UNUSED
  82:Generated_Source\PSoC5/cyfitter_cfg.c **** static void CYCONFIGCPY(void *dest, const void *src, size_t n);
  83:Generated_Source\PSoC5/cyfitter_cfg.c **** CY_CFG_UNUSED
  84:Generated_Source\PSoC5/cyfitter_cfg.c **** static void CYCONFIGCPY(void *dest, const void *src, size_t n)
  85:Generated_Source\PSoC5/cyfitter_cfg.c **** {
  86:Generated_Source\PSoC5/cyfitter_cfg.c **** 	(void)memcpy(dest, src, n);
  87:Generated_Source\PSoC5/cyfitter_cfg.c **** }
  88:Generated_Source\PSoC5/cyfitter_cfg.c **** CY_CFG_UNUSED
ARM GAS  C:\Users\HPSPEC~1\AppData\Local\Temp\ccPokLyk.s 			page 3


  89:Generated_Source\PSoC5/cyfitter_cfg.c **** static void CYCONFIGCPYCODE(void *dest, const void *src, size_t n);
  90:Generated_Source\PSoC5/cyfitter_cfg.c **** CY_CFG_UNUSED
  91:Generated_Source\PSoC5/cyfitter_cfg.c **** static void CYCONFIGCPYCODE(void *dest, const void *src, size_t n)
  92:Generated_Source\PSoC5/cyfitter_cfg.c **** {
  93:Generated_Source\PSoC5/cyfitter_cfg.c **** 	(void)memcpy(dest, src, n);
  94:Generated_Source\PSoC5/cyfitter_cfg.c **** }
  95:Generated_Source\PSoC5/cyfitter_cfg.c **** 
  96:Generated_Source\PSoC5/cyfitter_cfg.c **** 
  97:Generated_Source\PSoC5/cyfitter_cfg.c **** 
  98:Generated_Source\PSoC5/cyfitter_cfg.c **** 
  99:Generated_Source\PSoC5/cyfitter_cfg.c **** /* Clock startup error codes                                                   */
 100:Generated_Source\PSoC5/cyfitter_cfg.c **** #define CYCLOCKSTART_NO_ERROR    0u
 101:Generated_Source\PSoC5/cyfitter_cfg.c **** #define CYCLOCKSTART_XTAL_ERROR  1u
 102:Generated_Source\PSoC5/cyfitter_cfg.c **** #define CYCLOCKSTART_32KHZ_ERROR 2u
 103:Generated_Source\PSoC5/cyfitter_cfg.c **** #define CYCLOCKSTART_PLL_ERROR   3u
 104:Generated_Source\PSoC5/cyfitter_cfg.c **** #define CYCLOCKSTART_FLL_ERROR   4u
 105:Generated_Source\PSoC5/cyfitter_cfg.c **** #define CYCLOCKSTART_WCO_ERROR   5u
 106:Generated_Source\PSoC5/cyfitter_cfg.c **** 
 107:Generated_Source\PSoC5/cyfitter_cfg.c **** 
 108:Generated_Source\PSoC5/cyfitter_cfg.c **** #ifdef CY_NEED_CYCLOCKSTARTUPERROR
 109:Generated_Source\PSoC5/cyfitter_cfg.c **** /*******************************************************************************
 110:Generated_Source\PSoC5/cyfitter_cfg.c **** * Function Name: CyClockStartupError
 111:Generated_Source\PSoC5/cyfitter_cfg.c **** ********************************************************************************
 112:Generated_Source\PSoC5/cyfitter_cfg.c **** * Summary:
 113:Generated_Source\PSoC5/cyfitter_cfg.c **** *  If an error is encountered during clock configuration (crystal startup error,
 114:Generated_Source\PSoC5/cyfitter_cfg.c **** *  PLL lock error, etc.), the system will end up here.  Unless reimplemented by
 115:Generated_Source\PSoC5/cyfitter_cfg.c **** *  the customer, this function will stop in an infinite loop.
 116:Generated_Source\PSoC5/cyfitter_cfg.c **** *
 117:Generated_Source\PSoC5/cyfitter_cfg.c **** * Parameters:
 118:Generated_Source\PSoC5/cyfitter_cfg.c **** *   void
 119:Generated_Source\PSoC5/cyfitter_cfg.c **** *
 120:Generated_Source\PSoC5/cyfitter_cfg.c **** * Return:
 121:Generated_Source\PSoC5/cyfitter_cfg.c **** *   void
 122:Generated_Source\PSoC5/cyfitter_cfg.c **** *
 123:Generated_Source\PSoC5/cyfitter_cfg.c **** *******************************************************************************/
 124:Generated_Source\PSoC5/cyfitter_cfg.c **** CY_CFG_UNUSED
 125:Generated_Source\PSoC5/cyfitter_cfg.c **** static void CyClockStartupError(uint8 errorCode);
 126:Generated_Source\PSoC5/cyfitter_cfg.c **** CY_CFG_UNUSED
 127:Generated_Source\PSoC5/cyfitter_cfg.c **** static void CyClockStartupError(uint8 errorCode)
 128:Generated_Source\PSoC5/cyfitter_cfg.c **** {
  27              		.loc 1 128 0
  28              		.cfi_startproc
  29              		@ Volatile: function does not return.
  30              		@ args = 0, pretend = 0, frame = 0
  31              		@ frame_needed = 0, uses_anonymous_args = 0
  32              		@ link register save eliminated.
  33              	.LVL0:
  34              	.L2:
  35 0000 FEE7     		b	.L2
  36              		.cfi_endproc
  37              	.LFE3:
  38              		.size	CyClockStartupError, .-CyClockStartupError
  39 0002 00BF     		.section	.text.cfg_write_bytes32,"ax",%progbits
  40              		.align	2
  41              		.thumb
  42              		.thumb_func
  43              		.type	cfg_write_bytes32, %function
ARM GAS  C:\Users\HPSPEC~1\AppData\Local\Temp\ccPokLyk.s 			page 4


  44              	cfg_write_bytes32:
  45              	.LFB4:
 129:Generated_Source\PSoC5/cyfitter_cfg.c ****     /* To remove the compiler warning if errorCode not used.                */
 130:Generated_Source\PSoC5/cyfitter_cfg.c ****     errorCode = errorCode;
 131:Generated_Source\PSoC5/cyfitter_cfg.c **** 
 132:Generated_Source\PSoC5/cyfitter_cfg.c ****     /* If we have a clock startup error (bad MHz crystal, PLL lock, etc.),  */
 133:Generated_Source\PSoC5/cyfitter_cfg.c ****     /* we will end up here to allow the customer to implement something to  */
 134:Generated_Source\PSoC5/cyfitter_cfg.c ****     /* deal with the clock condition.                                       */
 135:Generated_Source\PSoC5/cyfitter_cfg.c **** 
 136:Generated_Source\PSoC5/cyfitter_cfg.c **** #ifdef CY_CFG_CLOCK_STARTUP_ERROR_CALLBACK
 137:Generated_Source\PSoC5/cyfitter_cfg.c ****     CY_CFG_Clock_Startup_ErrorCallback();
 138:Generated_Source\PSoC5/cyfitter_cfg.c **** #else
 139:Generated_Source\PSoC5/cyfitter_cfg.c ****     /*  If not using CY_CFG_CLOCK_STARTUP_ERROR_CALLBACK, place your clock startup code here. */
 140:Generated_Source\PSoC5/cyfitter_cfg.c ****     /* `#START CyClockStartupError` */
 141:Generated_Source\PSoC5/cyfitter_cfg.c **** 
 142:Generated_Source\PSoC5/cyfitter_cfg.c **** 
 143:Generated_Source\PSoC5/cyfitter_cfg.c **** 
 144:Generated_Source\PSoC5/cyfitter_cfg.c ****     /* `#END` */
 145:Generated_Source\PSoC5/cyfitter_cfg.c **** 
 146:Generated_Source\PSoC5/cyfitter_cfg.c ****     while(1) {}
 147:Generated_Source\PSoC5/cyfitter_cfg.c **** #endif /* CY_CFG_CLOCK_STARTUP_ERROR_CALLBACK */
 148:Generated_Source\PSoC5/cyfitter_cfg.c **** }
 149:Generated_Source\PSoC5/cyfitter_cfg.c **** #endif
 150:Generated_Source\PSoC5/cyfitter_cfg.c **** 
 151:Generated_Source\PSoC5/cyfitter_cfg.c **** #define CY_CFG_BASE_ADDR_COUNT 24u
 152:Generated_Source\PSoC5/cyfitter_cfg.c **** CYPACKED typedef struct
 153:Generated_Source\PSoC5/cyfitter_cfg.c **** {
 154:Generated_Source\PSoC5/cyfitter_cfg.c **** 	uint8 offset;
 155:Generated_Source\PSoC5/cyfitter_cfg.c **** 	uint8 value;
 156:Generated_Source\PSoC5/cyfitter_cfg.c **** } CYPACKED_ATTR cy_cfg_addrvalue_t;
 157:Generated_Source\PSoC5/cyfitter_cfg.c **** 
 158:Generated_Source\PSoC5/cyfitter_cfg.c **** #define cy_cfg_addr_table ((const uint32 CYFAR *)0x48000000u)
 159:Generated_Source\PSoC5/cyfitter_cfg.c **** #define cy_cfg_data_table ((const cy_cfg_addrvalue_t CYFAR *)0x48000060u)
 160:Generated_Source\PSoC5/cyfitter_cfg.c **** 
 161:Generated_Source\PSoC5/cyfitter_cfg.c **** /* IOPINS0_0 Address: CYREG_PRT0_DM0 Size (bytes): 8 */
 162:Generated_Source\PSoC5/cyfitter_cfg.c **** #define BS_IOPINS0_0_VAL ((const uint8 CYFAR *)0x480002ACu)
 163:Generated_Source\PSoC5/cyfitter_cfg.c **** 
 164:Generated_Source\PSoC5/cyfitter_cfg.c **** /* IOPINS0_7 Address: CYREG_PRT12_DM0 Size (bytes): 8 */
 165:Generated_Source\PSoC5/cyfitter_cfg.c **** #define BS_IOPINS0_7_VAL ((const uint8 CYFAR *)0x480002B4u)
 166:Generated_Source\PSoC5/cyfitter_cfg.c **** 
 167:Generated_Source\PSoC5/cyfitter_cfg.c **** /* IOPINS0_8 Address: CYREG_PRT15_DM0 Size (bytes): 8 */
 168:Generated_Source\PSoC5/cyfitter_cfg.c **** #define BS_IOPINS0_8_VAL ((const uint8 CYFAR *)0x480002BCu)
 169:Generated_Source\PSoC5/cyfitter_cfg.c **** 
 170:Generated_Source\PSoC5/cyfitter_cfg.c **** /* IOPINS0_1 Address: CYREG_PRT1_DM0 Size (bytes): 8 */
 171:Generated_Source\PSoC5/cyfitter_cfg.c **** #define BS_IOPINS0_1_VAL ((const uint8 CYFAR *)0x480002C4u)
 172:Generated_Source\PSoC5/cyfitter_cfg.c **** 
 173:Generated_Source\PSoC5/cyfitter_cfg.c **** /* IOPINS0_2 Address: CYREG_PRT2_DM0 Size (bytes): 8 */
 174:Generated_Source\PSoC5/cyfitter_cfg.c **** #define BS_IOPINS0_2_VAL ((const uint8 CYFAR *)0x480002CCu)
 175:Generated_Source\PSoC5/cyfitter_cfg.c **** 
 176:Generated_Source\PSoC5/cyfitter_cfg.c **** /* IOPINS0_3 Address: CYREG_PRT3_DM0 Size (bytes): 8 */
 177:Generated_Source\PSoC5/cyfitter_cfg.c **** #define BS_IOPINS0_3_VAL ((const uint8 CYFAR *)0x480002D4u)
 178:Generated_Source\PSoC5/cyfitter_cfg.c **** 
 179:Generated_Source\PSoC5/cyfitter_cfg.c **** 
 180:Generated_Source\PSoC5/cyfitter_cfg.c **** /*******************************************************************************
 181:Generated_Source\PSoC5/cyfitter_cfg.c **** * Function Name: cfg_write_bytes32
 182:Generated_Source\PSoC5/cyfitter_cfg.c **** ********************************************************************************
 183:Generated_Source\PSoC5/cyfitter_cfg.c **** * Summary:
ARM GAS  C:\Users\HPSPEC~1\AppData\Local\Temp\ccPokLyk.s 			page 5


 184:Generated_Source\PSoC5/cyfitter_cfg.c **** *  This function is used for setting up the chip configuration areas that
 185:Generated_Source\PSoC5/cyfitter_cfg.c **** *  contain relatively sparse data.
 186:Generated_Source\PSoC5/cyfitter_cfg.c **** *
 187:Generated_Source\PSoC5/cyfitter_cfg.c **** * Parameters:
 188:Generated_Source\PSoC5/cyfitter_cfg.c **** *   void
 189:Generated_Source\PSoC5/cyfitter_cfg.c **** *
 190:Generated_Source\PSoC5/cyfitter_cfg.c **** * Return:
 191:Generated_Source\PSoC5/cyfitter_cfg.c **** *   void
 192:Generated_Source\PSoC5/cyfitter_cfg.c **** *
 193:Generated_Source\PSoC5/cyfitter_cfg.c **** *******************************************************************************/
 194:Generated_Source\PSoC5/cyfitter_cfg.c **** static void cfg_write_bytes32(const uint32 addr_table[], const cy_cfg_addrvalue_t data_table[]);
 195:Generated_Source\PSoC5/cyfitter_cfg.c **** static void cfg_write_bytes32(const uint32 addr_table[], const cy_cfg_addrvalue_t data_table[])
 196:Generated_Source\PSoC5/cyfitter_cfg.c **** {
  46              		.loc 1 196 0
  47              		.cfi_startproc
  48              		@ args = 0, pretend = 0, frame = 0
  49              		@ frame_needed = 0, uses_anonymous_args = 0
  50              		@ link register save eliminated.
  51              	.LVL1:
  52              		.loc 1 196 0
  53 0000 F0B4     		push	{r4, r5, r6, r7}
  54              		.cfi_def_cfa_offset 16
  55              		.cfi_offset 4, -16
  56              		.cfi_offset 5, -12
  57              		.cfi_offset 6, -8
  58              		.cfi_offset 7, -4
  59              	.LVL2:
 197:Generated_Source\PSoC5/cyfitter_cfg.c **** 	/* For 32-bit little-endian architectures */
 198:Generated_Source\PSoC5/cyfitter_cfg.c **** 	uint32 i, j = 0u;
  60              		.loc 1 198 0
  61 0002 0022     		movs	r2, #0
 199:Generated_Source\PSoC5/cyfitter_cfg.c **** 	for (i = 0u; i < CY_CFG_BASE_ADDR_COUNT; i++)
  62              		.loc 1 199 0
  63 0004 1746     		mov	r7, r2
  64 0006 11E0     		b	.L4
  65              	.LVL3:
  66              	.L7:
  67              	.LBB2:
 200:Generated_Source\PSoC5/cyfitter_cfg.c **** 	{
 201:Generated_Source\PSoC5/cyfitter_cfg.c **** 		uint32 baseAddr = addr_table[i];
  68              		.loc 1 201 0
  69 0008 50F82760 		ldr	r6, [r0, r7, lsl #2]
  70              	.LVL4:
 202:Generated_Source\PSoC5/cyfitter_cfg.c **** 		uint8 count = (uint8)baseAddr;
  71              		.loc 1 202 0
  72 000c F3B2     		uxtb	r3, r6
  73              	.LVL5:
 203:Generated_Source\PSoC5/cyfitter_cfg.c **** 		baseAddr &= 0xFFFFFF00u;
  74              		.loc 1 203 0
  75 000e 26F0FF06 		bic	r6, r6, #255
  76              	.LVL6:
 204:Generated_Source\PSoC5/cyfitter_cfg.c **** 		while (count != 0u)
  77              		.loc 1 204 0
  78 0012 08E0     		b	.L5
  79              	.L6:
 205:Generated_Source\PSoC5/cyfitter_cfg.c **** 		{
 206:Generated_Source\PSoC5/cyfitter_cfg.c **** 			CY_SET_REG8((void *)(baseAddr + data_table[j].offset), data_table[j].value);
ARM GAS  C:\Users\HPSPEC~1\AppData\Local\Temp\ccPokLyk.s 			page 6


  80              		.loc 1 206 0
  81 0014 01EB4205 		add	r5, r1, r2, lsl #1
  82 0018 11F81240 		ldrb	r4, [r1, r2, lsl #1]	@ zero_extendqisi2
  83 001c 6D78     		ldrb	r5, [r5, #1]	@ zero_extendqisi2
  84 001e A555     		strb	r5, [r4, r6]
 207:Generated_Source\PSoC5/cyfitter_cfg.c **** 			j++;
  85              		.loc 1 207 0
  86 0020 0132     		adds	r2, r2, #1
  87              	.LVL7:
 208:Generated_Source\PSoC5/cyfitter_cfg.c **** 			count--;
  88              		.loc 1 208 0
  89 0022 013B     		subs	r3, r3, #1
  90              	.LVL8:
  91 0024 DBB2     		uxtb	r3, r3
  92              	.LVL9:
  93              	.L5:
 204:Generated_Source\PSoC5/cyfitter_cfg.c **** 		{
  94              		.loc 1 204 0
  95 0026 002B     		cmp	r3, #0
  96 0028 F4D1     		bne	.L6
  97              	.LBE2:
 199:Generated_Source\PSoC5/cyfitter_cfg.c **** 	{
  98              		.loc 1 199 0 discriminator 2
  99 002a 0137     		adds	r7, r7, #1
 100              	.LVL10:
 101              	.L4:
 199:Generated_Source\PSoC5/cyfitter_cfg.c **** 	{
 102              		.loc 1 199 0 is_stmt 0 discriminator 1
 103 002c 172F     		cmp	r7, #23
 104 002e EBD9     		bls	.L7
 209:Generated_Source\PSoC5/cyfitter_cfg.c **** 		}
 210:Generated_Source\PSoC5/cyfitter_cfg.c **** 	}
 211:Generated_Source\PSoC5/cyfitter_cfg.c **** }
 105              		.loc 1 211 0 is_stmt 1
 106 0030 F0BC     		pop	{r4, r5, r6, r7}
 107              		.cfi_restore 7
 108              		.cfi_restore 6
 109              		.cfi_restore 5
 110              		.cfi_restore 4
 111              		.cfi_def_cfa_offset 0
 112              	.LVL11:
 113 0032 7047     		bx	lr
 114              		.cfi_endproc
 115              	.LFE4:
 116              		.size	cfg_write_bytes32, .-cfg_write_bytes32
 117              		.section	.text.AnalogSetDefault,"ax",%progbits
 118              		.align	2
 119              		.thumb
 120              		.thumb_func
 121              		.type	AnalogSetDefault, %function
 122              	AnalogSetDefault:
 123              	.LFB6:
 212:Generated_Source\PSoC5/cyfitter_cfg.c **** 
 213:Generated_Source\PSoC5/cyfitter_cfg.c **** /*******************************************************************************
 214:Generated_Source\PSoC5/cyfitter_cfg.c **** * Function Name: ClockSetup
 215:Generated_Source\PSoC5/cyfitter_cfg.c **** ********************************************************************************
 216:Generated_Source\PSoC5/cyfitter_cfg.c **** *
ARM GAS  C:\Users\HPSPEC~1\AppData\Local\Temp\ccPokLyk.s 			page 7


 217:Generated_Source\PSoC5/cyfitter_cfg.c **** * Summary:
 218:Generated_Source\PSoC5/cyfitter_cfg.c **** *  Performs the initialization of all of the clocks in the device based on the
 219:Generated_Source\PSoC5/cyfitter_cfg.c **** *  settings in the Clock tab of the DWR.  This includes enabling the requested
 220:Generated_Source\PSoC5/cyfitter_cfg.c **** *  clocks and setting the necessary dividers to produce the desired frequency. 
 221:Generated_Source\PSoC5/cyfitter_cfg.c **** *
 222:Generated_Source\PSoC5/cyfitter_cfg.c **** * Parameters:
 223:Generated_Source\PSoC5/cyfitter_cfg.c **** *  void
 224:Generated_Source\PSoC5/cyfitter_cfg.c **** *
 225:Generated_Source\PSoC5/cyfitter_cfg.c **** * Return:
 226:Generated_Source\PSoC5/cyfitter_cfg.c **** *  void
 227:Generated_Source\PSoC5/cyfitter_cfg.c **** *
 228:Generated_Source\PSoC5/cyfitter_cfg.c **** *******************************************************************************/
 229:Generated_Source\PSoC5/cyfitter_cfg.c **** static void ClockSetup(void);
 230:Generated_Source\PSoC5/cyfitter_cfg.c **** static void ClockSetup(void)
 231:Generated_Source\PSoC5/cyfitter_cfg.c **** {
 232:Generated_Source\PSoC5/cyfitter_cfg.c **** 	uint32 timeout;
 233:Generated_Source\PSoC5/cyfitter_cfg.c **** 	uint8 pllLock;
 234:Generated_Source\PSoC5/cyfitter_cfg.c **** 
 235:Generated_Source\PSoC5/cyfitter_cfg.c **** 
 236:Generated_Source\PSoC5/cyfitter_cfg.c **** 	/* Configure Digital Clocks based on settings from Clock DWR */
 237:Generated_Source\PSoC5/cyfitter_cfg.c **** 	CY_SET_XTND_REG16((void CYFAR *)(CYREG_CLKDIST_DCFG0_CFG0), 0x3A97u);
 238:Generated_Source\PSoC5/cyfitter_cfg.c **** 	CY_SET_XTND_REG8((void CYFAR *)(CYREG_CLKDIST_DCFG0_CFG0 + 0x2u), 0x19u);
 239:Generated_Source\PSoC5/cyfitter_cfg.c **** 
 240:Generated_Source\PSoC5/cyfitter_cfg.c **** 	/* Configure ILO based on settings from Clock DWR */
 241:Generated_Source\PSoC5/cyfitter_cfg.c **** 	CY_SET_XTND_REG8((void CYFAR *)(CYREG_SLOWCLK_ILO_CR0), 0x02u);
 242:Generated_Source\PSoC5/cyfitter_cfg.c **** 	CY_SET_XTND_REG8((void CYFAR *)(CYREG_CLKDIST_CR), 0x08u);
 243:Generated_Source\PSoC5/cyfitter_cfg.c **** 
 244:Generated_Source\PSoC5/cyfitter_cfg.c **** 	/* Configure IMO based on settings from Clock DWR */
 245:Generated_Source\PSoC5/cyfitter_cfg.c **** 	CY_SET_XTND_REG8((void CYFAR *)(CYREG_FASTCLK_IMO_CR), 0x03u);
 246:Generated_Source\PSoC5/cyfitter_cfg.c **** 	CY_SET_XTND_REG8((void CYFAR *)(CYREG_IMO_TR1), (CY_GET_XTND_REG8((void CYFAR *)CYREG_FLSHID_CUST_
 247:Generated_Source\PSoC5/cyfitter_cfg.c **** 
 248:Generated_Source\PSoC5/cyfitter_cfg.c **** 	/* Configure PLL based on settings from Clock DWR */
 249:Generated_Source\PSoC5/cyfitter_cfg.c **** 	CY_SET_XTND_REG16((void CYFAR *)(CYREG_FASTCLK_PLL_P), 0x0008u);
 250:Generated_Source\PSoC5/cyfitter_cfg.c **** 	CY_SET_XTND_REG16((void CYFAR *)(CYREG_FASTCLK_PLL_CFG0), 0x1251u);
 251:Generated_Source\PSoC5/cyfitter_cfg.c **** 	/* Wait up to 250us for the PLL to lock */
 252:Generated_Source\PSoC5/cyfitter_cfg.c **** 	pllLock = 0u;
 253:Generated_Source\PSoC5/cyfitter_cfg.c **** 	for (timeout = 250u / 10u; (timeout > 0u) && (pllLock != 0x03u); timeout--)
 254:Generated_Source\PSoC5/cyfitter_cfg.c **** 	{ 
 255:Generated_Source\PSoC5/cyfitter_cfg.c **** 		pllLock = 0x03u & ((uint8)((uint8)pllLock << 1) | ((CY_GET_XTND_REG8((void CYFAR *)CYREG_FASTCLK_
 256:Generated_Source\PSoC5/cyfitter_cfg.c **** 		CyDelayCycles(10u * 48u); /* Delay 10us based on 48MHz clock */
 257:Generated_Source\PSoC5/cyfitter_cfg.c **** 	}
 258:Generated_Source\PSoC5/cyfitter_cfg.c **** 	/* If we ran out of time the PLL didn't lock so go to the error function */
 259:Generated_Source\PSoC5/cyfitter_cfg.c **** 	if (timeout == 0u)
 260:Generated_Source\PSoC5/cyfitter_cfg.c **** 	{
 261:Generated_Source\PSoC5/cyfitter_cfg.c **** 		CyClockStartupError(CYCLOCKSTART_PLL_ERROR);
 262:Generated_Source\PSoC5/cyfitter_cfg.c **** 	}
 263:Generated_Source\PSoC5/cyfitter_cfg.c **** 
 264:Generated_Source\PSoC5/cyfitter_cfg.c **** 	/* Configure Bus/Master Clock based on settings from Clock DWR */
 265:Generated_Source\PSoC5/cyfitter_cfg.c **** 	CY_SET_XTND_REG16((void CYFAR *)(CYREG_CLKDIST_MSTR0), 0x0100u);
 266:Generated_Source\PSoC5/cyfitter_cfg.c **** 	CY_SET_XTND_REG8((void CYFAR *)(CYREG_CLKDIST_MSTR0), 0x07u);
 267:Generated_Source\PSoC5/cyfitter_cfg.c **** 	CY_SET_XTND_REG8((void CYFAR *)(CYREG_CLKDIST_BCFG0), 0x00u);
 268:Generated_Source\PSoC5/cyfitter_cfg.c **** 	CY_SET_XTND_REG8((void CYFAR *)(CYREG_CLKDIST_BCFG2), 0x48u);
 269:Generated_Source\PSoC5/cyfitter_cfg.c **** 	CY_SET_XTND_REG8((void CYFAR *)(CYREG_CLKDIST_MSTR0), 0x00u);
 270:Generated_Source\PSoC5/cyfitter_cfg.c **** 	CY_SET_XTND_REG8((void CYFAR *)(CYREG_CLKDIST_LD), 0x02u);
 271:Generated_Source\PSoC5/cyfitter_cfg.c **** 
 272:Generated_Source\PSoC5/cyfitter_cfg.c **** 	CY_SET_XTND_REG8((void CYFAR *)(CYREG_PM_ACT_CFG2), ((CY_GET_XTND_REG8((void CYFAR *)CYREG_PM_ACT_
 273:Generated_Source\PSoC5/cyfitter_cfg.c **** }
ARM GAS  C:\Users\HPSPEC~1\AppData\Local\Temp\ccPokLyk.s 			page 8


 274:Generated_Source\PSoC5/cyfitter_cfg.c **** 
 275:Generated_Source\PSoC5/cyfitter_cfg.c **** 
 276:Generated_Source\PSoC5/cyfitter_cfg.c **** /* Analog API Functions */
 277:Generated_Source\PSoC5/cyfitter_cfg.c **** 
 278:Generated_Source\PSoC5/cyfitter_cfg.c **** 
 279:Generated_Source\PSoC5/cyfitter_cfg.c **** /*******************************************************************************
 280:Generated_Source\PSoC5/cyfitter_cfg.c **** * Function Name: AnalogSetDefault
 281:Generated_Source\PSoC5/cyfitter_cfg.c **** ********************************************************************************
 282:Generated_Source\PSoC5/cyfitter_cfg.c **** *
 283:Generated_Source\PSoC5/cyfitter_cfg.c **** * Summary:
 284:Generated_Source\PSoC5/cyfitter_cfg.c **** *  Sets up the analog portions of the chip to default values based on chip
 285:Generated_Source\PSoC5/cyfitter_cfg.c **** *  configuration options from the project.
 286:Generated_Source\PSoC5/cyfitter_cfg.c **** *
 287:Generated_Source\PSoC5/cyfitter_cfg.c **** * Parameters:
 288:Generated_Source\PSoC5/cyfitter_cfg.c **** *  void
 289:Generated_Source\PSoC5/cyfitter_cfg.c **** *
 290:Generated_Source\PSoC5/cyfitter_cfg.c **** * Return:
 291:Generated_Source\PSoC5/cyfitter_cfg.c **** *  void
 292:Generated_Source\PSoC5/cyfitter_cfg.c **** *
 293:Generated_Source\PSoC5/cyfitter_cfg.c **** *******************************************************************************/
 294:Generated_Source\PSoC5/cyfitter_cfg.c **** static void AnalogSetDefault(void);
 295:Generated_Source\PSoC5/cyfitter_cfg.c **** static void AnalogSetDefault(void)
 296:Generated_Source\PSoC5/cyfitter_cfg.c **** {
 124              		.loc 1 296 0
 125              		.cfi_startproc
 126              		@ args = 0, pretend = 0, frame = 0
 127              		@ frame_needed = 0, uses_anonymous_args = 0
 128              		@ link register save eliminated.
 297:Generated_Source\PSoC5/cyfitter_cfg.c **** 	uint8 bg_xover_inl_trim = CY_GET_XTND_REG8((void CYFAR *)(CYREG_FLSHID_MFG_CFG_BG_XOVER_INL_TRIM +
 129              		.loc 1 297 0
 130 0000 064B     		ldr	r3, .L10
 131 0002 1B78     		ldrb	r3, [r3]	@ zero_extendqisi2
 132 0004 DBB2     		uxtb	r3, r3
 133              	.LVL12:
 298:Generated_Source\PSoC5/cyfitter_cfg.c **** 	CY_SET_XTND_REG8((void CYFAR *)(CYREG_BG_DFT0), (bg_xover_inl_trim & 0x07u));
 134              		.loc 1 298 0
 135 0006 03F00701 		and	r1, r3, #7
 136 000a 054A     		ldr	r2, .L10+4
 137 000c 1170     		strb	r1, [r2]
 299:Generated_Source\PSoC5/cyfitter_cfg.c **** 	CY_SET_XTND_REG8((void CYFAR *)(CYREG_BG_DFT1), ((bg_xover_inl_trim >> 4) & 0x0Fu));
 138              		.loc 1 299 0
 139 000e 1B09     		lsrs	r3, r3, #4
 140              	.LVL13:
 141 0010 0132     		adds	r2, r2, #1
 142 0012 1370     		strb	r3, [r2]
 300:Generated_Source\PSoC5/cyfitter_cfg.c **** 	CY_SET_XTND_REG8((void CYFAR *)CYREG_PUMP_CR0, 0x44u);
 143              		.loc 1 300 0
 144 0014 4422     		movs	r2, #68
 145 0016 034B     		ldr	r3, .L10+8
 146 0018 1A70     		strb	r2, [r3]
 147 001a 7047     		bx	lr
 148              	.L11:
 149              		.align	2
 150              	.L10:
 151 001c CF010049 		.word	1224737231
 152 0020 6E580040 		.word	1073764462
 153 0024 76580040 		.word	1073764470
ARM GAS  C:\Users\HPSPEC~1\AppData\Local\Temp\ccPokLyk.s 			page 9


 154              		.cfi_endproc
 155              	.LFE6:
 156              		.size	AnalogSetDefault, .-AnalogSetDefault
 157              		.section	.text.CYMEMZERO,"ax",%progbits
 158              		.align	2
 159              		.thumb
 160              		.thumb_func
 161              		.type	CYMEMZERO, %function
 162              	CYMEMZERO:
 163              	.LFB0:
  78:Generated_Source\PSoC5/cyfitter_cfg.c **** 	(void)memset(s, 0, n);
 164              		.loc 1 78 0
 165              		.cfi_startproc
 166              		@ args = 0, pretend = 0, frame = 0
 167              		@ frame_needed = 0, uses_anonymous_args = 0
 168              	.LVL14:
 169 0000 08B5     		push	{r3, lr}
 170              		.cfi_def_cfa_offset 8
 171              		.cfi_offset 3, -8
 172              		.cfi_offset 14, -4
  79:Generated_Source\PSoC5/cyfitter_cfg.c **** }
 173              		.loc 1 79 0
 174 0002 0A46     		mov	r2, r1
 175 0004 0021     		movs	r1, #0
 176              	.LVL15:
 177 0006 FFF7FEFF 		bl	memset
 178              	.LVL16:
 179 000a 08BD     		pop	{r3, pc}
 180              		.cfi_endproc
 181              	.LFE0:
 182              		.size	CYMEMZERO, .-CYMEMZERO
 183              		.section	.text.ClockSetup,"ax",%progbits
 184              		.align	2
 185              		.thumb
 186              		.thumb_func
 187              		.type	ClockSetup, %function
 188              	ClockSetup:
 189              	.LFB5:
 231:Generated_Source\PSoC5/cyfitter_cfg.c **** 	uint32 timeout;
 190              		.loc 1 231 0
 191              		.cfi_startproc
 192              		@ args = 0, pretend = 0, frame = 0
 193              		@ frame_needed = 0, uses_anonymous_args = 0
 194 0000 38B5     		push	{r3, r4, r5, lr}
 195              		.cfi_def_cfa_offset 16
 196              		.cfi_offset 3, -16
 197              		.cfi_offset 4, -12
 198              		.cfi_offset 5, -8
 199              		.cfi_offset 14, -4
 237:Generated_Source\PSoC5/cyfitter_cfg.c **** 	CY_SET_XTND_REG8((void CYFAR *)(CYREG_CLKDIST_DCFG0_CFG0 + 0x2u), 0x19u);
 200              		.loc 1 237 0
 201 0002 43F69722 		movw	r2, #14999
 202 0006 244B     		ldr	r3, .L20
 203 0008 1A80     		strh	r2, [r3]	@ movhi
 238:Generated_Source\PSoC5/cyfitter_cfg.c **** 
 204              		.loc 1 238 0
 205 000a 1925     		movs	r5, #25
ARM GAS  C:\Users\HPSPEC~1\AppData\Local\Temp\ccPokLyk.s 			page 10


 206 000c 0233     		adds	r3, r3, #2
 207 000e 1D70     		strb	r5, [r3]
 241:Generated_Source\PSoC5/cyfitter_cfg.c **** 	CY_SET_XTND_REG8((void CYFAR *)(CYREG_CLKDIST_CR), 0x08u);
 208              		.loc 1 241 0
 209 0010 0222     		movs	r2, #2
 210 0012 03F27E23 		addw	r3, r3, #638
 211 0016 1A70     		strb	r2, [r3]
 242:Generated_Source\PSoC5/cyfitter_cfg.c **** 
 212              		.loc 1 242 0
 213 0018 0822     		movs	r2, #8
 214 001a 4FF04023 		mov	r3, #1073758208
 215 001e 1A70     		strb	r2, [r3]
 245:Generated_Source\PSoC5/cyfitter_cfg.c **** 	CY_SET_XTND_REG8((void CYFAR *)(CYREG_IMO_TR1), (CY_GET_XTND_REG8((void CYFAR *)CYREG_FLSHID_CUST_
 216              		.loc 1 245 0
 217 0020 0321     		movs	r1, #3
 218 0022 03F50073 		add	r3, r3, #512
 219 0026 1970     		strb	r1, [r3]
 246:Generated_Source\PSoC5/cyfitter_cfg.c **** 
 220              		.loc 1 246 0
 221 0028 1C4B     		ldr	r3, .L20+4
 222 002a 1B78     		ldrb	r3, [r3]	@ zero_extendqisi2
 223 002c DBB2     		uxtb	r3, r3
 224 002e 1C49     		ldr	r1, .L20+8
 225 0030 0B70     		strb	r3, [r1]
 249:Generated_Source\PSoC5/cyfitter_cfg.c **** 	CY_SET_XTND_REG16((void CYFAR *)(CYREG_FASTCLK_PLL_CFG0), 0x1251u);
 226              		.loc 1 249 0
 227 0032 1C4B     		ldr	r3, .L20+12
 228 0034 1A80     		strh	r2, [r3]	@ movhi
 250:Generated_Source\PSoC5/cyfitter_cfg.c **** 	/* Wait up to 250us for the PLL to lock */
 229              		.loc 1 250 0
 230 0036 41F25122 		movw	r2, #4689
 231 003a 023B     		subs	r3, r3, #2
 232 003c 1A80     		strh	r2, [r3]	@ movhi
 233              	.LVL17:
 252:Generated_Source\PSoC5/cyfitter_cfg.c **** 	for (timeout = 250u / 10u; (timeout > 0u) && (pllLock != 0x03u); timeout--)
 234              		.loc 1 252 0
 235 003e 0024     		movs	r4, #0
 253:Generated_Source\PSoC5/cyfitter_cfg.c **** 	{ 
 236              		.loc 1 253 0
 237 0040 0CE0     		b	.L15
 238              	.LVL18:
 239              	.L17:
 255:Generated_Source\PSoC5/cyfitter_cfg.c **** 		CyDelayCycles(10u * 48u); /* Delay 10us based on 48MHz clock */
 240              		.loc 1 255 0 discriminator 4
 241 0042 194B     		ldr	r3, .L20+16
 242 0044 1B78     		ldrb	r3, [r3]	@ zero_extendqisi2
 243 0046 03F00103 		and	r3, r3, #1
 244 004a 43EA4404 		orr	r4, r3, r4, lsl #1
 245              	.LVL19:
 246 004e 04F00304 		and	r4, r4, #3
 247              	.LVL20:
 256:Generated_Source\PSoC5/cyfitter_cfg.c **** 	}
 248              		.loc 1 256 0 discriminator 4
 249 0052 4FF4F070 		mov	r0, #480
 250 0056 FFF7FEFF 		bl	CyDelayCycles
 251              	.LVL21:
 253:Generated_Source\PSoC5/cyfitter_cfg.c **** 	{ 
ARM GAS  C:\Users\HPSPEC~1\AppData\Local\Temp\ccPokLyk.s 			page 11


 252              		.loc 1 253 0 discriminator 4
 253 005a 013D     		subs	r5, r5, #1
 254              	.LVL22:
 255              	.L15:
 253:Generated_Source\PSoC5/cyfitter_cfg.c **** 	{ 
 256              		.loc 1 253 0 is_stmt 0 discriminator 1
 257 005c 0DB1     		cbz	r5, .L16
 253:Generated_Source\PSoC5/cyfitter_cfg.c **** 	{ 
 258              		.loc 1 253 0 discriminator 3
 259 005e 032C     		cmp	r4, #3
 260 0060 EFD1     		bne	.L17
 261              	.L16:
 259:Generated_Source\PSoC5/cyfitter_cfg.c **** 	{
 262              		.loc 1 259 0 is_stmt 1
 263 0062 15B9     		cbnz	r5, .L18
 261:Generated_Source\PSoC5/cyfitter_cfg.c **** 	}
 264              		.loc 1 261 0
 265 0064 0320     		movs	r0, #3
 266 0066 FFF7FEFF 		bl	CyClockStartupError
 267              	.LVL23:
 268              	.L18:
 265:Generated_Source\PSoC5/cyfitter_cfg.c **** 	CY_SET_XTND_REG8((void CYFAR *)(CYREG_CLKDIST_MSTR0), 0x07u);
 269              		.loc 1 265 0
 270 006a 104B     		ldr	r3, .L20+20
 271 006c 4FF48072 		mov	r2, #256
 272 0070 1A80     		strh	r2, [r3]	@ movhi
 266:Generated_Source\PSoC5/cyfitter_cfg.c **** 	CY_SET_XTND_REG8((void CYFAR *)(CYREG_CLKDIST_BCFG0), 0x00u);
 273              		.loc 1 266 0
 274 0072 0722     		movs	r2, #7
 275 0074 1A70     		strb	r2, [r3]
 267:Generated_Source\PSoC5/cyfitter_cfg.c **** 	CY_SET_XTND_REG8((void CYFAR *)(CYREG_CLKDIST_BCFG2), 0x48u);
 276              		.loc 1 267 0
 277 0076 0022     		movs	r2, #0
 278 0078 0D49     		ldr	r1, .L20+24
 279 007a 0A70     		strb	r2, [r1]
 268:Generated_Source\PSoC5/cyfitter_cfg.c **** 	CY_SET_XTND_REG8((void CYFAR *)(CYREG_CLKDIST_MSTR0), 0x00u);
 280              		.loc 1 268 0
 281 007c 4820     		movs	r0, #72
 282 007e 0231     		adds	r1, r1, #2
 283 0080 0870     		strb	r0, [r1]
 269:Generated_Source\PSoC5/cyfitter_cfg.c **** 	CY_SET_XTND_REG8((void CYFAR *)(CYREG_CLKDIST_LD), 0x02u);
 284              		.loc 1 269 0
 285 0082 1A70     		strb	r2, [r3]
 270:Generated_Source\PSoC5/cyfitter_cfg.c **** 
 286              		.loc 1 270 0
 287 0084 0222     		movs	r2, #2
 288 0086 033B     		subs	r3, r3, #3
 289 0088 1A70     		strb	r2, [r3]
 272:Generated_Source\PSoC5/cyfitter_cfg.c **** }
 290              		.loc 1 272 0
 291 008a 0A4A     		ldr	r2, .L20+28
 292 008c 1378     		ldrb	r3, [r2]	@ zero_extendqisi2
 293 008e 43F00103 		orr	r3, r3, #1
 294 0092 1370     		strb	r3, [r2]
 295 0094 38BD     		pop	{r3, r4, r5, pc}
 296              	.LVL24:
 297              	.L21:
ARM GAS  C:\Users\HPSPEC~1\AppData\Local\Temp\ccPokLyk.s 			page 12


 298 0096 00BF     		.align	2
 299              	.L20:
 300 0098 80400040 		.word	1073758336
 301 009c 08010049 		.word	1224737032
 302 00a0 A1460040 		.word	1073759905
 303 00a4 22420040 		.word	1073758754
 304 00a8 25420040 		.word	1073758757
 305 00ac 04400040 		.word	1073758212
 306 00b0 06400040 		.word	1073758214
 307 00b4 A2430040 		.word	1073759138
 308              		.cfi_endproc
 309              	.LFE5:
 310              		.size	ClockSetup, .-ClockSetup
 311              		.section	.text.CYCONFIGCPY,"ax",%progbits
 312              		.align	2
 313              		.thumb
 314              		.thumb_func
 315              		.type	CYCONFIGCPY, %function
 316              	CYCONFIGCPY:
 317              	.LFB1:
  85:Generated_Source\PSoC5/cyfitter_cfg.c **** 	(void)memcpy(dest, src, n);
 318              		.loc 1 85 0
 319              		.cfi_startproc
 320              		@ args = 0, pretend = 0, frame = 0
 321              		@ frame_needed = 0, uses_anonymous_args = 0
 322              	.LVL25:
 323 0000 08B5     		push	{r3, lr}
 324              		.cfi_def_cfa_offset 8
 325              		.cfi_offset 3, -8
 326              		.cfi_offset 14, -4
  86:Generated_Source\PSoC5/cyfitter_cfg.c **** }
 327              		.loc 1 86 0
 328 0002 FFF7FEFF 		bl	memcpy
 329              	.LVL26:
 330 0006 08BD     		pop	{r3, pc}
 331              		.cfi_endproc
 332              	.LFE1:
 333              		.size	CYCONFIGCPY, .-CYCONFIGCPY
 334              		.section	.text.SetAnalogRoutingPumps,"ax",%progbits
 335              		.align	2
 336              		.global	SetAnalogRoutingPumps
 337              		.thumb
 338              		.thumb_func
 339              		.type	SetAnalogRoutingPumps, %function
 340              	SetAnalogRoutingPumps:
 341              	.LFB7:
 301:Generated_Source\PSoC5/cyfitter_cfg.c **** }
 302:Generated_Source\PSoC5/cyfitter_cfg.c **** 
 303:Generated_Source\PSoC5/cyfitter_cfg.c **** 
 304:Generated_Source\PSoC5/cyfitter_cfg.c **** /*******************************************************************************
 305:Generated_Source\PSoC5/cyfitter_cfg.c **** * Function Name: SetAnalogRoutingPumps
 306:Generated_Source\PSoC5/cyfitter_cfg.c **** ********************************************************************************
 307:Generated_Source\PSoC5/cyfitter_cfg.c **** *
 308:Generated_Source\PSoC5/cyfitter_cfg.c **** * Summary:
 309:Generated_Source\PSoC5/cyfitter_cfg.c **** * Enables or disables the analog pumps feeding analog routing switches.
 310:Generated_Source\PSoC5/cyfitter_cfg.c **** * Intended to be called at startup, based on the Vdda system configuration;
 311:Generated_Source\PSoC5/cyfitter_cfg.c **** * may be called during operation when the user informs us that the Vdda voltage
ARM GAS  C:\Users\HPSPEC~1\AppData\Local\Temp\ccPokLyk.s 			page 13


 312:Generated_Source\PSoC5/cyfitter_cfg.c **** * crossed the pump threshold.
 313:Generated_Source\PSoC5/cyfitter_cfg.c **** *
 314:Generated_Source\PSoC5/cyfitter_cfg.c **** * Parameters:
 315:Generated_Source\PSoC5/cyfitter_cfg.c **** *  enabled - 1 to enable the pumps, 0 to disable the pumps
 316:Generated_Source\PSoC5/cyfitter_cfg.c **** *
 317:Generated_Source\PSoC5/cyfitter_cfg.c **** * Return:
 318:Generated_Source\PSoC5/cyfitter_cfg.c **** *  void
 319:Generated_Source\PSoC5/cyfitter_cfg.c **** *
 320:Generated_Source\PSoC5/cyfitter_cfg.c **** *******************************************************************************/
 321:Generated_Source\PSoC5/cyfitter_cfg.c **** void SetAnalogRoutingPumps(uint8 enabled)
 322:Generated_Source\PSoC5/cyfitter_cfg.c **** {
 342              		.loc 1 322 0
 343              		.cfi_startproc
 344              		@ args = 0, pretend = 0, frame = 0
 345              		@ frame_needed = 0, uses_anonymous_args = 0
 346              		@ link register save eliminated.
 347              	.LVL27:
 323:Generated_Source\PSoC5/cyfitter_cfg.c **** 	uint8 regValue = CY_GET_XTND_REG8((void CYFAR *)CYREG_PUMP_CR0);
 348              		.loc 1 323 0
 349 0000 024A     		ldr	r2, .L25
 350 0002 1378     		ldrb	r3, [r2]	@ zero_extendqisi2
 351 0004 DBB2     		uxtb	r3, r3
 352              	.LVL28:
 324:Generated_Source\PSoC5/cyfitter_cfg.c **** 	if (enabled != 0u)
 325:Generated_Source\PSoC5/cyfitter_cfg.c **** 	{
 326:Generated_Source\PSoC5/cyfitter_cfg.c **** 		regValue |= 0x00u;
 327:Generated_Source\PSoC5/cyfitter_cfg.c **** 	}
 328:Generated_Source\PSoC5/cyfitter_cfg.c **** 	else
 329:Generated_Source\PSoC5/cyfitter_cfg.c **** 	{
 330:Generated_Source\PSoC5/cyfitter_cfg.c **** 		regValue &= (uint8)~0x00u;
 331:Generated_Source\PSoC5/cyfitter_cfg.c **** 	}
 332:Generated_Source\PSoC5/cyfitter_cfg.c **** 	CY_SET_XTND_REG8((void CYFAR *)CYREG_PUMP_CR0, regValue);
 353              		.loc 1 332 0
 354 0006 1370     		strb	r3, [r2]
 355 0008 7047     		bx	lr
 356              	.L26:
 357 000a 00BF     		.align	2
 358              	.L25:
 359 000c 76580040 		.word	1073764470
 360              		.cfi_endproc
 361              	.LFE7:
 362              		.size	SetAnalogRoutingPumps, .-SetAnalogRoutingPumps
 363              		.section	.text.cyfitter_cfg,"ax",%progbits
 364              		.align	2
 365              		.global	cyfitter_cfg
 366              		.thumb
 367              		.thumb_func
 368              		.type	cyfitter_cfg, %function
 369              	cyfitter_cfg:
 370              	.LFB8:
 333:Generated_Source\PSoC5/cyfitter_cfg.c **** }
 334:Generated_Source\PSoC5/cyfitter_cfg.c **** 
 335:Generated_Source\PSoC5/cyfitter_cfg.c **** 
 336:Generated_Source\PSoC5/cyfitter_cfg.c **** 
 337:Generated_Source\PSoC5/cyfitter_cfg.c **** 
 338:Generated_Source\PSoC5/cyfitter_cfg.c **** /*******************************************************************************
 339:Generated_Source\PSoC5/cyfitter_cfg.c **** * Function Name: cyfitter_cfg
ARM GAS  C:\Users\HPSPEC~1\AppData\Local\Temp\ccPokLyk.s 			page 14


 340:Generated_Source\PSoC5/cyfitter_cfg.c **** ********************************************************************************
 341:Generated_Source\PSoC5/cyfitter_cfg.c **** * Summary:
 342:Generated_Source\PSoC5/cyfitter_cfg.c **** *  This function is called by the start-up code for the selected device. It
 343:Generated_Source\PSoC5/cyfitter_cfg.c **** *  performs all of the necessary device configuration based on the design
 344:Generated_Source\PSoC5/cyfitter_cfg.c **** *  settings.  This includes settings from the Design Wide Resources (DWR) such
 345:Generated_Source\PSoC5/cyfitter_cfg.c **** *  as Clocks and Pins as well as any component configuration that is necessary.
 346:Generated_Source\PSoC5/cyfitter_cfg.c **** *
 347:Generated_Source\PSoC5/cyfitter_cfg.c **** * Parameters:
 348:Generated_Source\PSoC5/cyfitter_cfg.c **** *   void
 349:Generated_Source\PSoC5/cyfitter_cfg.c **** *
 350:Generated_Source\PSoC5/cyfitter_cfg.c **** * Return:
 351:Generated_Source\PSoC5/cyfitter_cfg.c **** *   void
 352:Generated_Source\PSoC5/cyfitter_cfg.c **** *
 353:Generated_Source\PSoC5/cyfitter_cfg.c **** *******************************************************************************/
 354:Generated_Source\PSoC5/cyfitter_cfg.c **** 
 355:Generated_Source\PSoC5/cyfitter_cfg.c **** void cyfitter_cfg(void)
 356:Generated_Source\PSoC5/cyfitter_cfg.c **** {
 371              		.loc 1 356 0
 372              		.cfi_startproc
 373              		@ args = 0, pretend = 0, frame = 0
 374              		@ frame_needed = 0, uses_anonymous_args = 0
 375 0000 38B5     		push	{r3, r4, r5, lr}
 376              		.cfi_def_cfa_offset 16
 377              		.cfi_offset 3, -16
 378              		.cfi_offset 4, -12
 379              		.cfi_offset 5, -8
 380              		.cfi_offset 14, -4
 357:Generated_Source\PSoC5/cyfitter_cfg.c **** #ifdef CYGlobalIntDisable
 358:Generated_Source\PSoC5/cyfitter_cfg.c **** 	/* Disable interrupts by default. Let user enable if/when they want. */
 359:Generated_Source\PSoC5/cyfitter_cfg.c **** 	CYGlobalIntDisable
 381              		.loc 1 359 0
 382              		.syntax unified
 383              	@ 359 "Generated_Source\PSoC5\cyfitter_cfg.c" 1
 384 0002 72B6     		CPSID   i
 385              	@ 0 "" 2
 360:Generated_Source\PSoC5/cyfitter_cfg.c **** #endif
 361:Generated_Source\PSoC5/cyfitter_cfg.c **** 
 362:Generated_Source\PSoC5/cyfitter_cfg.c **** 	/* Enable/Disable Debug functionality based on settings from System DWR */
 363:Generated_Source\PSoC5/cyfitter_cfg.c **** 	CY_SET_XTND_REG8((void CYFAR *)CYREG_MLOGIC_DEBUG, (CY_GET_XTND_REG8((void CYFAR *)CYREG_MLOGIC_DE
 386              		.loc 1 363 0
 387              		.thumb
 388              		.syntax unified
 389 0004 344A     		ldr	r2, .L31
 390 0006 1378     		ldrb	r3, [r2]	@ zero_extendqisi2
 391 0008 43F00403 		orr	r3, r3, #4
 392 000c 1370     		strb	r3, [r2]
 393              	.LVL29:
 394              	.LBB3:
 364:Generated_Source\PSoC5/cyfitter_cfg.c **** 
 365:Generated_Source\PSoC5/cyfitter_cfg.c **** 	{
 366:Generated_Source\PSoC5/cyfitter_cfg.c **** 
 367:Generated_Source\PSoC5/cyfitter_cfg.c **** 		CYPACKED typedef struct {
 368:Generated_Source\PSoC5/cyfitter_cfg.c **** 			void CYFAR *address;
 369:Generated_Source\PSoC5/cyfitter_cfg.c **** 			uint16 size;
 370:Generated_Source\PSoC5/cyfitter_cfg.c **** 		} CYPACKED_ATTR cfg_memset_t;
 371:Generated_Source\PSoC5/cyfitter_cfg.c **** 
 372:Generated_Source\PSoC5/cyfitter_cfg.c **** 		static const cfg_memset_t CYCODE cfg_memset_list[] = {
ARM GAS  C:\Users\HPSPEC~1\AppData\Local\Temp\ccPokLyk.s 			page 15


 373:Generated_Source\PSoC5/cyfitter_cfg.c **** 			/* address, size */
 374:Generated_Source\PSoC5/cyfitter_cfg.c **** 			{(void CYFAR *)(CYREG_PRT4_DR), 48u},
 375:Generated_Source\PSoC5/cyfitter_cfg.c **** 			{(void CYFAR *)(CYDEV_UCFG_B0_P0_U0_BASE), 4096u},
 376:Generated_Source\PSoC5/cyfitter_cfg.c **** 			{(void CYFAR *)(CYDEV_UCFG_B1_P2_U0_BASE), 2048u},
 377:Generated_Source\PSoC5/cyfitter_cfg.c **** 			{(void CYFAR *)(CYDEV_UCFG_DSI0_BASE), 2560u},
 378:Generated_Source\PSoC5/cyfitter_cfg.c **** 			{(void CYFAR *)(CYDEV_UCFG_DSI12_BASE), 512u},
 379:Generated_Source\PSoC5/cyfitter_cfg.c **** 			{(void CYFAR *)(CYREG_BCTL0_MDCLK_EN), 32u},
 380:Generated_Source\PSoC5/cyfitter_cfg.c **** 		};
 381:Generated_Source\PSoC5/cyfitter_cfg.c **** 
 382:Generated_Source\PSoC5/cyfitter_cfg.c **** 		uint8 CYDATA i;
 383:Generated_Source\PSoC5/cyfitter_cfg.c **** 
 384:Generated_Source\PSoC5/cyfitter_cfg.c **** 		/* Zero out critical memory blocks before beginning configuration */
 385:Generated_Source\PSoC5/cyfitter_cfg.c **** 		for (i = 0u; i < (sizeof(cfg_memset_list)/sizeof(cfg_memset_list[0])); i++)
 395              		.loc 1 385 0
 396 000e 0024     		movs	r4, #0
 397 0010 0CE0     		b	.L28
 398              	.LVL30:
 399              	.L29:
 400              	.LBB4:
 386:Generated_Source\PSoC5/cyfitter_cfg.c **** 		{
 387:Generated_Source\PSoC5/cyfitter_cfg.c **** 			const cfg_memset_t CYCODE * CYDATA ms = &cfg_memset_list[i];
 388:Generated_Source\PSoC5/cyfitter_cfg.c **** 			CYMEMZERO(ms->address, (size_t)(uint32)(ms->size));
 401              		.loc 1 388 0 discriminator 3
 402 0012 324D     		ldr	r5, .L31+4
 403 0014 6300     		lsls	r3, r4, #1
 404 0016 1919     		adds	r1, r3, r4
 405 0018 4A00     		lsls	r2, r1, #1
 406 001a 1146     		mov	r1, r2
 407 001c 2A44     		add	r2, r2, r5
 408 001e 0846     		mov	r0, r1
 409 0020 9188     		ldrh	r1, [r2, #4]
 410 0022 2858     		ldr	r0, [r5, r0]	@ unaligned
 411 0024 FFF7FEFF 		bl	CYMEMZERO
 412              	.LVL31:
 413              	.LBE4:
 385:Generated_Source\PSoC5/cyfitter_cfg.c **** 		{
 414              		.loc 1 385 0 discriminator 3
 415 0028 0134     		adds	r4, r4, #1
 416              	.LVL32:
 417 002a E4B2     		uxtb	r4, r4
 418              	.LVL33:
 419              	.L28:
 385:Generated_Source\PSoC5/cyfitter_cfg.c **** 		{
 420              		.loc 1 385 0 is_stmt 0 discriminator 1
 421 002c 052C     		cmp	r4, #5
 422 002e F0D9     		bls	.L29
 389:Generated_Source\PSoC5/cyfitter_cfg.c **** 		}
 390:Generated_Source\PSoC5/cyfitter_cfg.c **** 
 391:Generated_Source\PSoC5/cyfitter_cfg.c **** 		cfg_write_bytes32(cy_cfg_addr_table, cy_cfg_data_table);
 423              		.loc 1 391 0 is_stmt 1
 424 0030 2B49     		ldr	r1, .L31+8
 425 0032 4FF09040 		mov	r0, #1207959552
 426 0036 FFF7FEFF 		bl	cfg_write_bytes32
 427              	.LVL34:
 392:Generated_Source\PSoC5/cyfitter_cfg.c **** 
 393:Generated_Source\PSoC5/cyfitter_cfg.c **** 		/* B0_P2_U1_CFG24 Starting address: CYDEV_UCFG_B0_P2_U1_CFG24 */
 394:Generated_Source\PSoC5/cyfitter_cfg.c **** 		CY_SET_XTND_REG32((void CYFAR *)(CYREG_B0_P2_U1_CFG24), 0x00004448u);
ARM GAS  C:\Users\HPSPEC~1\AppData\Local\Temp\ccPokLyk.s 			page 16


 428              		.loc 1 394 0
 429 003a 44F24842 		movw	r2, #17480
 430 003e 294B     		ldr	r3, .L31+12
 431 0040 1A60     		str	r2, [r3]
 395:Generated_Source\PSoC5/cyfitter_cfg.c **** 
 396:Generated_Source\PSoC5/cyfitter_cfg.c **** 		/* Enable digital routing */
 397:Generated_Source\PSoC5/cyfitter_cfg.c **** 		CY_SET_XTND_REG8((void CYFAR *)CYREG_BCTL0_BANK_CTL, CY_GET_XTND_REG8((void CYFAR *)CYREG_BCTL0_B
 432              		.loc 1 397 0
 433 0042 294A     		ldr	r2, .L31+16
 434 0044 1378     		ldrb	r3, [r2]	@ zero_extendqisi2
 435 0046 43F00203 		orr	r3, r3, #2
 436 004a 1370     		strb	r3, [r2]
 398:Generated_Source\PSoC5/cyfitter_cfg.c **** 		CY_SET_XTND_REG8((void CYFAR *)CYREG_BCTL1_BANK_CTL, CY_GET_XTND_REG8((void CYFAR *)CYREG_BCTL1_B
 437              		.loc 1 398 0
 438 004c 1032     		adds	r2, r2, #16
 439 004e 1378     		ldrb	r3, [r2]	@ zero_extendqisi2
 440 0050 43F00203 		orr	r3, r3, #2
 441 0054 1370     		strb	r3, [r2]
 399:Generated_Source\PSoC5/cyfitter_cfg.c **** 
 400:Generated_Source\PSoC5/cyfitter_cfg.c **** 		/* Enable UDB array */
 401:Generated_Source\PSoC5/cyfitter_cfg.c **** 		CY_SET_XTND_REG8((void CYFAR *)CYREG_PM_ACT_CFG0, CY_GET_XTND_REG8((void CYFAR *)CYREG_PM_ACT_CFG
 442              		.loc 1 401 0
 443 0056 254C     		ldr	r4, .L31+20
 444              	.LVL35:
 445 0058 2378     		ldrb	r3, [r4]	@ zero_extendqisi2
 446 005a 43F04003 		orr	r3, r3, #64
 447 005e 2370     		strb	r3, [r4]
 402:Generated_Source\PSoC5/cyfitter_cfg.c **** 		CY_SET_XTND_REG8((void CYFAR *)CYREG_PM_AVAIL_CR2, CY_GET_XTND_REG8((void CYFAR *)CYREG_PM_AVAIL_
 448              		.loc 1 402 0
 449 0060 A2F58632 		sub	r2, r2, #68608
 450 0064 513A     		subs	r2, r2, #81
 451 0066 1378     		ldrb	r3, [r2]	@ zero_extendqisi2
 452 0068 43F01003 		orr	r3, r3, #16
 453 006c 1370     		strb	r3, [r2]
 454              	.LBE3:
 403:Generated_Source\PSoC5/cyfitter_cfg.c **** 	}
 404:Generated_Source\PSoC5/cyfitter_cfg.c **** 
 405:Generated_Source\PSoC5/cyfitter_cfg.c **** 
 406:Generated_Source\PSoC5/cyfitter_cfg.c **** 	/* Perform second pass device configuration. These items must be configured in specific order afte
 407:Generated_Source\PSoC5/cyfitter_cfg.c **** 	CYCONFIGCPY((void CYFAR *)(CYREG_PRT0_DM0), (const void CYFAR *)(BS_IOPINS0_0_VAL), 8u);
 455              		.loc 1 407 0
 456 006e 0822     		movs	r2, #8
 457 0070 1F49     		ldr	r1, .L31+24
 458 0072 2048     		ldr	r0, .L31+28
 459 0074 FFF7FEFF 		bl	CYCONFIGCPY
 460              	.LVL36:
 408:Generated_Source\PSoC5/cyfitter_cfg.c **** 	CYCONFIGCPY((void CYFAR *)(CYREG_PRT12_DM0), (const void CYFAR *)(BS_IOPINS0_7_VAL), 8u);
 461              		.loc 1 408 0
 462 0078 0822     		movs	r2, #8
 463 007a 1F49     		ldr	r1, .L31+32
 464 007c 1F48     		ldr	r0, .L31+36
 465 007e FFF7FEFF 		bl	CYCONFIGCPY
 466              	.LVL37:
 409:Generated_Source\PSoC5/cyfitter_cfg.c **** 	CYCONFIGCPY((void CYFAR *)(CYREG_PRT15_DM0), (const void CYFAR *)(BS_IOPINS0_8_VAL), 8u);
 467              		.loc 1 409 0
 468 0082 0822     		movs	r2, #8
 469 0084 1E49     		ldr	r1, .L31+40
ARM GAS  C:\Users\HPSPEC~1\AppData\Local\Temp\ccPokLyk.s 			page 17


 470 0086 1F48     		ldr	r0, .L31+44
 471 0088 FFF7FEFF 		bl	CYCONFIGCPY
 472              	.LVL38:
 410:Generated_Source\PSoC5/cyfitter_cfg.c **** 	CYCONFIGCPY((void CYFAR *)(CYREG_PRT1_DM0), (const void CYFAR *)(BS_IOPINS0_1_VAL), 8u);
 473              		.loc 1 410 0
 474 008c 0822     		movs	r2, #8
 475 008e 1E49     		ldr	r1, .L31+48
 476 0090 1E48     		ldr	r0, .L31+52
 477 0092 FFF7FEFF 		bl	CYCONFIGCPY
 478              	.LVL39:
 411:Generated_Source\PSoC5/cyfitter_cfg.c **** 	CYCONFIGCPY((void CYFAR *)(CYREG_PRT2_DM0), (const void CYFAR *)(BS_IOPINS0_2_VAL), 8u);
 479              		.loc 1 411 0
 480 0096 0822     		movs	r2, #8
 481 0098 1D49     		ldr	r1, .L31+56
 482 009a 1E48     		ldr	r0, .L31+60
 483 009c FFF7FEFF 		bl	CYCONFIGCPY
 484              	.LVL40:
 412:Generated_Source\PSoC5/cyfitter_cfg.c **** 	CYCONFIGCPY((void CYFAR *)(CYREG_PRT3_DM0), (const void CYFAR *)(BS_IOPINS0_3_VAL), 8u);
 485              		.loc 1 412 0
 486 00a0 0822     		movs	r2, #8
 487 00a2 1D49     		ldr	r1, .L31+64
 488 00a4 1D48     		ldr	r0, .L31+68
 489 00a6 FFF7FEFF 		bl	CYCONFIGCPY
 490              	.LVL41:
 413:Generated_Source\PSoC5/cyfitter_cfg.c **** 	/* Switch Boost to the precision bandgap reference from its internal reference */
 414:Generated_Source\PSoC5/cyfitter_cfg.c **** 	CY_SET_REG8((void CYXDATA *)CYREG_BOOST_CR2, (CY_GET_REG8((void CYXDATA *)CYREG_BOOST_CR2) | 0x08u
 491              		.loc 1 414 0
 492 00aa 1D4A     		ldr	r2, .L31+72
 493 00ac 1378     		ldrb	r3, [r2]	@ zero_extendqisi2
 494 00ae 43F00803 		orr	r3, r3, #8
 495 00b2 1370     		strb	r3, [r2]
 415:Generated_Source\PSoC5/cyfitter_cfg.c **** 
 416:Generated_Source\PSoC5/cyfitter_cfg.c **** 	/* Set Flash Cycles based on max possible frequency in case a glitch occurs during ClockSetup(). *
 417:Generated_Source\PSoC5/cyfitter_cfg.c **** 	CY_SET_XTND_REG8((void CYFAR *)(CYREG_CACHE_CC_CTL), (((CYDEV_INSTRUCT_CACHE_ENABLED) != 0) ? 0x61
 496              		.loc 1 417 0
 497 00b4 1B4D     		ldr	r5, .L31+76
 498 00b6 6123     		movs	r3, #97
 499 00b8 2B70     		strb	r3, [r5]
 418:Generated_Source\PSoC5/cyfitter_cfg.c **** 	/* Setup clocks based on selections from Clock DWR */
 419:Generated_Source\PSoC5/cyfitter_cfg.c **** 	ClockSetup();
 500              		.loc 1 419 0
 501 00ba FFF7FEFF 		bl	ClockSetup
 502              	.LVL42:
 420:Generated_Source\PSoC5/cyfitter_cfg.c **** 	/* Set Flash Cycles based on newly configured 24.00MHz Bus Clock. */
 421:Generated_Source\PSoC5/cyfitter_cfg.c **** 	CY_SET_XTND_REG8((void CYFAR *)(CYREG_CACHE_CC_CTL), (((CYDEV_INSTRUCT_CACHE_ENABLED) != 0) ? 0x81
 503              		.loc 1 421 0
 504 00be 8123     		movs	r3, #129
 505 00c0 2B70     		strb	r3, [r5]
 422:Generated_Source\PSoC5/cyfitter_cfg.c **** 	CY_SET_XTND_REG8((void CYFAR *)(CYREG_PANTHER_WAITPIPE), 0x01u);
 506              		.loc 1 422 0
 507 00c2 0122     		movs	r2, #1
 508 00c4 184B     		ldr	r3, .L31+80
 509 00c6 1A70     		strb	r2, [r3]
 423:Generated_Source\PSoC5/cyfitter_cfg.c **** 
 424:Generated_Source\PSoC5/cyfitter_cfg.c **** 	/* Perform basic analog initialization to defaults */
 425:Generated_Source\PSoC5/cyfitter_cfg.c **** 	AnalogSetDefault();
 510              		.loc 1 425 0
ARM GAS  C:\Users\HPSPEC~1\AppData\Local\Temp\ccPokLyk.s 			page 18


 511 00c8 FFF7FEFF 		bl	AnalogSetDefault
 512              	.LVL43:
 426:Generated_Source\PSoC5/cyfitter_cfg.c **** 
 427:Generated_Source\PSoC5/cyfitter_cfg.c **** 	/* Configure alternate active mode */
 428:Generated_Source\PSoC5/cyfitter_cfg.c **** 	CYCONFIGCPY((void CYFAR *)CYDEV_PM_STBY_BASE, (const void CYFAR *)CYDEV_PM_ACT_BASE, 14u);
 513              		.loc 1 428 0
 514 00cc 0E22     		movs	r2, #14
 515 00ce 2146     		mov	r1, r4
 516 00d0 1648     		ldr	r0, .L31+84
 517 00d2 FFF7FEFF 		bl	CYCONFIGCPY
 518              	.LVL44:
 519 00d6 38BD     		pop	{r3, r4, r5, pc}
 520              	.L32:
 521              		.align	2
 522              	.L31:
 523 00d8 E8460040 		.word	1073759976
 524 00dc 00000000 		.word	.LANCHOR0
 525 00e0 60000048 		.word	1207959648
 526 00e4 D8040140 		.word	1073808600
 527 00e8 03500140 		.word	1073827843
 528 00ec A0430040 		.word	1073759136
 529 00f0 AC020048 		.word	1207960236
 530 00f4 02510040 		.word	1073762562
 531 00f8 B4020048 		.word	1207960244
 532 00fc C2510040 		.word	1073762754
 533 0100 BC020048 		.word	1207960252
 534 0104 F2510040 		.word	1073762802
 535 0108 C4020048 		.word	1207960260
 536 010c 12510040 		.word	1073762578
 537 0110 CC020048 		.word	1207960268
 538 0114 22510040 		.word	1073762594
 539 0118 D4020048 		.word	1207960276
 540 011c 32510040 		.word	1073762610
 541 0120 22430040 		.word	1073759010
 542 0124 00480040 		.word	1073760256
 543 0128 04000840 		.word	1074266116
 544 012c B0430040 		.word	1073759152
 545              		.cfi_endproc
 546              	.LFE8:
 547              		.size	cyfitter_cfg, .-cyfitter_cfg
 548              		.section	.rodata
 549              		.align	2
 550              		.set	.LANCHOR0,. + 0
 551              		.type	cfg_memset_list.5013, %object
 552              		.size	cfg_memset_list.5013, 36
 553              	cfg_memset_list.5013:
 554 0000 40510040 		.word	1073762624
 555 0004 3000     		.short	48
 556 0006 00000140 		.4byte	1073807360
 557 000a 0010     		.short	4096
 558 000c 00140140 		.word	1073812480
 559 0010 0008     		.short	2048
 560 0012 00400140 		.4byte	1073823744
 561 0016 000A     		.short	2560
 562 0018 004C0140 		.word	1073826816
 563 001c 0002     		.short	512
 564 001e 00500140 		.4byte	1073827840
ARM GAS  C:\Users\HPSPEC~1\AppData\Local\Temp\ccPokLyk.s 			page 19


 565 0022 2000     		.short	32
 566              		.text
 567              	.Letext0:
 568              		.file 2 "c:\\program files (x86)\\cypress\\psoc creator\\4.4\\psoc creator\\import\\gnu\\arm\\5.4.
 569              		.file 3 "Generated_Source\\PSoC5\\cytypes.h"
 570              		.file 4 "Generated_Source\\PSoC5\\CyLib.h"