ARM GAS  C:\Users\Esteban\AppData\Local\Temp\cc5msqOa.s 			page 1


   1              		.syntax unified
   2              		.cpu cortex-m3
   3              		.fpu softvfp
   4              		.eabi_attribute 20, 1
   5              		.eabi_attribute 21, 1
   6              		.eabi_attribute 23, 3
   7              		.eabi_attribute 24, 1
   8              		.eabi_attribute 25, 1
   9              		.eabi_attribute 26, 1
  10              		.eabi_attribute 30, 1
  11              		.eabi_attribute 34, 1
  12              		.eabi_attribute 18, 4
  13              		.thumb
  14              		.syntax unified
  15              		.file	"main.c"
  16              		.text
  17              	.Ltext0:
  18              		.cfi_sections	.debug_frame
  19              		.section	.text.IRQ_ISR,"ax",%progbits
  20              		.align	2
  21              		.global	IRQ_ISR
  22              		.thumb
  23              		.thumb_func
  24              		.type	IRQ_ISR, %function
  25              	IRQ_ISR:
  26              	.LFB64:
  27              		.file 1 "main.c"
   1:main.c        **** /* ========================================
   2:main.c        ****  *
   3:main.c        ****  * Copyright YOUR COMPANY, THE YEAR
   4:main.c        ****  * All Rights Reserved
   5:main.c        ****  * UNPUBLISHED, LICENSED SOFTWARE.
   6:main.c        ****  *
   7:main.c        ****  * CONFIDENTIAL AND PROPRIETARY INFORMATION
   8:main.c        ****  * WHICH IS THE PROPERTY OF your company.
   9:main.c        ****  *
  10:main.c        ****  * ========================================
  11:main.c        **** */
  12:main.c        **** #include "project.h"
  13:main.c        **** CY_ISR_PROTO(IRQ_ISR);
  14:main.c        **** CY_ISR_PROTO(Timer_ISR);
  15:main.c        **** uint8 band_2mili=0;
  16:main.c        **** uint8 TitileoSingularDespla=0;
  17:main.c        **** uint16 band380ms=0;
  18:main.c        **** uint8 mili2segundos=0;
  19:main.c        **** uint8 pulsecounter=0;
  20:main.c        **** uint8 Posicion=1;
  21:main.c        **** uint8 contador[4]={0,0,0,0};
  22:main.c        **** uint8 cnt4seg=0;
  23:main.c        **** uint8 Bright[2]={0,255};
  24:main.c        **** uint8 BandeBrillo=0;
  25:main.c        **** uint16 band4seg=0;
  26:main.c        **** uint16 cnt=0;
  27:main.c        **** uint8 configuration=0, Segundos=0;
  28:main.c        **** uint16 T_tiempo=0, bandseg=0, vel =500,cnt_noconf;
  29:main.c        **** uint8 band_tarea1=0,Band_Final=0;
  30:main.c        **** uint16 cnt_time;
ARM GAS  C:\Users\Esteban\AppData\Local\Temp\cc5msqOa.s 			page 2


  31:main.c        **** int main(void)
  32:main.c        **** {
  33:main.c        ****     CyGlobalIntEnable; /* Enable global interrupts. */
  34:main.c        ****     Interrupt_StartEx(IRQ_ISR);
  35:main.c        ****     Timer_StartEx(Timer_ISR);
  36:main.c        ****     Segments_Start();
  37:main.c        ****     Contador_Start();
  38:main.c        ****     DosP_Write(0b1);
  39:main.c        ****     Segments_Write7SegNumberDec(0,1,3,Segments_ZERO_PAD);//Se escriben 3 ceros a la derecha en los 
  40:main.c        ****     
  41:main.c        **** 
  42:main.c        ****     /* Place your initialization/startup code here (e.g. MyInst_Start()) */
  43:main.c        **** 
  44:main.c        ****     for(;;)
  45:main.c        ****     {
  46:main.c        ****         if(band_2mili){
  47:main.c        ****             band_2mili=0;
  48:main.c        ****             band4seg++;
  49:main.c        ****     //-----------------------TAREA 1---------------------------------------------------------------
  50:main.c        ****             if(SW_Read()==0){ 
  51:main.c        ****                 mili2segundos++;
  52:main.c        ****                 Band_Final=0;
  53:main.c        **** //                contador[1]=0;contador[2]=0;contador[3]=0;
  54:main.c        ****     //-----------------------TITILEOS--------------------------------------------------------------
  55:main.c        ****                 if(mili2segundos<=125)Segments_SetBrightness(Bright[1],Posicion);
  56:main.c        ****                 if(mili2segundos>125)Segments_SetBrightness(Bright[0],Posicion);
  57:main.c        ****                 if(mili2segundos>250)mili2segundos=0;             
  58:main.c        ****     //-----------------------4SEGUNDOS-------------------------------------------------------------
  59:main.c        ****                 if(band4seg==2000){// La condición es que si no se realiza ninguna acción el titi
  60:main.c        ****                     band4seg=0;
  61:main.c        ****                     Segments_SetBrightness(Bright[1],Posicion);
  62:main.c        **** 
  63:main.c        ****                     if(Posicion==3){
  64:main.c        ****                         Posicion=0;  
  65:main.c        ****                         configuration=1;   
  66:main.c        ****                     }
  67:main.c        ****                     mili2segundos=0;
  68:main.c        ****                     Posicion++;
  69:main.c        ****                 }
  70:main.c        ****     //----------------------------------------
  71:main.c        **** 
  72:main.c        ****                 if(band380ms){
  73:main.c        ****                     cnt++;
  74:main.c        ****                     band4seg=0;
  75:main.c        ****                     if(pulsecounter==1 && cnt>=190){
  76:main.c        ****                         if(contador[1]>=2)contador[1]=-1;// Definición de limites de los minutos y
  77:main.c        ****                         if(contador[2]>=5)contador[2]=-1;
  78:main.c        ****                         if(contador[3]>=9)contador[3]=-1;                      
  79:main.c        ****                         contador[Posicion]++;// Si se cumple la condición se cambia de posición
  80:main.c        ****                         Segments_Write7SegDigitDec(contador[Posicion],Posicion); // Se escribe el v
  81:main.c        ****                         
  82:main.c        ****                         cnt=0;
  83:main.c        ****                         pulsecounter=0;
  84:main.c        ****                         band4seg=0;
  85:main.c        ****                         band380ms=0;
  86:main.c        ****                         mili2segundos=0;
  87:main.c        ****                     }
ARM GAS  C:\Users\Esteban\AppData\Local\Temp\cc5msqOa.s 			page 3


  88:main.c        ****                     else if(pulsecounter==2 && cnt<190){
  89:main.c        ****                         cnt=0; // Si hay dos pulsaciones se reinicia el contador
  90:main.c        ****                         Segments_SetBrightness(Bright[1],Posicion);                        
  91:main.c        ****                         if(Posicion==3){
  92:main.c        ****                             Posicion=0;
  93:main.c        ****                             configuration=1; }
  94:main.c        ****                         Posicion++;
  95:main.c        ****                         pulsecounter=0;
  96:main.c        ****                         band380ms=0;
  97:main.c        ****                         band4seg=0;
  98:main.c        ****                         mili2segundos=0;//               
  99:main.c        ****                     }
 100:main.c        ****                 }
 101:main.c        **** 
 102:main.c        ****             }
 103:main.c        **** //-----------------TAREA 2------------------------------------------------
 104:main.c        ****             if(SW_Read()){
 105:main.c        ****                 if(configuration==1){
 106:main.c        ****                     cnt_time++;
 107:main.c        ****                     Segments_SetBrightness(Bright[0],0);
 108:main.c        ****                     Segments_SetBrightness(Bright[1],1);
 109:main.c        ****                     Segments_SetBrightness(Bright[1],2);
 110:main.c        ****                     Segments_SetBrightness(Bright[1],3);
 111:main.c        ****                     //--------BUZZER----------------------------
 112:main.c        ****                     if(SW_buzz_Read()==1){
 113:main.c        ****                         if(contador[3]%5==0)Buzzer_Write(1);
 114:main.c        ****                         else Buzzer_Write(0);
 115:main.c        ****                     }else Buzzer_Write(0);
 116:main.c        ****                     
 117:main.c        ****                     //---------------------
 118:main.c        **** 
 119:main.c        ****                     Segments_SetBrightness(Bright[1],1);
 120:main.c        ****                     if(cnt_time>=vel){
 121:main.c        ****                         cnt_time=0; // Se reinicia el contador
 122:main.c        ****                         
 123:main.c        ****                         T_tiempo= contador[1]*60 + contador[2]*10 +contador[3];// Se guarda en una 
 124:main.c        ****                         T_tiempo--;// Se va restando cada vez
 125:main.c        ****                         contador[1]= T_tiempo/60;// Minutos
 126:main.c        ****                         contador[2]=(T_tiempo%60)/10;// Corresponde a decenas de segundos
 127:main.c        ****                         contador[3]=T_tiempo%10;// Segundos
 128:main.c        ****                         Segments_Write7SegDigitDec(contador[1],1);
 129:main.c        ****                         Segments_Write7SegDigitDec(contador[2],2);
 130:main.c        ****                         Segments_Write7SegDigitDec(contador[3],3);
 131:main.c        ****                         if(contador[1]==0 && contador[2]==0 && contador[3]==0){// Si todo se cumple
 132:main.c        ****                             configuration=0;
 133:main.c        ****                             Band_Final=1;}
 134:main.c        ****                     }
 135:main.c        **** 
 136:main.c        ****                     
 137:main.c        ****                     if(Band_Final==1){//
 138:main.c        ****                         LEDS_Write(1);
 139:main.c        ****                         Buzzer_Write(0);
 140:main.c        ****                         Segments_SetBrightness(Bright[1],0);
 141:main.c        ****                         Segments_Write7SegNumberDec(0,0,4,Segments_ZERO_PAD);
 142:main.c        ****                     }if(SW_Read()==0)configuration=0;
 143:main.c        ****                 }
 144:main.c        ****                 else if(configuration==0 && Band_Final==0){
ARM GAS  C:\Users\Esteban\AppData\Local\Temp\cc5msqOa.s 			page 4


 145:main.c        ****                     band4seg=0;
 146:main.c        ****                     cnt_noconf++;// Contador para cuando no esta configurado
 147:main.c        ****                     Segments_Write7SegNumberDec(0,0,4,Segments_ZERO_PAD);
 148:main.c        ****                     
 149:main.c        ****                     if(cnt_noconf<=100){
 150:main.c        ****                         Segments_SetBrightness(Bright[0], 1);
 151:main.c        ****                         Segments_SetBrightness(Bright[0], 2);
 152:main.c        ****                         Segments_SetBrightness(Bright[0], 3);
 153:main.c        ****                         Segments_SetBrightness(Bright[0], 0);}
 154:main.c        ****                     if(cnt_noconf>100){
 155:main.c        ****                         Segments_SetBrightness(Bright[1], 1);
 156:main.c        ****                         Segments_SetBrightness(Bright[1], 2);
 157:main.c        ****                         Segments_SetBrightness(Bright[1], 3);
 158:main.c        ****                         Segments_SetBrightness(Bright[1], 0);
 159:main.c        ****                         }
 160:main.c        ****                     if(cnt_noconf>200)cnt_noconf=0;
 161:main.c        ****                     }               
 162:main.c        ****                 
 163:main.c        ****             }
 164:main.c        **** 
 165:main.c        ****         }
 166:main.c        ****         //-----------------------CAMBIO DE VELOCIDAD-----------------------------------------------
 167:main.c        ****         if(SW_vel_Read()==1)vel=100;
 168:main.c        ****         if(SW_vel_Read()==0)vel=500;
 169:main.c        **** 
 170:main.c        ****             
 171:main.c        **** //-----------------------------------------------------------------------------------------------  
 172:main.c        **** 
 173:main.c        ****     }
 174:main.c        **** }
 175:main.c        **** CY_ISR(IRQ_ISR){
  28              		.loc 1 175 0
  29              		.cfi_startproc
  30              		@ args = 0, pretend = 0, frame = 0
  31              		@ frame_needed = 0, uses_anonymous_args = 0
  32              		@ link register save eliminated.
 176:main.c        ****     pulsecounter++;
  33              		.loc 1 176 0
  34 0000 054A     		ldr	r2, .L3
  35 0002 1378     		ldrb	r3, [r2]	@ zero_extendqisi2
  36 0004 0133     		adds	r3, r3, #1
  37 0006 DBB2     		uxtb	r3, r3
  38 0008 1370     		strb	r3, [r2]
 177:main.c        ****     if(pulsecounter==1)band380ms=1;// Cada que sucede una pulsación, inicia el conteo de los 380 m
  39              		.loc 1 177 0
  40 000a 012B     		cmp	r3, #1
  41 000c 02D1     		bne	.L1
  42              		.loc 1 177 0 is_stmt 0 discriminator 1
  43 000e 0122     		movs	r2, #1
  44 0010 014B     		ldr	r3, .L3
  45 0012 5A80     		strh	r2, [r3, #2]	@ movhi
  46              	.L1:
  47 0014 7047     		bx	lr
  48              	.L4:
  49 0016 00BF     		.align	2
  50              	.L3:
  51 0018 00000000 		.word	.LANCHOR0
ARM GAS  C:\Users\Esteban\AppData\Local\Temp\cc5msqOa.s 			page 5


  52              		.cfi_endproc
  53              	.LFE64:
  54              		.size	IRQ_ISR, .-IRQ_ISR
  55              		.section	.text.Timer_ISR,"ax",%progbits
  56              		.align	2
  57              		.global	Timer_ISR
  58              		.thumb
  59              		.thumb_func
  60              		.type	Timer_ISR, %function
  61              	Timer_ISR:
  62              	.LFB65:
 178:main.c        ****     
 179:main.c        **** }
 180:main.c        **** CY_ISR(Timer_ISR){
  63              		.loc 1 180 0 is_stmt 1
  64              		.cfi_startproc
  65              		@ args = 0, pretend = 0, frame = 0
  66              		@ frame_needed = 0, uses_anonymous_args = 0
  67              		@ link register save eliminated.
 181:main.c        ****     band_2mili=1; 
  68              		.loc 1 181 0
  69 0000 0122     		movs	r2, #1
  70 0002 014B     		ldr	r3, .L6
  71 0004 1A71     		strb	r2, [r3, #4]
  72 0006 7047     		bx	lr
  73              	.L7:
  74              		.align	2
  75              	.L6:
  76 0008 00000000 		.word	.LANCHOR0
  77              		.cfi_endproc
  78              	.LFE65:
  79              		.size	Timer_ISR, .-Timer_ISR
  80              		.section	.text.main,"ax",%progbits
  81              		.align	2
  82              		.global	main
  83              		.thumb
  84              		.thumb_func
  85              		.type	main, %function
  86              	main:
  87              	.LFB63:
  32:main.c        ****     CyGlobalIntEnable; /* Enable global interrupts. */
  88              		.loc 1 32 0
  89              		.cfi_startproc
  90              		@ Volatile: function does not return.
  91              		@ args = 0, pretend = 0, frame = 0
  92              		@ frame_needed = 0, uses_anonymous_args = 0
  93 0000 08B5     		push	{r3, lr}
  94              		.cfi_def_cfa_offset 8
  95              		.cfi_offset 3, -8
  96              		.cfi_offset 14, -4
  33:main.c        ****     Interrupt_StartEx(IRQ_ISR);
  97              		.loc 1 33 0
  98              		.syntax unified
  99              	@ 33 "main.c" 1
 100 0002 62B6     		CPSIE   i
 101              	@ 0 "" 2
  34:main.c        ****     Timer_StartEx(Timer_ISR);
ARM GAS  C:\Users\Esteban\AppData\Local\Temp\cc5msqOa.s 			page 6


 102              		.loc 1 34 0
 103              		.thumb
 104              		.syntax unified
 105 0004 A848     		ldr	r0, .L33
 106 0006 FFF7FEFF 		bl	Interrupt_StartEx
 107              	.LVL0:
  35:main.c        ****     Segments_Start();
 108              		.loc 1 35 0
 109 000a A848     		ldr	r0, .L33+4
 110 000c FFF7FEFF 		bl	Timer_StartEx
 111              	.LVL1:
  36:main.c        ****     Contador_Start();
 112              		.loc 1 36 0
 113 0010 FFF7FEFF 		bl	Segments_Start
 114              	.LVL2:
  37:main.c        ****     DosP_Write(0b1);
 115              		.loc 1 37 0
 116 0014 FFF7FEFF 		bl	Contador_Start
 117              	.LVL3:
  38:main.c        ****     Segments_Write7SegNumberDec(0,1,3,Segments_ZERO_PAD);//Se escriben 3 ceros a la derecha en los 
 118              		.loc 1 38 0
 119 0018 0120     		movs	r0, #1
 120 001a FFF7FEFF 		bl	DosP_Write
 121              	.LVL4:
  39:main.c        ****     
 122              		.loc 1 39 0
 123 001e 0223     		movs	r3, #2
 124 0020 0322     		movs	r2, #3
 125 0022 0121     		movs	r1, #1
 126 0024 0020     		movs	r0, #0
 127 0026 FFF7FEFF 		bl	Segments_Write7SegNumberDec
 128              	.LVL5:
 129              	.L30:
  46:main.c        ****             band_2mili=0;
 130              		.loc 1 46 0
 131 002a A14B     		ldr	r3, .L33+8
 132 002c 1B79     		ldrb	r3, [r3, #4]	@ zero_extendqisi2
 133 002e 002B     		cmp	r3, #0
 134 0030 00F08A81 		beq	.L9
  47:main.c        ****             band4seg++;
 135              		.loc 1 47 0
 136 0034 9E4B     		ldr	r3, .L33+8
 137 0036 0022     		movs	r2, #0
 138 0038 1A71     		strb	r2, [r3, #4]
  48:main.c        ****     //-----------------------TAREA 1---------------------------------------------------------------
 139              		.loc 1 48 0
 140 003a DA88     		ldrh	r2, [r3, #6]
 141 003c 0132     		adds	r2, r2, #1
 142 003e DA80     		strh	r2, [r3, #6]	@ movhi
  50:main.c        ****                 mili2segundos++;
 143              		.loc 1 50 0
 144 0040 FFF7FEFF 		bl	SW_Read
 145              	.LVL6:
 146 0044 0028     		cmp	r0, #0
 147 0046 40F08E80 		bne	.L10
  51:main.c        ****                 Band_Final=0;
 148              		.loc 1 51 0
ARM GAS  C:\Users\Esteban\AppData\Local\Temp\cc5msqOa.s 			page 7


 149 004a 994A     		ldr	r2, .L33+8
 150 004c 137A     		ldrb	r3, [r2, #8]	@ zero_extendqisi2
 151 004e 0133     		adds	r3, r3, #1
 152 0050 DBB2     		uxtb	r3, r3
 153 0052 1372     		strb	r3, [r2, #8]
  52:main.c        **** //                contador[1]=0;contador[2]=0;contador[3]=0;
 154              		.loc 1 52 0
 155 0054 0021     		movs	r1, #0
 156 0056 5172     		strb	r1, [r2, #9]
  55:main.c        ****                 if(mili2segundos>125)Segments_SetBrightness(Bright[0],Posicion);
 157              		.loc 1 55 0
 158 0058 7D2B     		cmp	r3, #125
 159 005a 04D8     		bhi	.L11
  55:main.c        ****                 if(mili2segundos>125)Segments_SetBrightness(Bright[0],Posicion);
 160              		.loc 1 55 0 is_stmt 0 discriminator 1
 161 005c 954B     		ldr	r3, .L33+12
 162 005e 1978     		ldrb	r1, [r3]	@ zero_extendqisi2
 163 0060 5879     		ldrb	r0, [r3, #5]	@ zero_extendqisi2
 164 0062 FFF7FEFF 		bl	Segments_SetBrightness
 165              	.LVL7:
 166              	.L11:
  56:main.c        ****                 if(mili2segundos>250)mili2segundos=0;             
 167              		.loc 1 56 0 is_stmt 1
 168 0066 924B     		ldr	r3, .L33+8
 169 0068 1B7A     		ldrb	r3, [r3, #8]	@ zero_extendqisi2
 170 006a 7D2B     		cmp	r3, #125
 171 006c 04D9     		bls	.L12
  56:main.c        ****                 if(mili2segundos>250)mili2segundos=0;             
 172              		.loc 1 56 0 is_stmt 0 discriminator 1
 173 006e 914B     		ldr	r3, .L33+12
 174 0070 1978     		ldrb	r1, [r3]	@ zero_extendqisi2
 175 0072 1879     		ldrb	r0, [r3, #4]	@ zero_extendqisi2
 176 0074 FFF7FEFF 		bl	Segments_SetBrightness
 177              	.LVL8:
 178              	.L12:
  57:main.c        ****     //-----------------------4SEGUNDOS-------------------------------------------------------------
 179              		.loc 1 57 0 is_stmt 1
 180 0078 8D4B     		ldr	r3, .L33+8
 181 007a 1B7A     		ldrb	r3, [r3, #8]	@ zero_extendqisi2
 182 007c FA2B     		cmp	r3, #250
 183 007e 02D9     		bls	.L13
  57:main.c        ****     //-----------------------4SEGUNDOS-------------------------------------------------------------
 184              		.loc 1 57 0 is_stmt 0 discriminator 1
 185 0080 0022     		movs	r2, #0
 186 0082 8B4B     		ldr	r3, .L33+8
 187 0084 1A72     		strb	r2, [r3, #8]
 188              	.L13:
  59:main.c        ****                     band4seg=0;
 189              		.loc 1 59 0 is_stmt 1
 190 0086 8A4B     		ldr	r3, .L33+8
 191 0088 DB88     		ldrh	r3, [r3, #6]
 192 008a B3F5FA6F 		cmp	r3, #2000
 193 008e 16D1     		bne	.L14
  60:main.c        ****                     Segments_SetBrightness(Bright[1],Posicion);
 194              		.loc 1 60 0
 195 0090 0022     		movs	r2, #0
 196 0092 874B     		ldr	r3, .L33+8
ARM GAS  C:\Users\Esteban\AppData\Local\Temp\cc5msqOa.s 			page 8


 197 0094 DA80     		strh	r2, [r3, #6]	@ movhi
  61:main.c        **** 
 198              		.loc 1 61 0
 199 0096 874C     		ldr	r4, .L33+12
 200 0098 2178     		ldrb	r1, [r4]	@ zero_extendqisi2
 201 009a 6079     		ldrb	r0, [r4, #5]	@ zero_extendqisi2
 202 009c FFF7FEFF 		bl	Segments_SetBrightness
 203              	.LVL9:
  63:main.c        ****                         Posicion=0;  
 204              		.loc 1 63 0
 205 00a0 2378     		ldrb	r3, [r4]	@ zero_extendqisi2
 206 00a2 032B     		cmp	r3, #3
 207 00a4 04D1     		bne	.L15
  64:main.c        ****                         configuration=1;   
 208              		.loc 1 64 0
 209 00a6 0022     		movs	r2, #0
 210 00a8 2270     		strb	r2, [r4]
  65:main.c        ****                     }
 211              		.loc 1 65 0
 212 00aa 0122     		movs	r2, #1
 213 00ac 804B     		ldr	r3, .L33+8
 214 00ae 9A72     		strb	r2, [r3, #10]
 215              	.L15:
  67:main.c        ****                     Posicion++;
 216              		.loc 1 67 0
 217 00b0 0022     		movs	r2, #0
 218 00b2 7F4B     		ldr	r3, .L33+8
 219 00b4 1A72     		strb	r2, [r3, #8]
  68:main.c        ****                 }
 220              		.loc 1 68 0
 221 00b6 7F4A     		ldr	r2, .L33+12
 222 00b8 1378     		ldrb	r3, [r2]	@ zero_extendqisi2
 223 00ba 0133     		adds	r3, r3, #1
 224 00bc 1370     		strb	r3, [r2]
 225              	.L14:
  72:main.c        ****                     cnt++;
 226              		.loc 1 72 0
 227 00be 7C4B     		ldr	r3, .L33+8
 228 00c0 5B88     		ldrh	r3, [r3, #2]
 229 00c2 002B     		cmp	r3, #0
 230 00c4 4FD0     		beq	.L10
  73:main.c        ****                     band4seg=0;
 231              		.loc 1 73 0
 232 00c6 7A4A     		ldr	r2, .L33+8
 233 00c8 9389     		ldrh	r3, [r2, #12]
 234 00ca 0133     		adds	r3, r3, #1
 235 00cc 9BB2     		uxth	r3, r3
 236 00ce 9381     		strh	r3, [r2, #12]	@ movhi
  74:main.c        ****                     if(pulsecounter==1 && cnt>=190){
 237              		.loc 1 74 0
 238 00d0 0021     		movs	r1, #0
 239 00d2 D180     		strh	r1, [r2, #6]	@ movhi
  75:main.c        ****                         if(contador[1]>=2)contador[1]=-1;// Definición de limites de los minutos y
 240              		.loc 1 75 0
 241 00d4 1278     		ldrb	r2, [r2]	@ zero_extendqisi2
 242 00d6 012A     		cmp	r2, #1
 243 00d8 27D1     		bne	.L16
ARM GAS  C:\Users\Esteban\AppData\Local\Temp\cc5msqOa.s 			page 9


  75:main.c        ****                         if(contador[1]>=2)contador[1]=-1;// Definición de limites de los minutos y
 244              		.loc 1 75 0 is_stmt 0 discriminator 1
 245 00da BD2B     		cmp	r3, #189
 246 00dc 25D9     		bls	.L16
  76:main.c        ****                         if(contador[2]>=5)contador[2]=-1;
 247              		.loc 1 76 0 is_stmt 1
 248 00de 744B     		ldr	r3, .L33+8
 249 00e0 5B7C     		ldrb	r3, [r3, #17]	@ zero_extendqisi2
 250 00e2 012B     		cmp	r3, #1
 251 00e4 02D9     		bls	.L17
  76:main.c        ****                         if(contador[2]>=5)contador[2]=-1;
 252              		.loc 1 76 0 is_stmt 0 discriminator 1
 253 00e6 FF22     		movs	r2, #255
 254 00e8 714B     		ldr	r3, .L33+8
 255 00ea 5A74     		strb	r2, [r3, #17]
 256              	.L17:
  77:main.c        ****                         if(contador[3]>=9)contador[3]=-1;                      
 257              		.loc 1 77 0 is_stmt 1
 258 00ec 704B     		ldr	r3, .L33+8
 259 00ee 9B7C     		ldrb	r3, [r3, #18]	@ zero_extendqisi2
 260 00f0 042B     		cmp	r3, #4
 261 00f2 02D9     		bls	.L18
  77:main.c        ****                         if(contador[3]>=9)contador[3]=-1;                      
 262              		.loc 1 77 0 is_stmt 0 discriminator 1
 263 00f4 FF22     		movs	r2, #255
 264 00f6 6E4B     		ldr	r3, .L33+8
 265 00f8 9A74     		strb	r2, [r3, #18]
 266              	.L18:
  78:main.c        ****                         contador[Posicion]++;// Si se cumple la condición se cambia de posición
 267              		.loc 1 78 0 is_stmt 1
 268 00fa 6D4B     		ldr	r3, .L33+8
 269 00fc DB7C     		ldrb	r3, [r3, #19]	@ zero_extendqisi2
 270 00fe 082B     		cmp	r3, #8
 271 0100 02D9     		bls	.L19
  78:main.c        ****                         contador[Posicion]++;// Si se cumple la condición se cambia de posición
 272              		.loc 1 78 0 is_stmt 0 discriminator 1
 273 0102 FF22     		movs	r2, #255
 274 0104 6A4B     		ldr	r3, .L33+8
 275 0106 DA74     		strb	r2, [r3, #19]
 276              	.L19:
  79:main.c        ****                         Segments_Write7SegDigitDec(contador[Posicion],Posicion); // Se escribe el v
 277              		.loc 1 79 0 is_stmt 1
 278 0108 6A4B     		ldr	r3, .L33+12
 279 010a 1978     		ldrb	r1, [r3]	@ zero_extendqisi2
 280 010c 684C     		ldr	r4, .L33+8
 281 010e 6318     		adds	r3, r4, r1
 282 0110 187C     		ldrb	r0, [r3, #16]	@ zero_extendqisi2
 283 0112 0130     		adds	r0, r0, #1
 284 0114 C0B2     		uxtb	r0, r0
 285 0116 1874     		strb	r0, [r3, #16]
  80:main.c        ****                         
 286              		.loc 1 80 0
 287 0118 FFF7FEFF 		bl	Segments_Write7SegDigitDec
 288              	.LVL10:
  82:main.c        ****                         pulsecounter=0;
 289              		.loc 1 82 0
 290 011c 0023     		movs	r3, #0
ARM GAS  C:\Users\Esteban\AppData\Local\Temp\cc5msqOa.s 			page 10


 291 011e A381     		strh	r3, [r4, #12]	@ movhi
  83:main.c        ****                         band4seg=0;
 292              		.loc 1 83 0
 293 0120 2370     		strb	r3, [r4]
  84:main.c        ****                         band380ms=0;
 294              		.loc 1 84 0
 295 0122 E380     		strh	r3, [r4, #6]	@ movhi
  85:main.c        ****                         mili2segundos=0;
 296              		.loc 1 85 0
 297 0124 6380     		strh	r3, [r4, #2]	@ movhi
  86:main.c        ****                     }
 298              		.loc 1 86 0
 299 0126 2372     		strb	r3, [r4, #8]
 300 0128 1DE0     		b	.L10
 301              	.L16:
  88:main.c        ****                         cnt=0; // Si hay dos pulsaciones se reinicia el contador
 302              		.loc 1 88 0
 303 012a 022A     		cmp	r2, #2
 304 012c 1BD1     		bne	.L10
  88:main.c        ****                         cnt=0; // Si hay dos pulsaciones se reinicia el contador
 305              		.loc 1 88 0 is_stmt 0 discriminator 1
 306 012e BD2B     		cmp	r3, #189
 307 0130 19D8     		bhi	.L10
  89:main.c        ****                         Segments_SetBrightness(Bright[1],Posicion);                        
 308              		.loc 1 89 0 is_stmt 1
 309 0132 0022     		movs	r2, #0
 310 0134 5E4B     		ldr	r3, .L33+8
 311 0136 9A81     		strh	r2, [r3, #12]	@ movhi
  90:main.c        ****                         if(Posicion==3){
 312              		.loc 1 90 0
 313 0138 5E4C     		ldr	r4, .L33+12
 314 013a 2178     		ldrb	r1, [r4]	@ zero_extendqisi2
 315 013c 6079     		ldrb	r0, [r4, #5]	@ zero_extendqisi2
 316 013e FFF7FEFF 		bl	Segments_SetBrightness
 317              	.LVL11:
  91:main.c        ****                             Posicion=0;
 318              		.loc 1 91 0
 319 0142 2378     		ldrb	r3, [r4]	@ zero_extendqisi2
 320 0144 032B     		cmp	r3, #3
 321 0146 04D1     		bne	.L20
  92:main.c        ****                             configuration=1; }
 322              		.loc 1 92 0
 323 0148 0022     		movs	r2, #0
 324 014a 2270     		strb	r2, [r4]
  93:main.c        ****                         Posicion++;
 325              		.loc 1 93 0
 326 014c 0122     		movs	r2, #1
 327 014e 584B     		ldr	r3, .L33+8
 328 0150 9A72     		strb	r2, [r3, #10]
 329              	.L20:
  94:main.c        ****                         pulsecounter=0;
 330              		.loc 1 94 0
 331 0152 584A     		ldr	r2, .L33+12
 332 0154 1378     		ldrb	r3, [r2]	@ zero_extendqisi2
 333 0156 0133     		adds	r3, r3, #1
 334 0158 1370     		strb	r3, [r2]
  95:main.c        ****                         band380ms=0;
ARM GAS  C:\Users\Esteban\AppData\Local\Temp\cc5msqOa.s 			page 11


 335              		.loc 1 95 0
 336 015a 554B     		ldr	r3, .L33+8
 337 015c 0022     		movs	r2, #0
 338 015e 1A70     		strb	r2, [r3]
  96:main.c        ****                         band4seg=0;
 339              		.loc 1 96 0
 340 0160 5A80     		strh	r2, [r3, #2]	@ movhi
  97:main.c        ****                         mili2segundos=0;//               
 341              		.loc 1 97 0
 342 0162 DA80     		strh	r2, [r3, #6]	@ movhi
  98:main.c        ****                     }
 343              		.loc 1 98 0
 344 0164 1A72     		strb	r2, [r3, #8]
 345              	.L10:
 104:main.c        ****                 if(configuration==1){
 346              		.loc 1 104 0
 347 0166 FFF7FEFF 		bl	SW_Read
 348              	.LVL12:
 349 016a 0028     		cmp	r0, #0
 350 016c 00F0EC80 		beq	.L9
 105:main.c        ****                     cnt_time++;
 351              		.loc 1 105 0
 352 0170 4F4B     		ldr	r3, .L33+8
 353 0172 9B7A     		ldrb	r3, [r3, #10]	@ zero_extendqisi2
 354 0174 012B     		cmp	r3, #1
 355 0176 40F0A580 		bne	.L21
 106:main.c        ****                     Segments_SetBrightness(Bright[0],0);
 356              		.loc 1 106 0
 357 017a 4F4A     		ldr	r2, .L33+16
 358 017c 1388     		ldrh	r3, [r2]
 359 017e 0133     		adds	r3, r3, #1
 360 0180 1380     		strh	r3, [r2]	@ movhi
 107:main.c        ****                     Segments_SetBrightness(Bright[1],1);
 361              		.loc 1 107 0
 362 0182 4C4C     		ldr	r4, .L33+12
 363 0184 0021     		movs	r1, #0
 364 0186 2079     		ldrb	r0, [r4, #4]	@ zero_extendqisi2
 365 0188 FFF7FEFF 		bl	Segments_SetBrightness
 366              	.LVL13:
 108:main.c        ****                     Segments_SetBrightness(Bright[1],2);
 367              		.loc 1 108 0
 368 018c 0121     		movs	r1, #1
 369 018e 6079     		ldrb	r0, [r4, #5]	@ zero_extendqisi2
 370 0190 FFF7FEFF 		bl	Segments_SetBrightness
 371              	.LVL14:
 109:main.c        ****                     Segments_SetBrightness(Bright[1],3);
 372              		.loc 1 109 0
 373 0194 0221     		movs	r1, #2
 374 0196 6079     		ldrb	r0, [r4, #5]	@ zero_extendqisi2
 375 0198 FFF7FEFF 		bl	Segments_SetBrightness
 376              	.LVL15:
 110:main.c        ****                     //--------BUZZER----------------------------
 377              		.loc 1 110 0
 378 019c 0321     		movs	r1, #3
 379 019e 6079     		ldrb	r0, [r4, #5]	@ zero_extendqisi2
 380 01a0 FFF7FEFF 		bl	Segments_SetBrightness
 381              	.LVL16:
ARM GAS  C:\Users\Esteban\AppData\Local\Temp\cc5msqOa.s 			page 12


 112:main.c        ****                         if(contador[3]%5==0)Buzzer_Write(1);
 382              		.loc 1 112 0
 383 01a4 FFF7FEFF 		bl	SW_buzz_Read
 384              	.LVL17:
 385 01a8 0128     		cmp	r0, #1
 386 01aa 12D1     		bne	.L22
 113:main.c        ****                         else Buzzer_Write(0);
 387              		.loc 1 113 0
 388 01ac 404B     		ldr	r3, .L33+8
 389 01ae DA7C     		ldrb	r2, [r3, #19]	@ zero_extendqisi2
 390 01b0 424B     		ldr	r3, .L33+20
 391 01b2 A3FB0213 		umull	r1, r3, r3, r2
 392 01b6 9B08     		lsrs	r3, r3, #2
 393 01b8 03EB8303 		add	r3, r3, r3, lsl #2
 394 01bc D31A     		subs	r3, r2, r3
 395 01be 13F0FF0F 		tst	r3, #255
 396 01c2 02D1     		bne	.L23
 113:main.c        ****                         else Buzzer_Write(0);
 397              		.loc 1 113 0 is_stmt 0 discriminator 1
 398 01c4 FFF7FEFF 		bl	Buzzer_Write
 399              	.LVL18:
 400 01c8 06E0     		b	.L24
 401              	.L23:
 114:main.c        ****                     }else Buzzer_Write(0);
 402              		.loc 1 114 0 is_stmt 1
 403 01ca 0020     		movs	r0, #0
 404 01cc FFF7FEFF 		bl	Buzzer_Write
 405              	.LVL19:
 406 01d0 02E0     		b	.L24
 407              	.L22:
 115:main.c        ****                     
 408              		.loc 1 115 0
 409 01d2 0020     		movs	r0, #0
 410 01d4 FFF7FEFF 		bl	Buzzer_Write
 411              	.LVL20:
 412              	.L24:
 119:main.c        ****                     if(cnt_time>=vel){
 413              		.loc 1 119 0
 414 01d8 364C     		ldr	r4, .L33+12
 415 01da 0121     		movs	r1, #1
 416 01dc 6079     		ldrb	r0, [r4, #5]	@ zero_extendqisi2
 417 01de FFF7FEFF 		bl	Segments_SetBrightness
 418              	.LVL21:
 120:main.c        ****                         cnt_time=0; // Se reinicia el contador
 419              		.loc 1 120 0
 420 01e2 354B     		ldr	r3, .L33+16
 421 01e4 1A88     		ldrh	r2, [r3]
 422 01e6 E388     		ldrh	r3, [r4, #6]
 423 01e8 9A42     		cmp	r2, r3
 424 01ea 3FD3     		bcc	.L25
 121:main.c        ****                         
 425              		.loc 1 121 0
 426 01ec 0022     		movs	r2, #0
 427 01ee 324B     		ldr	r3, .L33+16
 428 01f0 1A80     		strh	r2, [r3]	@ movhi
 123:main.c        ****                         T_tiempo--;// Se va restando cada vez
 429              		.loc 1 123 0
ARM GAS  C:\Users\Esteban\AppData\Local\Temp\cc5msqOa.s 			page 13


 430 01f2 2F4C     		ldr	r4, .L33+8
 431 01f4 617C     		ldrb	r1, [r4, #17]	@ zero_extendqisi2
 432 01f6 A37C     		ldrb	r3, [r4, #18]	@ zero_extendqisi2
 433 01f8 E27C     		ldrb	r2, [r4, #19]	@ zero_extendqisi2
 434 01fa C1EB0111 		rsb	r1, r1, r1, lsl #4
 435 01fe 03EB8303 		add	r3, r3, r3, lsl #2
 436 0202 5B00     		lsls	r3, r3, #1
 437 0204 03EB8103 		add	r3, r3, r1, lsl #2
 438 0208 1A44     		add	r2, r2, r3
 439 020a 92B2     		uxth	r2, r2
 124:main.c        ****                         contador[1]= T_tiempo/60;// Minutos
 440              		.loc 1 124 0
 441 020c 013A     		subs	r2, r2, #1
 442 020e 92B2     		uxth	r2, r2
 443 0210 A282     		strh	r2, [r4, #20]	@ movhi
 125:main.c        ****                         contador[2]=(T_tiempo%60)/10;// Corresponde a decenas de segundos
 444              		.loc 1 125 0
 445 0212 2B4B     		ldr	r3, .L33+24
 446 0214 A3FB0213 		umull	r1, r3, r3, r2
 447 0218 5B09     		lsrs	r3, r3, #5
 448 021a D8B2     		uxtb	r0, r3
 449 021c 6074     		strb	r0, [r4, #17]
 126:main.c        ****                         contador[3]=T_tiempo%10;// Segundos
 450              		.loc 1 126 0
 451 021e C3EB0313 		rsb	r3, r3, r3, lsl #4
 452 0222 A2EB8303 		sub	r3, r2, r3, lsl #2
 453 0226 9BB2     		uxth	r3, r3
 454 0228 2449     		ldr	r1, .L33+20
 455 022a A1FB03E3 		umull	lr, r3, r1, r3
 456 022e DB08     		lsrs	r3, r3, #3
 457 0230 A374     		strb	r3, [r4, #18]
 127:main.c        ****                         Segments_Write7SegDigitDec(contador[1],1);
 458              		.loc 1 127 0
 459 0232 A1FB0213 		umull	r1, r3, r1, r2
 460 0236 DB08     		lsrs	r3, r3, #3
 461 0238 03EB8303 		add	r3, r3, r3, lsl #2
 462 023c A2EB4303 		sub	r3, r2, r3, lsl #1
 463 0240 E374     		strb	r3, [r4, #19]
 128:main.c        ****                         Segments_Write7SegDigitDec(contador[2],2);
 464              		.loc 1 128 0
 465 0242 0121     		movs	r1, #1
 466 0244 FFF7FEFF 		bl	Segments_Write7SegDigitDec
 467              	.LVL22:
 129:main.c        ****                         Segments_Write7SegDigitDec(contador[3],3);
 468              		.loc 1 129 0
 469 0248 0221     		movs	r1, #2
 470 024a A07C     		ldrb	r0, [r4, #18]	@ zero_extendqisi2
 471 024c FFF7FEFF 		bl	Segments_Write7SegDigitDec
 472              	.LVL23:
 130:main.c        ****                         if(contador[1]==0 && contador[2]==0 && contador[3]==0){// Si todo se cumple
 473              		.loc 1 130 0
 474 0250 0321     		movs	r1, #3
 475 0252 E07C     		ldrb	r0, [r4, #19]	@ zero_extendqisi2
 476 0254 FFF7FEFF 		bl	Segments_Write7SegDigitDec
 477              	.LVL24:
 131:main.c        ****                             configuration=0;
 478              		.loc 1 131 0
ARM GAS  C:\Users\Esteban\AppData\Local\Temp\cc5msqOa.s 			page 14


 479 0258 637C     		ldrb	r3, [r4, #17]	@ zero_extendqisi2
 480 025a 3BB9     		cbnz	r3, .L25
 131:main.c        ****                             configuration=0;
 481              		.loc 1 131 0 is_stmt 0 discriminator 1
 482 025c A37C     		ldrb	r3, [r4, #18]	@ zero_extendqisi2
 483 025e 2BB9     		cbnz	r3, .L25
 131:main.c        ****                             configuration=0;
 484              		.loc 1 131 0 discriminator 2
 485 0260 E37C     		ldrb	r3, [r4, #19]	@ zero_extendqisi2
 486 0262 1BB9     		cbnz	r3, .L25
 132:main.c        ****                             Band_Final=1;}
 487              		.loc 1 132 0 is_stmt 1
 488 0264 0022     		movs	r2, #0
 489 0266 A272     		strb	r2, [r4, #10]
 133:main.c        ****                     }
 490              		.loc 1 133 0
 491 0268 0122     		movs	r2, #1
 492 026a 6272     		strb	r2, [r4, #9]
 493              	.L25:
 137:main.c        ****                         LEDS_Write(1);
 494              		.loc 1 137 0
 495 026c 104B     		ldr	r3, .L33+8
 496 026e 5B7A     		ldrb	r3, [r3, #9]	@ zero_extendqisi2
 497 0270 012B     		cmp	r3, #1
 498 0272 10D1     		bne	.L26
 138:main.c        ****                         Buzzer_Write(0);
 499              		.loc 1 138 0
 500 0274 0120     		movs	r0, #1
 501 0276 FFF7FEFF 		bl	LEDS_Write
 502              	.LVL25:
 139:main.c        ****                         Segments_SetBrightness(Bright[1],0);
 503              		.loc 1 139 0
 504 027a 0020     		movs	r0, #0
 505 027c FFF7FEFF 		bl	Buzzer_Write
 506              	.LVL26:
 140:main.c        ****                         Segments_Write7SegNumberDec(0,0,4,Segments_ZERO_PAD);
 507              		.loc 1 140 0
 508 0280 0021     		movs	r1, #0
 509 0282 0C4B     		ldr	r3, .L33+12
 510 0284 5879     		ldrb	r0, [r3, #5]	@ zero_extendqisi2
 511 0286 FFF7FEFF 		bl	Segments_SetBrightness
 512              	.LVL27:
 141:main.c        ****                     }if(SW_Read()==0)configuration=0;
 513              		.loc 1 141 0
 514 028a 0223     		movs	r3, #2
 515 028c 0422     		movs	r2, #4
 516 028e 0021     		movs	r1, #0
 517 0290 0846     		mov	r0, r1
 518 0292 FFF7FEFF 		bl	Segments_Write7SegNumberDec
 519              	.LVL28:
 520              	.L26:
 142:main.c        ****                 }
 521              		.loc 1 142 0
 522 0296 FFF7FEFF 		bl	SW_Read
 523              	.LVL29:
 524 029a 0028     		cmp	r0, #0
 525 029c 54D1     		bne	.L9
ARM GAS  C:\Users\Esteban\AppData\Local\Temp\cc5msqOa.s 			page 15


 142:main.c        ****                 }
 526              		.loc 1 142 0 is_stmt 0 discriminator 1
 527 029e 0022     		movs	r2, #0
 528 02a0 034B     		ldr	r3, .L33+8
 529 02a2 9A72     		strb	r2, [r3, #10]
 530 02a4 50E0     		b	.L9
 531              	.L34:
 532 02a6 00BF     		.align	2
 533              	.L33:
 534 02a8 00000000 		.word	IRQ_ISR
 535 02ac 00000000 		.word	Timer_ISR
 536 02b0 00000000 		.word	.LANCHOR0
 537 02b4 00000000 		.word	.LANCHOR1
 538 02b8 00000000 		.word	cnt_time
 539 02bc CDCCCCCC 		.word	-858993459
 540 02c0 89888888 		.word	-2004318071
 541              	.L21:
 144:main.c        ****                     band4seg=0;
 542              		.loc 1 144 0 is_stmt 1
 543 02c4 002B     		cmp	r3, #0
 544 02c6 3FD1     		bne	.L9
 144:main.c        ****                     band4seg=0;
 545              		.loc 1 144 0 is_stmt 0 discriminator 1
 546 02c8 284B     		ldr	r3, .L35
 547 02ca 5B7A     		ldrb	r3, [r3, #9]	@ zero_extendqisi2
 548 02cc 002B     		cmp	r3, #0
 549 02ce 3BD1     		bne	.L9
 145:main.c        ****                     cnt_noconf++;// Contador para cuando no esta configurado
 550              		.loc 1 145 0 is_stmt 1
 551 02d0 0020     		movs	r0, #0
 552 02d2 264B     		ldr	r3, .L35
 553 02d4 D880     		strh	r0, [r3, #6]	@ movhi
 146:main.c        ****                     Segments_Write7SegNumberDec(0,0,4,Segments_ZERO_PAD);
 554              		.loc 1 146 0
 555 02d6 264C     		ldr	r4, .L35+4
 556 02d8 2388     		ldrh	r3, [r4]
 557 02da 0133     		adds	r3, r3, #1
 558 02dc 2380     		strh	r3, [r4]	@ movhi
 147:main.c        ****                     
 559              		.loc 1 147 0
 560 02de 0223     		movs	r3, #2
 561 02e0 0422     		movs	r2, #4
 562 02e2 0146     		mov	r1, r0
 563 02e4 FFF7FEFF 		bl	Segments_Write7SegNumberDec
 564              	.LVL30:
 149:main.c        ****                         Segments_SetBrightness(Bright[0], 1);
 565              		.loc 1 149 0
 566 02e8 2388     		ldrh	r3, [r4]
 567 02ea 642B     		cmp	r3, #100
 568 02ec 10D8     		bhi	.L27
 150:main.c        ****                         Segments_SetBrightness(Bright[0], 2);
 569              		.loc 1 150 0
 570 02ee 214C     		ldr	r4, .L35+8
 571 02f0 0121     		movs	r1, #1
 572 02f2 2079     		ldrb	r0, [r4, #4]	@ zero_extendqisi2
 573 02f4 FFF7FEFF 		bl	Segments_SetBrightness
 574              	.LVL31:
ARM GAS  C:\Users\Esteban\AppData\Local\Temp\cc5msqOa.s 			page 16


 151:main.c        ****                         Segments_SetBrightness(Bright[0], 3);
 575              		.loc 1 151 0
 576 02f8 0221     		movs	r1, #2
 577 02fa 2079     		ldrb	r0, [r4, #4]	@ zero_extendqisi2
 578 02fc FFF7FEFF 		bl	Segments_SetBrightness
 579              	.LVL32:
 152:main.c        ****                         Segments_SetBrightness(Bright[0], 0);}
 580              		.loc 1 152 0
 581 0300 0321     		movs	r1, #3
 582 0302 2079     		ldrb	r0, [r4, #4]	@ zero_extendqisi2
 583 0304 FFF7FEFF 		bl	Segments_SetBrightness
 584              	.LVL33:
 153:main.c        ****                     if(cnt_noconf>100){
 585              		.loc 1 153 0
 586 0308 0021     		movs	r1, #0
 587 030a 2079     		ldrb	r0, [r4, #4]	@ zero_extendqisi2
 588 030c FFF7FEFF 		bl	Segments_SetBrightness
 589              	.LVL34:
 590              	.L27:
 154:main.c        ****                         Segments_SetBrightness(Bright[1], 1);
 591              		.loc 1 154 0
 592 0310 174B     		ldr	r3, .L35+4
 593 0312 1B88     		ldrh	r3, [r3]
 594 0314 642B     		cmp	r3, #100
 595 0316 10D9     		bls	.L28
 155:main.c        ****                         Segments_SetBrightness(Bright[1], 2);
 596              		.loc 1 155 0
 597 0318 164C     		ldr	r4, .L35+8
 598 031a 0121     		movs	r1, #1
 599 031c 6079     		ldrb	r0, [r4, #5]	@ zero_extendqisi2
 600 031e FFF7FEFF 		bl	Segments_SetBrightness
 601              	.LVL35:
 156:main.c        ****                         Segments_SetBrightness(Bright[1], 3);
 602              		.loc 1 156 0
 603 0322 0221     		movs	r1, #2
 604 0324 6079     		ldrb	r0, [r4, #5]	@ zero_extendqisi2
 605 0326 FFF7FEFF 		bl	Segments_SetBrightness
 606              	.LVL36:
 157:main.c        ****                         Segments_SetBrightness(Bright[1], 0);
 607              		.loc 1 157 0
 608 032a 0321     		movs	r1, #3
 609 032c 6079     		ldrb	r0, [r4, #5]	@ zero_extendqisi2
 610 032e FFF7FEFF 		bl	Segments_SetBrightness
 611              	.LVL37:
 158:main.c        ****                         }
 612              		.loc 1 158 0
 613 0332 0021     		movs	r1, #0
 614 0334 6079     		ldrb	r0, [r4, #5]	@ zero_extendqisi2
 615 0336 FFF7FEFF 		bl	Segments_SetBrightness
 616              	.LVL38:
 617              	.L28:
 160:main.c        ****                     }               
 618              		.loc 1 160 0
 619 033a 0D4B     		ldr	r3, .L35+4
 620 033c 1B88     		ldrh	r3, [r3]
 621 033e C82B     		cmp	r3, #200
 622 0340 02D9     		bls	.L9
ARM GAS  C:\Users\Esteban\AppData\Local\Temp\cc5msqOa.s 			page 17


 160:main.c        ****                     }               
 623              		.loc 1 160 0 is_stmt 0 discriminator 1
 624 0342 0022     		movs	r2, #0
 625 0344 0A4B     		ldr	r3, .L35+4
 626 0346 1A80     		strh	r2, [r3]	@ movhi
 627              	.L9:
 167:main.c        ****         if(SW_vel_Read()==0)vel=500;
 628              		.loc 1 167 0 is_stmt 1
 629 0348 FFF7FEFF 		bl	SW_vel_Read
 630              	.LVL39:
 631 034c 0128     		cmp	r0, #1
 632 034e 02D1     		bne	.L29
 167:main.c        ****         if(SW_vel_Read()==0)vel=500;
 633              		.loc 1 167 0 is_stmt 0 discriminator 1
 634 0350 6422     		movs	r2, #100
 635 0352 084B     		ldr	r3, .L35+8
 636 0354 DA80     		strh	r2, [r3, #6]	@ movhi
 637              	.L29:
 168:main.c        **** 
 638              		.loc 1 168 0 is_stmt 1
 639 0356 FFF7FEFF 		bl	SW_vel_Read
 640              	.LVL40:
 641 035a 0028     		cmp	r0, #0
 642 035c 7FF465AE 		bne	.L30
 168:main.c        **** 
 643              		.loc 1 168 0 is_stmt 0 discriminator 1
 644 0360 4FF4FA72 		mov	r2, #500
 645 0364 034B     		ldr	r3, .L35+8
 646 0366 DA80     		strh	r2, [r3, #6]	@ movhi
 647 0368 5FE6     		b	.L30
 648              	.L36:
 649 036a 00BF     		.align	2
 650              	.L35:
 651 036c 00000000 		.word	.LANCHOR0
 652 0370 00000000 		.word	cnt_noconf
 653 0374 00000000 		.word	.LANCHOR1
 654              		.cfi_endproc
 655              	.LFE63:
 656              		.size	main, .-main
 657              		.comm	cnt_time,2,2
 658              		.global	Band_Final
 659              		.global	band_tarea1
 660              		.comm	cnt_noconf,2,2
 661              		.global	vel
 662              		.global	bandseg
 663              		.global	T_tiempo
 664              		.global	Segundos
 665              		.global	configuration
 666              		.global	cnt
 667              		.global	band4seg
 668              		.global	BandeBrillo
 669              		.global	Bright
 670              		.global	cnt4seg
 671              		.global	contador
 672              		.global	Posicion
 673              		.global	pulsecounter
 674              		.global	mili2segundos
ARM GAS  C:\Users\Esteban\AppData\Local\Temp\cc5msqOa.s 			page 18


 675              		.global	band380ms
 676              		.global	TitileoSingularDespla
 677              		.global	band_2mili
 678              		.data
 679              		.align	2
 680              		.set	.LANCHOR1,. + 0
 681              		.type	Posicion, %object
 682              		.size	Posicion, 1
 683              	Posicion:
 684 0000 01       		.byte	1
 685 0001 000000   		.space	3
 686              		.type	Bright, %object
 687              		.size	Bright, 2
 688              	Bright:
 689 0004 00       		.byte	0
 690 0005 FF       		.byte	-1
 691              		.type	vel, %object
 692              		.size	vel, 2
 693              	vel:
 694 0006 F401     		.short	500
 695              		.bss
 696              		.align	2
 697              		.set	.LANCHOR0,. + 0
 698              		.type	pulsecounter, %object
 699              		.size	pulsecounter, 1
 700              	pulsecounter:
 701 0000 00       		.space	1
 702 0001 00       		.space	1
 703              		.type	band380ms, %object
 704              		.size	band380ms, 2
 705              	band380ms:
 706 0002 0000     		.space	2
 707              		.type	band_2mili, %object
 708              		.size	band_2mili, 1
 709              	band_2mili:
 710 0004 00       		.space	1
 711 0005 00       		.space	1
 712              		.type	band4seg, %object
 713              		.size	band4seg, 2
 714              	band4seg:
 715 0006 0000     		.space	2
 716              		.type	mili2segundos, %object
 717              		.size	mili2segundos, 1
 718              	mili2segundos:
 719 0008 00       		.space	1
 720              		.type	Band_Final, %object
 721              		.size	Band_Final, 1
 722              	Band_Final:
 723 0009 00       		.space	1
 724              		.type	configuration, %object
 725              		.size	configuration, 1
 726              	configuration:
 727 000a 00       		.space	1
 728 000b 00       		.space	1
 729              		.type	cnt, %object
 730              		.size	cnt, 2
 731              	cnt:
ARM GAS  C:\Users\Esteban\AppData\Local\Temp\cc5msqOa.s 			page 19


 732 000c 0000     		.space	2
 733 000e 0000     		.space	2
 734              		.type	contador, %object
 735              		.size	contador, 4
 736              	contador:
 737 0010 00000000 		.space	4
 738              		.type	T_tiempo, %object
 739              		.size	T_tiempo, 2
 740              	T_tiempo:
 741 0014 0000     		.space	2
 742              		.type	band_tarea1, %object
 743              		.size	band_tarea1, 1
 744              	band_tarea1:
 745 0016 00       		.space	1
 746 0017 00       		.space	1
 747              		.type	bandseg, %object
 748              		.size	bandseg, 2
 749              	bandseg:
 750 0018 0000     		.space	2
 751              		.type	Segundos, %object
 752              		.size	Segundos, 1
 753              	Segundos:
 754 001a 00       		.space	1
 755              		.type	BandeBrillo, %object
 756              		.size	BandeBrillo, 1
 757              	BandeBrillo:
 758 001b 00       		.space	1
 759              		.type	cnt4seg, %object
 760              		.size	cnt4seg, 1
 761              	cnt4seg:
 762 001c 00       		.space	1
 763              		.type	TitileoSingularDespla, %object
 764              		.size	TitileoSingularDespla, 1
 765              	TitileoSingularDespla:
 766 001d 00       		.space	1
 767              		.text
 768              	.Letext0:
 769              		.file 2 "c:\\program files (x86)\\cypress\\psoc creator\\4.4\\psoc creator\\import\\gnu\\arm\\5.4.
 770              		.file 3 "c:\\program files (x86)\\cypress\\psoc creator\\4.4\\psoc creator\\import\\gnu\\arm\\5.4.
 771              		.file 4 "Generated_Source\\PSoC5/cytypes.h"
 772              		.file 5 "Generated_Source\\PSoC5/core_cm3.h"
 773              		.file 6 "Generated_Source\\PSoC5/Interrupt.h"
 774              		.file 7 "Generated_Source\\PSoC5/Timer.h"
 775              		.file 8 "Generated_Source\\PSoC5/Segments.h"
 776              		.file 9 "Generated_Source\\PSoC5/Contador.h"
 777              		.file 10 "Generated_Source\\PSoC5/DosP.h"
 778              		.file 11 "Generated_Source\\PSoC5/SW.h"
 779              		.file 12 "Generated_Source\\PSoC5/SW_buzz.h"
 780              		.file 13 "Generated_Source\\PSoC5/Buzzer.h"
 781              		.file 14 "Generated_Source\\PSoC5/LEDS.h"
 782              		.file 15 "Generated_Source\\PSoC5/SW_vel.h"