ARM GAS  C:\Users\Esteban\AppData\Local\Temp\ccHxlO6N.s 			page 1


   1              		.syntax unified
   2              		.cpu cortex-m3
   3              		.fpu softvfp
   4              		.eabi_attribute 20, 1
   5              		.eabi_attribute 21, 1
   6              		.eabi_attribute 23, 3
   7              		.eabi_attribute 24, 1
   8              		.eabi_attribute 25, 1
   9              		.eabi_attribute 26, 1
  10              		.eabi_attribute 30, 1
  11              		.eabi_attribute 34, 1
  12              		.eabi_attribute 18, 4
  13              		.thumb
  14              		.syntax unified
  15              		.file	"Segments.c"
  16              		.text
  17              	.Ltext0:
  18              		.cfi_sections	.debug_frame
  19              		.section	.text.Segments_DmaInit,"ax",%progbits
  20              		.align	2
  21              		.thumb
  22              		.thumb_func
  23              		.type	Segments_DmaInit, %function
  24              	Segments_DmaInit:
  25              	.LFB0:
  26              		.file 1 "Generated_Source\\PSoC5\\Segments.c"
   1:Generated_Source\PSoC5/Segments.c **** /*******************************************************************************
   2:Generated_Source\PSoC5/Segments.c **** * File Name: Segments.c
   3:Generated_Source\PSoC5/Segments.c **** * Version 1.10
   4:Generated_Source\PSoC5/Segments.c **** *
   5:Generated_Source\PSoC5/Segments.c **** * Description:
   6:Generated_Source\PSoC5/Segments.c **** *  This file contains the setup, control and status commands for the 
   7:Generated_Source\PSoC5/Segments.c **** *  LED Driver component.
   8:Generated_Source\PSoC5/Segments.c **** *
   9:Generated_Source\PSoC5/Segments.c **** * Note:
  10:Generated_Source\PSoC5/Segments.c **** *  None
  11:Generated_Source\PSoC5/Segments.c **** *
  12:Generated_Source\PSoC5/Segments.c **** ********************************************************************************
  13:Generated_Source\PSoC5/Segments.c **** * Copyright 2013-2015, Cypress Semiconductor Corporation.  All rights reserved.
  14:Generated_Source\PSoC5/Segments.c **** * You may use this file only in accordance with the license, terms, conditions,
  15:Generated_Source\PSoC5/Segments.c **** * disclaimers, and limitations in the end user license agreement accompanying
  16:Generated_Source\PSoC5/Segments.c **** * the software package with which this file was provided.
  17:Generated_Source\PSoC5/Segments.c **** ********************************************************************************/
  18:Generated_Source\PSoC5/Segments.c **** 
  19:Generated_Source\PSoC5/Segments.c **** #include "Segments.h"
  20:Generated_Source\PSoC5/Segments.c **** #include <Segments_DMA_Com_dma.h>
  21:Generated_Source\PSoC5/Segments.c **** #include <Segments_DMA_Seg_dma.h>
  22:Generated_Source\PSoC5/Segments.c **** #if (Segments_BRIGHTNESS_EN == Segments_ENABLED)
  23:Generated_Source\PSoC5/Segments.c ****     #include <Segments_DMA_BC_dma.h>
  24:Generated_Source\PSoC5/Segments.c **** #endif /* (Segments_BRIGHTNESS_EN == Segments_ENABLED) */
  25:Generated_Source\PSoC5/Segments.c **** 
  26:Generated_Source\PSoC5/Segments.c **** /* Function prototypes */
  27:Generated_Source\PSoC5/Segments.c **** static void Segments_DmaInit(void) ;
  28:Generated_Source\PSoC5/Segments.c **** static void Segments_DmaEnable(void) ;
  29:Generated_Source\PSoC5/Segments.c **** static void Segments_DmaDisable(void) ;
  30:Generated_Source\PSoC5/Segments.c **** 
  31:Generated_Source\PSoC5/Segments.c **** /* Used to hold the common line output sequence */
ARM GAS  C:\Users\Esteban\AppData\Local\Temp\ccHxlO6N.s 			page 2


  32:Generated_Source\PSoC5/Segments.c **** #if(Segments_COM_DRIVE == Segments_HIGH)
  33:Generated_Source\PSoC5/Segments.c ****     static uint8 Segments_comBuffer[16] = {0x00u, 0x01u, 0x00u, 0x02u, 0x00u, 0x04u, 0x00u, 0x08u,
  34:Generated_Source\PSoC5/Segments.c ****                                                     0x00u, 0x10u, 0x00u, 0x20u, 0x00u, 0x40u, 0x00u
  35:Generated_Source\PSoC5/Segments.c **** #else
  36:Generated_Source\PSoC5/Segments.c ****     static uint8 Segments_comBuffer[16] = {0xFFu, 0xFEu, 0xFFu, 0xFDu, 0xFFu, 0xFBu, 0xFFu, 0xF7u,
  37:Generated_Source\PSoC5/Segments.c ****                                                     0xFFu, 0xEFu, 0xFFu, 0xDFu, 0xFFu, 0xBFu, 0xFFu
  38:Generated_Source\PSoC5/Segments.c **** #endif /* (Segments_COM_DRIVE == Segments_HIGH) */
  39:Generated_Source\PSoC5/Segments.c **** 
  40:Generated_Source\PSoC5/Segments.c **** /* Buffers used to hold the display(segment) values to be transferred to the control registers */
  41:Generated_Source\PSoC5/Segments.c **** uint8 Segments_segLBuffer[Segments_NUM_COM];
  42:Generated_Source\PSoC5/Segments.c **** #if (Segments_NUM_SEG > 8u) 
  43:Generated_Source\PSoC5/Segments.c ****     uint8 Segments_segMBuffer[Segments_NUM_COM];
  44:Generated_Source\PSoC5/Segments.c **** #endif /* (Segments_NUM_SEG > 8u) */
  45:Generated_Source\PSoC5/Segments.c **** #if (Segments_NUM_SEG > 16u) 
  46:Generated_Source\PSoC5/Segments.c ****     uint8 Segments_segHBuffer[Segments_NUM_COM];
  47:Generated_Source\PSoC5/Segments.c **** #endif /* (Segments_NUM_SEG > 16u) */
  48:Generated_Source\PSoC5/Segments.c **** 
  49:Generated_Source\PSoC5/Segments.c **** #if (Segments_BRIGHTNESS_EN == Segments_ENABLED)
  50:Generated_Source\PSoC5/Segments.c ****     /* The brightness register used to hold the brightness levels for each common */
  51:Generated_Source\PSoC5/Segments.c ****     static uint8 Segments_brightnessReg[Segments_NUM_COM];
  52:Generated_Source\PSoC5/Segments.c **** #endif /* (Segments_BRIGHTNESS_EN == Segments_ENABLED) */
  53:Generated_Source\PSoC5/Segments.c **** 
  54:Generated_Source\PSoC5/Segments.c **** /* DMA channel and TD declaractions */
  55:Generated_Source\PSoC5/Segments.c **** static uint8 Segments_dmaComChannel;
  56:Generated_Source\PSoC5/Segments.c **** static uint8 Segments_dmaComTd[Segments_TWO_NUM_COM];
  57:Generated_Source\PSoC5/Segments.c **** 
  58:Generated_Source\PSoC5/Segments.c **** static uint8 Segments_dmaSegChannel;
  59:Generated_Source\PSoC5/Segments.c **** static uint8 Segments_dmaSegLTd[Segments_NUM_COM];
  60:Generated_Source\PSoC5/Segments.c **** 
  61:Generated_Source\PSoC5/Segments.c **** #if (Segments_BRIGHTNESS_EN == Segments_ENABLED)
  62:Generated_Source\PSoC5/Segments.c ****     static uint8 Segments_dmaBCChannel;
  63:Generated_Source\PSoC5/Segments.c ****     static uint8 Segments_dmaBCTd;
  64:Generated_Source\PSoC5/Segments.c **** #endif /* (Segments_BRIGHTNESS_EN == Segments_ENABLED) */
  65:Generated_Source\PSoC5/Segments.c **** 
  66:Generated_Source\PSoC5/Segments.c **** uint8 Segments_initVar = 0u;
  67:Generated_Source\PSoC5/Segments.c **** uint8 Segments_enableVar = 0u;
  68:Generated_Source\PSoC5/Segments.c **** 
  69:Generated_Source\PSoC5/Segments.c **** 
  70:Generated_Source\PSoC5/Segments.c **** /*******************************************************************************
  71:Generated_Source\PSoC5/Segments.c **** * Function Name: Segments_DmaInit
  72:Generated_Source\PSoC5/Segments.c **** ********************************************************************************
  73:Generated_Source\PSoC5/Segments.c **** *
  74:Generated_Source\PSoC5/Segments.c **** * Summary: 
  75:Generated_Source\PSoC5/Segments.c **** *  Initializes the DMAs for transferring from the buffer register arrays to 
  76:Generated_Source\PSoC5/Segments.c **** *  the control registers.
  77:Generated_Source\PSoC5/Segments.c **** *
  78:Generated_Source\PSoC5/Segments.c **** * Parameters:
  79:Generated_Source\PSoC5/Segments.c **** *  None
  80:Generated_Source\PSoC5/Segments.c **** *
  81:Generated_Source\PSoC5/Segments.c **** * Return:
  82:Generated_Source\PSoC5/Segments.c **** *  None
  83:Generated_Source\PSoC5/Segments.c **** *
  84:Generated_Source\PSoC5/Segments.c **** * Side Effects: 
  85:Generated_Source\PSoC5/Segments.c **** *  None
  86:Generated_Source\PSoC5/Segments.c **** *
  87:Generated_Source\PSoC5/Segments.c **** *******************************************************************************/
  88:Generated_Source\PSoC5/Segments.c **** static void Segments_DmaInit(void) 
ARM GAS  C:\Users\Esteban\AppData\Local\Temp\ccHxlO6N.s 			page 3


  89:Generated_Source\PSoC5/Segments.c **** {
  27              		.loc 1 89 0
  28              		.cfi_startproc
  29              		@ args = 0, pretend = 0, frame = 0
  30              		@ frame_needed = 0, uses_anonymous_args = 0
  31 0000 10B5     		push	{r4, lr}
  32              		.cfi_def_cfa_offset 8
  33              		.cfi_offset 4, -8
  34              		.cfi_offset 14, -4
  90:Generated_Source\PSoC5/Segments.c ****     uint8  i;
  91:Generated_Source\PSoC5/Segments.c ****     
  92:Generated_Source\PSoC5/Segments.c ****     /* Segment TDs for Seg_Driver_M and Seg_Driver_H control registers */
  93:Generated_Source\PSoC5/Segments.c ****     #if (Segments_NUM_SEG > 8u)
  94:Generated_Source\PSoC5/Segments.c ****         static uint8 Segments_dmaSegMTd[Segments_NUM_COM];
  95:Generated_Source\PSoC5/Segments.c ****     #endif /* (Segments_NUM_SEG > 8u) */
  96:Generated_Source\PSoC5/Segments.c ****     #if (Segments_NUM_SEG > 16u)
  97:Generated_Source\PSoC5/Segments.c ****         static uint8 Segments_dmaSegHTd[Segments_NUM_COM];
  98:Generated_Source\PSoC5/Segments.c ****     #endif /* (Segments_NUM_SEG > 16u) */
  99:Generated_Source\PSoC5/Segments.c **** 
 100:Generated_Source\PSoC5/Segments.c ****     /************************* DMA configuration for the Commons *************************/
 101:Generated_Source\PSoC5/Segments.c ****     /* Common DMA channel */
 102:Generated_Source\PSoC5/Segments.c ****     Segments_dmaComChannel = Segments_DMA_Com_DmaInitialize(1u, 1u, 
  35              		.loc 1 102 0
  36 0002 4FF48043 		mov	r3, #16384
  37 0006 41F6FF72 		movw	r2, #8191
  38 000a 0121     		movs	r1, #1
  39 000c 0846     		mov	r0, r1
  40 000e FFF7FEFF 		bl	Segments_DMA_Com_DmaInitialize
  41              	.LVL0:
  42 0012 504B     		ldr	r3, .L22
  43 0014 1870     		strb	r0, [r3]
 103:Generated_Source\PSoC5/Segments.c ****                                         HI16(Segments_SRAM_BASE), HI16(Segments_CONTROL_REG_BASE));
 104:Generated_Source\PSoC5/Segments.c **** 
 105:Generated_Source\PSoC5/Segments.c ****     /* Check if the channel is valid */                                                            
 106:Generated_Source\PSoC5/Segments.c ****     if(Segments_dmaComChannel != DMA_INVALID_CHANNEL)
  44              		.loc 1 106 0
  45 0016 FF28     		cmp	r0, #255
  46 0018 08D1     		bne	.L19
  47 001a 3FE0     		b	.L3
  48              	.LVL1:
  49              	.L4:
 107:Generated_Source\PSoC5/Segments.c ****     {
 108:Generated_Source\PSoC5/Segments.c ****         /* Allocate the common TDs */
 109:Generated_Source\PSoC5/Segments.c ****         for(i = 0u; i < Segments_TWO_NUM_COM; i++)
 110:Generated_Source\PSoC5/Segments.c ****         {
 111:Generated_Source\PSoC5/Segments.c ****             Segments_dmaComTd[i] = CyDmaTdAllocate();
  50              		.loc 1 111 0 discriminator 3
  51 001c FFF7FEFF 		bl	CyDmaTdAllocate
  52              	.LVL2:
  53 0020 4C4B     		ldr	r3, .L22
  54 0022 2344     		add	r3, r3, r4
  55 0024 1871     		strb	r0, [r3, #4]
 109:Generated_Source\PSoC5/Segments.c ****         {
  56              		.loc 1 109 0 discriminator 3
  57 0026 0134     		adds	r4, r4, #1
  58              	.LVL3:
  59 0028 E4B2     		uxtb	r4, r4
ARM GAS  C:\Users\Esteban\AppData\Local\Temp\ccHxlO6N.s 			page 4


  60              	.LVL4:
  61 002a 00E0     		b	.L2
  62              	.LVL5:
  63              	.L19:
  64 002c 0024     		movs	r4, #0
  65              	.L2:
  66              	.LVL6:
 109:Generated_Source\PSoC5/Segments.c ****         {
  67              		.loc 1 109 0 is_stmt 0 discriminator 1
  68 002e 072C     		cmp	r4, #7
  69 0030 F4D9     		bls	.L4
  70 0032 0024     		movs	r4, #0
  71              	.LVL7:
  72 0034 19E0     		b	.L5
  73              	.LVL8:
  74              	.L8:
 112:Generated_Source\PSoC5/Segments.c ****         }
 113:Generated_Source\PSoC5/Segments.c ****         
 114:Generated_Source\PSoC5/Segments.c ****         /* Set configuration for the Common TDs */
 115:Generated_Source\PSoC5/Segments.c ****         for(i = 0u;  i < (Segments_TWO_NUM_COM - 1u); i++)
 116:Generated_Source\PSoC5/Segments.c ****         {
 117:Generated_Source\PSoC5/Segments.c ****             /* Separate configurations for odd and even TDs */
 118:Generated_Source\PSoC5/Segments.c ****             if((uint8)(i & 1u) == 0u)
  75              		.loc 1 118 0 is_stmt 1
  76 0036 14F0010F 		tst	r4, #1
  77 003a 0AD1     		bne	.L6
 119:Generated_Source\PSoC5/Segments.c ****             {
 120:Generated_Source\PSoC5/Segments.c ****                 /* Set configuration for the Common TDs */
 121:Generated_Source\PSoC5/Segments.c ****                 (void) CyDmaTdSetConfiguration(Segments_dmaComTd[i], 1u, 
  78              		.loc 1 121 0
  79 003c 454A     		ldr	r2, .L22
  80 003e 1019     		adds	r0, r2, r4
 122:Generated_Source\PSoC5/Segments.c ****                                                 Segments_dmaComTd[i+1u],
  81              		.loc 1 122 0
  82 0040 631C     		adds	r3, r4, #1
 121:Generated_Source\PSoC5/Segments.c ****                                                 Segments_dmaComTd[i+1u],
  83              		.loc 1 121 0
  84 0042 1A44     		add	r2, r2, r3
  85 0044 0123     		movs	r3, #1
  86 0046 1279     		ldrb	r2, [r2, #4]	@ zero_extendqisi2
  87 0048 1946     		mov	r1, r3
  88 004a 0079     		ldrb	r0, [r0, #4]	@ zero_extendqisi2
  89 004c FFF7FEFF 		bl	CyDmaTdSetConfiguration
  90              	.LVL9:
  91 0050 09E0     		b	.L7
  92              	.L6:
 123:Generated_Source\PSoC5/Segments.c ****                                                 TD_INC_SRC_ADR | Segments_DMA_Com__TD_TERMOUT_EN);
 124:Generated_Source\PSoC5/Segments.c ****             }
 125:Generated_Source\PSoC5/Segments.c ****             else
 126:Generated_Source\PSoC5/Segments.c ****             {
 127:Generated_Source\PSoC5/Segments.c ****                 /* Set configuration for the Common TDs */
 128:Generated_Source\PSoC5/Segments.c ****                 (void) CyDmaTdSetConfiguration(Segments_dmaComTd[i], 1u,
  93              		.loc 1 128 0
  94 0052 404A     		ldr	r2, .L22
  95 0054 1019     		adds	r0, r2, r4
 129:Generated_Source\PSoC5/Segments.c ****                                                 Segments_dmaComTd[i+1u], TD_INC_SRC_ADR);
  96              		.loc 1 129 0
ARM GAS  C:\Users\Esteban\AppData\Local\Temp\ccHxlO6N.s 			page 5


  97 0056 631C     		adds	r3, r4, #1
 128:Generated_Source\PSoC5/Segments.c ****                                                 Segments_dmaComTd[i+1u], TD_INC_SRC_ADR);
  98              		.loc 1 128 0
  99 0058 1A44     		add	r2, r2, r3
 100 005a 0123     		movs	r3, #1
 101 005c 1279     		ldrb	r2, [r2, #4]	@ zero_extendqisi2
 102 005e 1946     		mov	r1, r3
 103 0060 0079     		ldrb	r0, [r0, #4]	@ zero_extendqisi2
 104 0062 FFF7FEFF 		bl	CyDmaTdSetConfiguration
 105              	.LVL10:
 106              	.L7:
 115:Generated_Source\PSoC5/Segments.c ****         {
 107              		.loc 1 115 0 discriminator 2
 108 0066 0134     		adds	r4, r4, #1
 109              	.LVL11:
 110 0068 E4B2     		uxtb	r4, r4
 111              	.LVL12:
 112              	.L5:
 115:Generated_Source\PSoC5/Segments.c ****         {
 113              		.loc 1 115 0 is_stmt 0 discriminator 1
 114 006a 062C     		cmp	r4, #6
 115 006c E3D9     		bls	.L8
 130:Generated_Source\PSoC5/Segments.c ****             }
 131:Generated_Source\PSoC5/Segments.c ****         }
 132:Generated_Source\PSoC5/Segments.c ****         /* Set the wraparound Common TD configuration */
 133:Generated_Source\PSoC5/Segments.c ****         (void) CyDmaTdSetConfiguration(Segments_dmaComTd[Segments_TWO_NUM_COM - 1u], 
 116              		.loc 1 133 0 is_stmt 1
 117 006e 3948     		ldr	r0, .L22
 118 0070 0123     		movs	r3, #1
 119 0072 0279     		ldrb	r2, [r0, #4]	@ zero_extendqisi2
 120 0074 1946     		mov	r1, r3
 121 0076 C07A     		ldrb	r0, [r0, #11]	@ zero_extendqisi2
 122 0078 FFF7FEFF 		bl	CyDmaTdSetConfiguration
 123              	.LVL13:
 134:Generated_Source\PSoC5/Segments.c ****                                         1u, Segments_dmaComTd[0u], TD_INC_SRC_ADR);
 135:Generated_Source\PSoC5/Segments.c ****         
 136:Generated_Source\PSoC5/Segments.c ****         /* Set the lower addresses of the common TDs */
 137:Generated_Source\PSoC5/Segments.c ****         for(i = 0u; i < Segments_TWO_NUM_COM; i++)
 124              		.loc 1 137 0
 125 007c 0024     		movs	r4, #0
 126 007e 0BE0     		b	.L9
 127              	.LVL14:
 128              	.L10:
 138:Generated_Source\PSoC5/Segments.c ****         {
 139:Generated_Source\PSoC5/Segments.c ****             (void) CyDmaTdSetAddress(Segments_dmaComTd[i],
 129              		.loc 1 139 0 discriminator 3
 130 0080 344B     		ldr	r3, .L22
 131 0082 2344     		add	r3, r3, r4
 140:Generated_Source\PSoC5/Segments.c ****                                         LO16((uint32) &Segments_comBuffer[i]),
 132              		.loc 1 140 0 discriminator 3
 133 0084 3449     		ldr	r1, .L22+4
 134 0086 2144     		add	r1, r1, r4
 139:Generated_Source\PSoC5/Segments.c ****                                         LO16((uint32) &Segments_comBuffer[i]),
 135              		.loc 1 139 0 discriminator 3
 136 0088 46F27552 		movw	r2, #25973
 137 008c 89B2     		uxth	r1, r1
 138 008e 1879     		ldrb	r0, [r3, #4]	@ zero_extendqisi2
ARM GAS  C:\Users\Esteban\AppData\Local\Temp\ccHxlO6N.s 			page 6


 139 0090 FFF7FEFF 		bl	CyDmaTdSetAddress
 140              	.LVL15:
 137:Generated_Source\PSoC5/Segments.c ****         {
 141              		.loc 1 137 0 discriminator 3
 142 0094 0134     		adds	r4, r4, #1
 143              	.LVL16:
 144 0096 E4B2     		uxtb	r4, r4
 145              	.LVL17:
 146              	.L9:
 137:Generated_Source\PSoC5/Segments.c ****         {
 147              		.loc 1 137 0 is_stmt 0 discriminator 1
 148 0098 072C     		cmp	r4, #7
 149 009a F1D9     		bls	.L10
 150              	.LVL18:
 151              	.L3:
 141:Generated_Source\PSoC5/Segments.c ****                                         LO16((uint32) Segments_COM_CONTROL_PTR));
 142:Generated_Source\PSoC5/Segments.c ****         }    
 143:Generated_Source\PSoC5/Segments.c ****     }
 144:Generated_Source\PSoC5/Segments.c ****     
 145:Generated_Source\PSoC5/Segments.c ****     
 146:Generated_Source\PSoC5/Segments.c ****     /*********************** DMA configuration for the Segments ***********************/
 147:Generated_Source\PSoC5/Segments.c ****     /* Get the DMA channels for the segments */
 148:Generated_Source\PSoC5/Segments.c ****     Segments_dmaSegChannel = Segments_DMA_Seg_DmaInitialize(1u, 1u, 
 152              		.loc 1 148 0 is_stmt 1
 153 009c 4FF48043 		mov	r3, #16384
 154 00a0 41F6FF72 		movw	r2, #8191
 155 00a4 0121     		movs	r1, #1
 156 00a6 0846     		mov	r0, r1
 157 00a8 FFF7FEFF 		bl	Segments_DMA_Seg_DmaInitialize
 158              	.LVL19:
 159 00ac 294B     		ldr	r3, .L22
 160 00ae 1873     		strb	r0, [r3, #12]
 149:Generated_Source\PSoC5/Segments.c ****                                         HI16(Segments_SRAM_BASE), HI16(Segments_CONTROL_REG_BASE));
 150:Generated_Source\PSoC5/Segments.c ****     
 151:Generated_Source\PSoC5/Segments.c ****     /* Check if the segment channel is valid */
 152:Generated_Source\PSoC5/Segments.c ****     if(Segments_dmaSegChannel != DMA_INVALID_CHANNEL)
 161              		.loc 1 152 0
 162 00b0 FF28     		cmp	r0, #255
 163 00b2 08D1     		bne	.L20
 164 00b4 30E0     		b	.L12
 165              	.LVL20:
 166              	.L13:
 153:Generated_Source\PSoC5/Segments.c ****     {
 154:Generated_Source\PSoC5/Segments.c ****         /* Allocate separate Tds for segments to implement the chain */
 155:Generated_Source\PSoC5/Segments.c ****         for(i = 0u; i < Segments_NUM_COM; i++)
 156:Generated_Source\PSoC5/Segments.c ****         {
 157:Generated_Source\PSoC5/Segments.c ****             Segments_dmaSegLTd[i] = CyDmaTdAllocate();
 167              		.loc 1 157 0 discriminator 3
 168 00b6 FFF7FEFF 		bl	CyDmaTdAllocate
 169              	.LVL21:
 170 00ba 264B     		ldr	r3, .L22
 171 00bc 2344     		add	r3, r3, r4
 172 00be 1874     		strb	r0, [r3, #16]
 155:Generated_Source\PSoC5/Segments.c ****         {
 173              		.loc 1 155 0 discriminator 3
 174 00c0 0134     		adds	r4, r4, #1
 175              	.LVL22:
ARM GAS  C:\Users\Esteban\AppData\Local\Temp\ccHxlO6N.s 			page 7


 176 00c2 E4B2     		uxtb	r4, r4
 177              	.LVL23:
 178 00c4 00E0     		b	.L11
 179              	.LVL24:
 180              	.L20:
 181 00c6 0024     		movs	r4, #0
 182              	.L11:
 183              	.LVL25:
 155:Generated_Source\PSoC5/Segments.c ****         {
 184              		.loc 1 155 0 is_stmt 0 discriminator 1
 185 00c8 032C     		cmp	r4, #3
 186 00ca F4D9     		bls	.L13
 187 00cc 0023     		movs	r3, #0
 188 00ce 0AE0     		b	.L14
 189              	.LVL26:
 190              	.L15:
 158:Generated_Source\PSoC5/Segments.c ****             #if (Segments_NUM_SEG > 8u)
 159:Generated_Source\PSoC5/Segments.c ****                 Segments_dmaSegMTd[i] = CyDmaTdAllocate();
 160:Generated_Source\PSoC5/Segments.c ****             #endif /* (Segments_NUM_SEG > 8u) */
 161:Generated_Source\PSoC5/Segments.c ****             #if (Segments_NUM_SEG > 16u)
 162:Generated_Source\PSoC5/Segments.c ****                 Segments_dmaSegHTd[i] = CyDmaTdAllocate();
 163:Generated_Source\PSoC5/Segments.c ****             #endif /* (Segments_NUM_SEG > 16u) */
 164:Generated_Source\PSoC5/Segments.c ****         }
 165:Generated_Source\PSoC5/Segments.c ****         
 166:Generated_Source\PSoC5/Segments.c ****         /* Set the configuration for the Segment TDs */
 167:Generated_Source\PSoC5/Segments.c ****         for(i = 0u; i < (Segments_NUM_COM - 1u); i++)
 168:Generated_Source\PSoC5/Segments.c ****         {
 169:Generated_Source\PSoC5/Segments.c ****             #if (Segments_NUM_SEG <= 8u)
 170:Generated_Source\PSoC5/Segments.c ****                 (void) CyDmaTdSetConfiguration(Segments_dmaSegLTd[i], 1u, Segments_dmaSegLTd[i+1u],
 191              		.loc 1 170 0 is_stmt 1 discriminator 3
 192 00d0 204A     		ldr	r2, .L22
 193 00d2 D018     		adds	r0, r2, r3
 194 00d4 5C1C     		adds	r4, r3, #1
 195 00d6 2244     		add	r2, r2, r4
 196 00d8 0523     		movs	r3, #5
 197              	.LVL27:
 198 00da 127C     		ldrb	r2, [r2, #16]	@ zero_extendqisi2
 199 00dc 0121     		movs	r1, #1
 200 00de 007C     		ldrb	r0, [r0, #16]	@ zero_extendqisi2
 201 00e0 FFF7FEFF 		bl	CyDmaTdSetConfiguration
 202              	.LVL28:
 167:Generated_Source\PSoC5/Segments.c ****         {
 203              		.loc 1 167 0 discriminator 3
 204 00e4 E3B2     		uxtb	r3, r4
 205              	.LVL29:
 206              	.L14:
 167:Generated_Source\PSoC5/Segments.c ****         {
 207              		.loc 1 167 0 is_stmt 0 discriminator 1
 208 00e6 022B     		cmp	r3, #2
 209 00e8 F2D9     		bls	.L15
 171:Generated_Source\PSoC5/Segments.c ****                                                 TD_INC_SRC_ADR | Segments_DMA_Seg__TD_TERMOUT_EN);
 172:Generated_Source\PSoC5/Segments.c ****             #else    
 173:Generated_Source\PSoC5/Segments.c ****                 (void) CyDmaTdSetConfiguration(Segments_dmaSegLTd[i], 1u, Segments_dmaSegMTd[i],
 174:Generated_Source\PSoC5/Segments.c ****                                                 TD_INC_SRC_ADR | TD_AUTO_EXEC_NEXT);
 175:Generated_Source\PSoC5/Segments.c **** 
 176:Generated_Source\PSoC5/Segments.c ****                 #if (Segments_NUM_SEG <= 16u)
 177:Generated_Source\PSoC5/Segments.c ****                     (void) CyDmaTdSetConfiguration(Segments_dmaSegMTd[i], 1u, Segments_dmaSegLTd[i+
ARM GAS  C:\Users\Esteban\AppData\Local\Temp\ccHxlO6N.s 			page 8


 178:Generated_Source\PSoC5/Segments.c ****                                                     TD_INC_SRC_ADR | Segments_DMA_Seg__TD_TERMOUT_E
 179:Generated_Source\PSoC5/Segments.c ****                 #else    
 180:Generated_Source\PSoC5/Segments.c ****                     (void) CyDmaTdSetConfiguration(Segments_dmaSegMTd[i], 1u, Segments_dmaSegHTd[i]
 181:Generated_Source\PSoC5/Segments.c ****                                                     TD_INC_SRC_ADR | TD_AUTO_EXEC_NEXT);
 182:Generated_Source\PSoC5/Segments.c ****                     (void) CyDmaTdSetConfiguration(Segments_dmaSegHTd[i], 1u, Segments_dmaSegLTd[i+
 183:Generated_Source\PSoC5/Segments.c ****                                                     TD_INC_SRC_ADR | Segments_DMA_Seg__TD_TERMOUT_E
 184:Generated_Source\PSoC5/Segments.c ****                 #endif /* Segments_NUM_SEG <= 16u */
 185:Generated_Source\PSoC5/Segments.c ****             #endif /* Segments_NUM_SEG <= 8u */
 186:Generated_Source\PSoC5/Segments.c ****         }
 187:Generated_Source\PSoC5/Segments.c ****         
 188:Generated_Source\PSoC5/Segments.c ****         /* Set the wraparound Segment TD configurations */
 189:Generated_Source\PSoC5/Segments.c ****         #if (Segments_NUM_SEG <= 8u)
 190:Generated_Source\PSoC5/Segments.c ****             (void) CyDmaTdSetConfiguration(Segments_dmaSegLTd[Segments_NUM_COM - 1u],
 210              		.loc 1 190 0 is_stmt 1
 211 00ea 1A48     		ldr	r0, .L22
 212 00ec 0523     		movs	r3, #5
 213              	.LVL30:
 214 00ee 027C     		ldrb	r2, [r0, #16]	@ zero_extendqisi2
 215 00f0 0121     		movs	r1, #1
 216 00f2 C07C     		ldrb	r0, [r0, #19]	@ zero_extendqisi2
 217 00f4 FFF7FEFF 		bl	CyDmaTdSetConfiguration
 218              	.LVL31:
 191:Generated_Source\PSoC5/Segments.c ****                                             1u, Segments_dmaSegLTd[0u], 
 192:Generated_Source\PSoC5/Segments.c ****                                             TD_INC_SRC_ADR | Segments_DMA_Seg__TD_TERMOUT_EN);
 193:Generated_Source\PSoC5/Segments.c ****         #else    
 194:Generated_Source\PSoC5/Segments.c ****             (void) CyDmaTdSetConfiguration(Segments_dmaSegLTd[Segments_NUM_COM - 1u],
 195:Generated_Source\PSoC5/Segments.c ****                                             1u, Segments_dmaSegMTd[Segments_NUM_COM - 1u],
 196:Generated_Source\PSoC5/Segments.c ****                                             TD_INC_SRC_ADR | TD_AUTO_EXEC_NEXT);
 197:Generated_Source\PSoC5/Segments.c ****             #if (Segments_NUM_SEG <= 16u)
 198:Generated_Source\PSoC5/Segments.c ****                 (void) CyDmaTdSetConfiguration(Segments_dmaSegMTd[Segments_NUM_COM - 1u],
 199:Generated_Source\PSoC5/Segments.c ****                                                 1u, Segments_dmaSegLTd[0u], 
 200:Generated_Source\PSoC5/Segments.c ****                                                 TD_INC_SRC_ADR | Segments_DMA_Seg__TD_TERMOUT_EN);
 201:Generated_Source\PSoC5/Segments.c ****             #else    
 202:Generated_Source\PSoC5/Segments.c ****                 (void) CyDmaTdSetConfiguration(Segments_dmaSegMTd[Segments_NUM_COM - 1u],
 203:Generated_Source\PSoC5/Segments.c ****                                                 1u, Segments_dmaSegHTd[Segments_NUM_COM - 1u], 
 204:Generated_Source\PSoC5/Segments.c ****                                                 TD_INC_SRC_ADR | TD_AUTO_EXEC_NEXT);
 205:Generated_Source\PSoC5/Segments.c ****                 (void) CyDmaTdSetConfiguration(Segments_dmaSegHTd[Segments_NUM_COM - 1u],
 206:Generated_Source\PSoC5/Segments.c ****                                                 1u, Segments_dmaSegLTd[0u], 
 207:Generated_Source\PSoC5/Segments.c ****                                                 TD_INC_SRC_ADR | Segments_DMA_Seg__TD_TERMOUT_EN);
 208:Generated_Source\PSoC5/Segments.c ****             #endif /* (Segments_NUM_SEG <= 16u) */
 209:Generated_Source\PSoC5/Segments.c ****         #endif /* (Segments_NUM_SEG <= 8u) */
 210:Generated_Source\PSoC5/Segments.c ****         
 211:Generated_Source\PSoC5/Segments.c ****         /* The lower addresses for the segment TDs */
 212:Generated_Source\PSoC5/Segments.c ****         for(i = 0u; i < Segments_NUM_COM; i++)
 219              		.loc 1 212 0
 220 00f8 0024     		movs	r4, #0
 221 00fa 0BE0     		b	.L16
 222              	.LVL32:
 223              	.L17:
 213:Generated_Source\PSoC5/Segments.c ****         {
 214:Generated_Source\PSoC5/Segments.c ****             (void) CyDmaTdSetAddress(Segments_dmaSegLTd[i],
 224              		.loc 1 214 0 discriminator 3
 225 00fc 154B     		ldr	r3, .L22
 226 00fe 2344     		add	r3, r3, r4
 215:Generated_Source\PSoC5/Segments.c ****                                             LO16((uint32) &Segments_segLBuffer[i]),
 227              		.loc 1 215 0 discriminator 3
 228 0100 1649     		ldr	r1, .L22+8
ARM GAS  C:\Users\Esteban\AppData\Local\Temp\ccHxlO6N.s 			page 9


 229 0102 2144     		add	r1, r1, r4
 214:Generated_Source\PSoC5/Segments.c ****                                             LO16((uint32) &Segments_segLBuffer[i]),
 230              		.loc 1 214 0 discriminator 3
 231 0104 46F27A42 		movw	r2, #25722
 232 0108 89B2     		uxth	r1, r1
 233 010a 187C     		ldrb	r0, [r3, #16]	@ zero_extendqisi2
 234 010c FFF7FEFF 		bl	CyDmaTdSetAddress
 235              	.LVL33:
 212:Generated_Source\PSoC5/Segments.c ****         {
 236              		.loc 1 212 0 discriminator 3
 237 0110 0134     		adds	r4, r4, #1
 238              	.LVL34:
 239 0112 E4B2     		uxtb	r4, r4
 240              	.LVL35:
 241              	.L16:
 212:Generated_Source\PSoC5/Segments.c ****         {
 242              		.loc 1 212 0 is_stmt 0 discriminator 1
 243 0114 032C     		cmp	r4, #3
 244 0116 F1D9     		bls	.L17
 245              	.LVL36:
 246              	.L12:
 216:Generated_Source\PSoC5/Segments.c ****                                             LO16((uint32) Segments_SEG_L_CONTROL_PTR));
 217:Generated_Source\PSoC5/Segments.c ****             #if (Segments_NUM_SEG > 8u)
 218:Generated_Source\PSoC5/Segments.c ****                 (void) CyDmaTdSetAddress(Segments_dmaSegMTd[i],
 219:Generated_Source\PSoC5/Segments.c ****                                             LO16((uint32) &Segments_segMBuffer[i]),
 220:Generated_Source\PSoC5/Segments.c ****                                             LO16((uint32) Segments_SEG_M_CONTROL_PTR));
 221:Generated_Source\PSoC5/Segments.c ****             #endif /* (Segments_NUM_SEG > 8u) */
 222:Generated_Source\PSoC5/Segments.c ****             #if (Segments_NUM_SEG > 16u)
 223:Generated_Source\PSoC5/Segments.c ****                 (void) CyDmaTdSetAddress(Segments_dmaSegHTd[i], 
 224:Generated_Source\PSoC5/Segments.c ****                                             LO16((uint32) &Segments_segHBuffer[i]),
 225:Generated_Source\PSoC5/Segments.c ****                                             LO16((uint32) Segments_SEG_H_CONTROL_PTR));
 226:Generated_Source\PSoC5/Segments.c ****             #endif /* (Segments_NUM_SEG > 16u) */
 227:Generated_Source\PSoC5/Segments.c ****         }
 228:Generated_Source\PSoC5/Segments.c ****     }
 229:Generated_Source\PSoC5/Segments.c ****     
 230:Generated_Source\PSoC5/Segments.c ****     
 231:Generated_Source\PSoC5/Segments.c ****     /******************** DMA configuration for Brightness control *********************/
 232:Generated_Source\PSoC5/Segments.c ****     
 233:Generated_Source\PSoC5/Segments.c ****     #if (Segments_BRIGHTNESS_EN == Segments_ENABLED)
 234:Generated_Source\PSoC5/Segments.c ****         /* Get the DMA channels */
 235:Generated_Source\PSoC5/Segments.c ****         Segments_dmaBCChannel = Segments_DMA_BC_DmaInitialize(1u, 1u, 
 247              		.loc 1 235 0 is_stmt 1
 248 0118 4FF48043 		mov	r3, #16384
 249 011c 41F6FF72 		movw	r2, #8191
 250 0120 0121     		movs	r1, #1
 251 0122 0846     		mov	r0, r1
 252 0124 FFF7FEFF 		bl	Segments_DMA_BC_DmaInitialize
 253              	.LVL37:
 254 0128 0A4B     		ldr	r3, .L22
 255 012a 1875     		strb	r0, [r3, #20]
 236:Generated_Source\PSoC5/Segments.c ****                                         HI16(Segments_SRAM_BASE), HI16(Segments_CONTROL_REG_BASE));
 237:Generated_Source\PSoC5/Segments.c ****             
 238:Generated_Source\PSoC5/Segments.c ****         /* Check if the channels are valid */
 239:Generated_Source\PSoC5/Segments.c ****         if(Segments_dmaBCChannel != DMA_INVALID_CHANNEL)
 256              		.loc 1 239 0
 257 012c FF28     		cmp	r0, #255
 258 012e 10D0     		beq	.L1
ARM GAS  C:\Users\Esteban\AppData\Local\Temp\ccHxlO6N.s 			page 10


 240:Generated_Source\PSoC5/Segments.c ****         {
 241:Generated_Source\PSoC5/Segments.c ****             Segments_dmaBCTd = CyDmaTdAllocate();
 259              		.loc 1 241 0
 260 0130 FFF7FEFF 		bl	CyDmaTdAllocate
 261              	.LVL38:
 262 0134 0246     		mov	r2, r0
 263 0136 074C     		ldr	r4, .L22
 264 0138 6075     		strb	r0, [r4, #21]
 242:Generated_Source\PSoC5/Segments.c ****             
 243:Generated_Source\PSoC5/Segments.c ****             /* Set the TD configuration for the brightness DMA */
 244:Generated_Source\PSoC5/Segments.c ****             (void) CyDmaTdSetConfiguration(Segments_dmaBCTd, Segments_NUM_COM,
 265              		.loc 1 244 0
 266 013a 0123     		movs	r3, #1
 267 013c 0421     		movs	r1, #4
 268 013e FFF7FEFF 		bl	CyDmaTdSetConfiguration
 269              	.LVL39:
 245:Generated_Source\PSoC5/Segments.c ****                                         Segments_dmaBCTd, TD_INC_SRC_ADR);
 246:Generated_Source\PSoC5/Segments.c ****             
 247:Generated_Source\PSoC5/Segments.c ****             /* Lower address for the brightness Td */
 248:Generated_Source\PSoC5/Segments.c ****             (void) CyDmaTdSetAddress(Segments_dmaBCTd, LO16((uint32) &Segments_brightnessReg[0u]),
 270              		.loc 1 248 0
 271 0142 04F11801 		add	r1, r4, #24
 272 0146 46F22452 		movw	r2, #25892
 273 014a 89B2     		uxth	r1, r1
 274 014c 607D     		ldrb	r0, [r4, #21]	@ zero_extendqisi2
 275 014e FFF7FEFF 		bl	CyDmaTdSetAddress
 276              	.LVL40:
 277              	.L1:
 278 0152 10BD     		pop	{r4, pc}
 279              	.L23:
 280              		.align	2
 281              	.L22:
 282 0154 00000000 		.word	.LANCHOR0
 283 0158 00000000 		.word	.LANCHOR1
 284 015c 00000000 		.word	Segments_segLBuffer
 285              		.cfi_endproc
 286              	.LFE0:
 287              		.size	Segments_DmaInit, .-Segments_DmaInit
 288              		.section	.text.Segments_DmaEnable,"ax",%progbits
 289              		.align	2
 290              		.thumb
 291              		.thumb_func
 292              		.type	Segments_DmaEnable, %function
 293              	Segments_DmaEnable:
 294              	.LFB1:
 249:Generated_Source\PSoC5/Segments.c ****                                                                LO16((uint32)Segments_COMPARE_PTR));
 250:Generated_Source\PSoC5/Segments.c ****         }
 251:Generated_Source\PSoC5/Segments.c ****     #endif /* (Segments_BRIGHTNESS_EN == Segments_ENABLED) */
 252:Generated_Source\PSoC5/Segments.c **** }
 253:Generated_Source\PSoC5/Segments.c **** 
 254:Generated_Source\PSoC5/Segments.c **** 
 255:Generated_Source\PSoC5/Segments.c **** /*******************************************************************************
 256:Generated_Source\PSoC5/Segments.c **** * Function Name: Segments_DmaEnable
 257:Generated_Source\PSoC5/Segments.c **** ********************************************************************************
 258:Generated_Source\PSoC5/Segments.c **** *
 259:Generated_Source\PSoC5/Segments.c **** * Summary: 
 260:Generated_Source\PSoC5/Segments.c **** *  Enables the DMAs for transferring from the buffer register arrays to the
ARM GAS  C:\Users\Esteban\AppData\Local\Temp\ccHxlO6N.s 			page 11


 261:Generated_Source\PSoC5/Segments.c **** *  control registers.
 262:Generated_Source\PSoC5/Segments.c **** *
 263:Generated_Source\PSoC5/Segments.c **** * Parameters:
 264:Generated_Source\PSoC5/Segments.c **** *  None
 265:Generated_Source\PSoC5/Segments.c **** *
 266:Generated_Source\PSoC5/Segments.c **** * Return: 
 267:Generated_Source\PSoC5/Segments.c **** *  None
 268:Generated_Source\PSoC5/Segments.c **** *
 269:Generated_Source\PSoC5/Segments.c **** * Side Effects: 
 270:Generated_Source\PSoC5/Segments.c **** *  None
 271:Generated_Source\PSoC5/Segments.c **** *
 272:Generated_Source\PSoC5/Segments.c **** *******************************************************************************/
 273:Generated_Source\PSoC5/Segments.c **** static void Segments_DmaEnable(void) 
 274:Generated_Source\PSoC5/Segments.c **** {
 295              		.loc 1 274 0
 296              		.cfi_startproc
 297              		@ args = 0, pretend = 0, frame = 0
 298              		@ frame_needed = 0, uses_anonymous_args = 0
 299 0000 10B5     		push	{r4, lr}
 300              		.cfi_def_cfa_offset 8
 301              		.cfi_offset 4, -8
 302              		.cfi_offset 14, -4
 275:Generated_Source\PSoC5/Segments.c ****     /* Initialize the TDs to the respective channels */
 276:Generated_Source\PSoC5/Segments.c ****     (void) CyDmaChSetInitialTd(Segments_dmaComChannel, Segments_dmaComTd[0u]);
 303              		.loc 1 276 0
 304 0002 0D4C     		ldr	r4, .L26
 305 0004 2179     		ldrb	r1, [r4, #4]	@ zero_extendqisi2
 306 0006 2078     		ldrb	r0, [r4]	@ zero_extendqisi2
 307 0008 FFF7FEFF 		bl	CyDmaChSetInitialTd
 308              	.LVL41:
 277:Generated_Source\PSoC5/Segments.c ****     (void) CyDmaChSetInitialTd(Segments_dmaSegChannel, Segments_dmaSegLTd[0u]);
 309              		.loc 1 277 0
 310 000c 217C     		ldrb	r1, [r4, #16]	@ zero_extendqisi2
 311 000e 207B     		ldrb	r0, [r4, #12]	@ zero_extendqisi2
 312 0010 FFF7FEFF 		bl	CyDmaChSetInitialTd
 313              	.LVL42:
 278:Generated_Source\PSoC5/Segments.c ****     #if (Segments_BRIGHTNESS_EN == Segments_ENABLED)
 279:Generated_Source\PSoC5/Segments.c ****         (void) CyDmaChSetInitialTd(Segments_dmaBCChannel, Segments_dmaBCTd);
 314              		.loc 1 279 0
 315 0014 617D     		ldrb	r1, [r4, #21]	@ zero_extendqisi2
 316 0016 207D     		ldrb	r0, [r4, #20]	@ zero_extendqisi2
 317 0018 FFF7FEFF 		bl	CyDmaChSetInitialTd
 318              	.LVL43:
 280:Generated_Source\PSoC5/Segments.c ****     #endif /* (Segments_BRIGHTNESS_EN == Segments_ENABLED) */
 281:Generated_Source\PSoC5/Segments.c ****     
 282:Generated_Source\PSoC5/Segments.c ****     /* Enable all channels */
 283:Generated_Source\PSoC5/Segments.c ****     (void) CyDmaChEnable(Segments_dmaComChannel, 1u);
 319              		.loc 1 283 0
 320 001c 0121     		movs	r1, #1
 321 001e 2078     		ldrb	r0, [r4]	@ zero_extendqisi2
 322 0020 FFF7FEFF 		bl	CyDmaChEnable
 323              	.LVL44:
 284:Generated_Source\PSoC5/Segments.c ****     (void) CyDmaChEnable(Segments_dmaSegChannel, 1u);
 324              		.loc 1 284 0
 325 0024 0121     		movs	r1, #1
 326 0026 207B     		ldrb	r0, [r4, #12]	@ zero_extendqisi2
 327 0028 FFF7FEFF 		bl	CyDmaChEnable
ARM GAS  C:\Users\Esteban\AppData\Local\Temp\ccHxlO6N.s 			page 12


 328              	.LVL45:
 285:Generated_Source\PSoC5/Segments.c ****     #if (Segments_BRIGHTNESS_EN == Segments_ENABLED)
 286:Generated_Source\PSoC5/Segments.c ****         (void) CyDmaChEnable(Segments_dmaBCChannel, 1u);
 329              		.loc 1 286 0
 330 002c 0121     		movs	r1, #1
 331 002e 207D     		ldrb	r0, [r4, #20]	@ zero_extendqisi2
 332 0030 FFF7FEFF 		bl	CyDmaChEnable
 333              	.LVL46:
 334 0034 10BD     		pop	{r4, pc}
 335              	.L27:
 336 0036 00BF     		.align	2
 337              	.L26:
 338 0038 00000000 		.word	.LANCHOR0
 339              		.cfi_endproc
 340              	.LFE1:
 341              		.size	Segments_DmaEnable, .-Segments_DmaEnable
 342              		.section	.text.Segments_DmaDisable,"ax",%progbits
 343              		.align	2
 344              		.thumb
 345              		.thumb_func
 346              		.type	Segments_DmaDisable, %function
 347              	Segments_DmaDisable:
 348              	.LFB2:
 287:Generated_Source\PSoC5/Segments.c ****     #endif /* (Segments_BRIGHTNESS_EN == Segments_ENABLED) */
 288:Generated_Source\PSoC5/Segments.c **** }
 289:Generated_Source\PSoC5/Segments.c **** 
 290:Generated_Source\PSoC5/Segments.c **** 
 291:Generated_Source\PSoC5/Segments.c **** /*******************************************************************************
 292:Generated_Source\PSoC5/Segments.c **** * Function Name: Segments_DmaDisable
 293:Generated_Source\PSoC5/Segments.c **** ********************************************************************************
 294:Generated_Source\PSoC5/Segments.c **** *
 295:Generated_Source\PSoC5/Segments.c **** * Summary: 
 296:Generated_Source\PSoC5/Segments.c **** *  Disables the DMAs for transferring from register array to the control 
 297:Generated_Source\PSoC5/Segments.c **** *  register.
 298:Generated_Source\PSoC5/Segments.c **** *
 299:Generated_Source\PSoC5/Segments.c **** * Parameters:
 300:Generated_Source\PSoC5/Segments.c **** *  None
 301:Generated_Source\PSoC5/Segments.c **** *
 302:Generated_Source\PSoC5/Segments.c **** * Return: 
 303:Generated_Source\PSoC5/Segments.c **** *  None
 304:Generated_Source\PSoC5/Segments.c **** *
 305:Generated_Source\PSoC5/Segments.c **** * Side Effects: 
 306:Generated_Source\PSoC5/Segments.c **** *  None
 307:Generated_Source\PSoC5/Segments.c **** *
 308:Generated_Source\PSoC5/Segments.c **** *******************************************************************************/
 309:Generated_Source\PSoC5/Segments.c **** static void Segments_DmaDisable(void) 
 310:Generated_Source\PSoC5/Segments.c **** {
 349              		.loc 1 310 0
 350              		.cfi_startproc
 351              		@ args = 0, pretend = 0, frame = 8
 352              		@ frame_needed = 0, uses_anonymous_args = 0
 353 0000 70B5     		push	{r4, r5, r6, lr}
 354              		.cfi_def_cfa_offset 16
 355              		.cfi_offset 4, -16
 356              		.cfi_offset 5, -12
 357              		.cfi_offset 6, -8
 358              		.cfi_offset 14, -4
ARM GAS  C:\Users\Esteban\AppData\Local\Temp\ccHxlO6N.s 			page 13


 359 0002 82B0     		sub	sp, sp, #8
 360              		.cfi_def_cfa_offset 24
 311:Generated_Source\PSoC5/Segments.c ****     uint8 i;
 312:Generated_Source\PSoC5/Segments.c ****     uint8 channel;
 313:Generated_Source\PSoC5/Segments.c ****     uint8 dmaChannelList[Segments_CHANNEL_LIMIT];
 314:Generated_Source\PSoC5/Segments.c ****     
 315:Generated_Source\PSoC5/Segments.c ****     dmaChannelList[0u] = Segments_dmaComChannel;
 361              		.loc 1 315 0
 362 0004 174B     		ldr	r3, .L34
 363 0006 1A78     		ldrb	r2, [r3]	@ zero_extendqisi2
 364 0008 8DF80420 		strb	r2, [sp, #4]
 316:Generated_Source\PSoC5/Segments.c ****     dmaChannelList[1u] = Segments_dmaSegChannel;
 365              		.loc 1 316 0
 366 000c 1A7B     		ldrb	r2, [r3, #12]	@ zero_extendqisi2
 367 000e 8DF80520 		strb	r2, [sp, #5]
 317:Generated_Source\PSoC5/Segments.c ****     #if (Segments_BRIGHTNESS_EN == Segments_ENABLED)
 318:Generated_Source\PSoC5/Segments.c ****         dmaChannelList[2u] = Segments_dmaBCChannel;
 368              		.loc 1 318 0
 369 0012 1B7D     		ldrb	r3, [r3, #20]	@ zero_extendqisi2
 370 0014 8DF80630 		strb	r3, [sp, #6]
 371              	.LVL47:
 319:Generated_Source\PSoC5/Segments.c ****     #endif /* (Segments_BRIGHTNESS_EN == Segments_ENABLED) */
 320:Generated_Source\PSoC5/Segments.c **** 
 321:Generated_Source\PSoC5/Segments.c ****     for(i = 0u; i < Segments_CHANNEL_LIMIT; i++)
 372              		.loc 1 321 0
 373 0018 0026     		movs	r6, #0
 374 001a 1EE0     		b	.L29
 375              	.LVL48:
 376              	.L32:
 322:Generated_Source\PSoC5/Segments.c ****     {
 323:Generated_Source\PSoC5/Segments.c ****         channel = dmaChannelList[i];
 377              		.loc 1 323 0
 378 001c 02AB     		add	r3, sp, #8
 379 001e 3344     		add	r3, r3, r6
 380 0020 13F8045C 		ldrb	r5, [r3, #-4]	@ zero_extendqisi2
 381              	.LVL49:
 324:Generated_Source\PSoC5/Segments.c ****         (void) CyDmaChDisable(channel);
 382              		.loc 1 324 0
 383 0024 2846     		mov	r0, r5
 384 0026 FFF7FEFF 		bl	CyDmaChDisable
 385              	.LVL50:
 325:Generated_Source\PSoC5/Segments.c ****         
 326:Generated_Source\PSoC5/Segments.c ****         Segments_Com_Driver_Write(Segments_CLEAR);
 386              		.loc 1 326 0
 387 002a 0020     		movs	r0, #0
 388 002c FFF7FEFF 		bl	Segments_Com_Driver_Write
 389              	.LVL51:
 390              	.L30:
 327:Generated_Source\PSoC5/Segments.c ****         
 328:Generated_Source\PSoC5/Segments.c ****         /* Clear any potential DMA requests and re-reset TD pointers */
 329:Generated_Source\PSoC5/Segments.c ****         while(0u != (CY_DMA_CH_STRUCT_PTR[channel].basic_status[0u] & CY_DMA_STATUS_TD_ACTIVE))
 391              		.loc 1 329 0 discriminator 1
 392 0030 0D4C     		ldr	r4, .L34+4
 393 0032 04EB0514 		add	r4, r4, r5, lsl #4
 394 0036 237A     		ldrb	r3, [r4, #8]	@ zero_extendqisi2
 395 0038 13F0020F 		tst	r3, #2
 396 003c F8D1     		bne	.L30
ARM GAS  C:\Users\Esteban\AppData\Local\Temp\ccHxlO6N.s 			page 14


 330:Generated_Source\PSoC5/Segments.c ****         {
 331:Generated_Source\PSoC5/Segments.c ****             ; /* Wait for to be cleared */
 332:Generated_Source\PSoC5/Segments.c ****         }
 333:Generated_Source\PSoC5/Segments.c **** 
 334:Generated_Source\PSoC5/Segments.c ****         (void) CyDmaChSetRequest(channel, CY_DMA_CPU_TERM_CHAIN);
 397              		.loc 1 334 0
 398 003e 0421     		movs	r1, #4
 399 0040 2846     		mov	r0, r5
 400 0042 FFF7FEFF 		bl	CyDmaChSetRequest
 401              	.LVL52:
 335:Generated_Source\PSoC5/Segments.c ****         (void) CyDmaChEnable    (channel, 1u);
 402              		.loc 1 335 0
 403 0046 0121     		movs	r1, #1
 404 0048 2846     		mov	r0, r5
 405 004a FFF7FEFF 		bl	CyDmaChEnable
 406              	.LVL53:
 407              	.L31:
 336:Generated_Source\PSoC5/Segments.c **** 
 337:Generated_Source\PSoC5/Segments.c ****         while(0u != (CY_DMA_CH_STRUCT_PTR[channel].basic_cfg[0u] & CY_DMA_STATUS_CHAIN_ACTIVE))
 408              		.loc 1 337 0 discriminator 1
 409 004e 2378     		ldrb	r3, [r4]	@ zero_extendqisi2
 410 0050 13F0010F 		tst	r3, #1
 411 0054 FBD1     		bne	.L31
 321:Generated_Source\PSoC5/Segments.c ****     {
 412              		.loc 1 321 0 discriminator 2
 413 0056 0136     		adds	r6, r6, #1
 414              	.LVL54:
 415 0058 F6B2     		uxtb	r6, r6
 416              	.LVL55:
 417              	.L29:
 321:Generated_Source\PSoC5/Segments.c ****     {
 418              		.loc 1 321 0 is_stmt 0 discriminator 1
 419 005a 022E     		cmp	r6, #2
 420 005c DED9     		bls	.L32
 338:Generated_Source\PSoC5/Segments.c ****         {
 339:Generated_Source\PSoC5/Segments.c ****             ; /* Wait for to be cleared */
 340:Generated_Source\PSoC5/Segments.c ****         }
 341:Generated_Source\PSoC5/Segments.c ****     }
 342:Generated_Source\PSoC5/Segments.c **** }
 421              		.loc 1 342 0 is_stmt 1
 422 005e 02B0     		add	sp, sp, #8
 423              		.cfi_def_cfa_offset 16
 424              		@ sp needed
 425 0060 70BD     		pop	{r4, r5, r6, pc}
 426              	.LVL56:
 427              	.L35:
 428 0062 00BF     		.align	2
 429              	.L34:
 430 0064 00000000 		.word	.LANCHOR0
 431 0068 10700040 		.word	1073770512
 432              		.cfi_endproc
 433              	.LFE2:
 434              		.size	Segments_DmaDisable, .-Segments_DmaDisable
 435              		.section	.text.Segments_Enable,"ax",%progbits
 436              		.align	2
 437              		.global	Segments_Enable
 438              		.thumb
ARM GAS  C:\Users\Esteban\AppData\Local\Temp\ccHxlO6N.s 			page 15


 439              		.thumb_func
 440              		.type	Segments_Enable, %function
 441              	Segments_Enable:
 442              	.LFB4:
 343:Generated_Source\PSoC5/Segments.c **** 
 344:Generated_Source\PSoC5/Segments.c **** 
 345:Generated_Source\PSoC5/Segments.c **** /*******************************************************************************
 346:Generated_Source\PSoC5/Segments.c **** * Function Name: Segments_Init
 347:Generated_Source\PSoC5/Segments.c **** ********************************************************************************
 348:Generated_Source\PSoC5/Segments.c **** *
 349:Generated_Source\PSoC5/Segments.c **** * Summary: 
 350:Generated_Source\PSoC5/Segments.c **** *  Performs initialization required for the component to operate.
 351:Generated_Source\PSoC5/Segments.c **** *
 352:Generated_Source\PSoC5/Segments.c **** * Parameters:
 353:Generated_Source\PSoC5/Segments.c **** *  None
 354:Generated_Source\PSoC5/Segments.c **** *
 355:Generated_Source\PSoC5/Segments.c **** * Return: 
 356:Generated_Source\PSoC5/Segments.c **** *  None
 357:Generated_Source\PSoC5/Segments.c **** *
 358:Generated_Source\PSoC5/Segments.c **** * Side Effects: 
 359:Generated_Source\PSoC5/Segments.c **** *  This action clears the display.
 360:Generated_Source\PSoC5/Segments.c **** *
 361:Generated_Source\PSoC5/Segments.c **** *******************************************************************************/
 362:Generated_Source\PSoC5/Segments.c **** void Segments_Init(void) 
 363:Generated_Source\PSoC5/Segments.c **** {
 364:Generated_Source\PSoC5/Segments.c ****     static uint8 Segments_dmaInitDone = 0u;
 365:Generated_Source\PSoC5/Segments.c ****     #if (Segments_BRIGHTNESS_EN == Segments_ENABLED)
 366:Generated_Source\PSoC5/Segments.c ****         uint8 i;
 367:Generated_Source\PSoC5/Segments.c ****     #endif /* (Segments_BRIGHTNESS_EN == Segments_ENABLED) */
 368:Generated_Source\PSoC5/Segments.c ****     
 369:Generated_Source\PSoC5/Segments.c ****     /* Start fresh by clearing the display */
 370:Generated_Source\PSoC5/Segments.c ****     Segments_ClearDisplayAll();
 371:Generated_Source\PSoC5/Segments.c ****     
 372:Generated_Source\PSoC5/Segments.c ****     /* Initialize the DMAs */
 373:Generated_Source\PSoC5/Segments.c ****     if(0u == Segments_dmaInitDone)
 374:Generated_Source\PSoC5/Segments.c ****     {
 375:Generated_Source\PSoC5/Segments.c ****         Segments_DmaInit();
 376:Generated_Source\PSoC5/Segments.c ****         Segments_dmaInitDone = 1u;
 377:Generated_Source\PSoC5/Segments.c ****     }
 378:Generated_Source\PSoC5/Segments.c ****     
 379:Generated_Source\PSoC5/Segments.c ****     /* Set the brightness to full */
 380:Generated_Source\PSoC5/Segments.c ****     #if (Segments_BRIGHTNESS_EN == Segments_ENABLED)
 381:Generated_Source\PSoC5/Segments.c ****         for(i = 0u; i<(Segments_NUM_COM); i++)
 382:Generated_Source\PSoC5/Segments.c ****         {
 383:Generated_Source\PSoC5/Segments.c ****             Segments_brightnessReg[i] = Segments_INIT_BRIGHT;
 384:Generated_Source\PSoC5/Segments.c ****         }
 385:Generated_Source\PSoC5/Segments.c ****     #endif /* (Segments_BRIGHTNESS_EN == Segments_ENABLED) */
 386:Generated_Source\PSoC5/Segments.c **** }
 387:Generated_Source\PSoC5/Segments.c **** 
 388:Generated_Source\PSoC5/Segments.c **** 
 389:Generated_Source\PSoC5/Segments.c **** /*******************************************************************************
 390:Generated_Source\PSoC5/Segments.c **** * Function Name: Segments_Enable
 391:Generated_Source\PSoC5/Segments.c **** ********************************************************************************
 392:Generated_Source\PSoC5/Segments.c **** *
 393:Generated_Source\PSoC5/Segments.c **** * Summary: 
 394:Generated_Source\PSoC5/Segments.c **** *  Turns on the display.
 395:Generated_Source\PSoC5/Segments.c **** *
ARM GAS  C:\Users\Esteban\AppData\Local\Temp\ccHxlO6N.s 			page 16


 396:Generated_Source\PSoC5/Segments.c **** * Parameters:
 397:Generated_Source\PSoC5/Segments.c **** *  None
 398:Generated_Source\PSoC5/Segments.c **** *
 399:Generated_Source\PSoC5/Segments.c **** * Return: 
 400:Generated_Source\PSoC5/Segments.c **** *  None
 401:Generated_Source\PSoC5/Segments.c **** *
 402:Generated_Source\PSoC5/Segments.c **** * Side Effects: 
 403:Generated_Source\PSoC5/Segments.c **** *  None
 404:Generated_Source\PSoC5/Segments.c **** *
 405:Generated_Source\PSoC5/Segments.c **** *******************************************************************************/
 406:Generated_Source\PSoC5/Segments.c **** void Segments_Enable(void) 
 407:Generated_Source\PSoC5/Segments.c **** {
 443              		.loc 1 407 0
 444              		.cfi_startproc
 445              		@ args = 0, pretend = 0, frame = 0
 446              		@ frame_needed = 0, uses_anonymous_args = 0
 447 0000 08B5     		push	{r3, lr}
 448              		.cfi_def_cfa_offset 8
 449              		.cfi_offset 3, -8
 450              		.cfi_offset 14, -4
 408:Generated_Source\PSoC5/Segments.c ****     /* Enable the DMAs */
 409:Generated_Source\PSoC5/Segments.c ****     Segments_DmaEnable();
 451              		.loc 1 409 0
 452 0002 FFF7FEFF 		bl	Segments_DmaEnable
 453              	.LVL57:
 410:Generated_Source\PSoC5/Segments.c ****  
 411:Generated_Source\PSoC5/Segments.c ****     #if (Segments_BRIGHTNESS_EN == Segments_ENABLED)
 412:Generated_Source\PSoC5/Segments.c ****        /* Initialize to zero */
 413:Generated_Source\PSoC5/Segments.c ****        Segments_COUNTER_REG = 0x00u;
 454              		.loc 1 413 0
 455 0006 0023     		movs	r3, #0
 456 0008 044A     		ldr	r2, .L38
 457 000a 1370     		strb	r3, [r2]
 414:Generated_Source\PSoC5/Segments.c ****        Segments_COMPARE_REG = 0x00u;
 458              		.loc 1 414 0
 459 000c 1032     		adds	r2, r2, #16
 460 000e 1370     		strb	r3, [r2]
 415:Generated_Source\PSoC5/Segments.c ****        
 416:Generated_Source\PSoC5/Segments.c ****         /* Enable the PWM for brightness control */
 417:Generated_Source\PSoC5/Segments.c ****        Segments_CONTROL_REG = Segments_CTRL_ENABLE;
 461              		.loc 1 417 0
 462 0010 0123     		movs	r3, #1
 463 0012 5032     		adds	r2, r2, #80
 464 0014 1370     		strb	r3, [r2]
 418:Generated_Source\PSoC5/Segments.c ****     #endif /* (Segments_BRIGHTNESS_EN == Segments_ENABLED) */
 419:Generated_Source\PSoC5/Segments.c ****     
 420:Generated_Source\PSoC5/Segments.c ****     Segments_enableVar = Segments_CTRL_ENABLE;
 465              		.loc 1 420 0
 466 0016 024A     		ldr	r2, .L38+4
 467 0018 1377     		strb	r3, [r2, #28]
 468 001a 08BD     		pop	{r3, pc}
 469              	.L39:
 470              		.align	2
 471              	.L38:
 472 001c 14650040 		.word	1073767700
 473 0020 00000000 		.word	.LANCHOR0
 474              		.cfi_endproc
ARM GAS  C:\Users\Esteban\AppData\Local\Temp\ccHxlO6N.s 			page 17


 475              	.LFE4:
 476              		.size	Segments_Enable, .-Segments_Enable
 477              		.section	.text.Segments_SetDisplayRAM,"ax",%progbits
 478              		.align	2
 479              		.global	Segments_SetDisplayRAM
 480              		.thumb
 481              		.thumb_func
 482              		.type	Segments_SetDisplayRAM, %function
 483              	Segments_SetDisplayRAM:
 484              	.LFB7:
 421:Generated_Source\PSoC5/Segments.c **** }
 422:Generated_Source\PSoC5/Segments.c **** 
 423:Generated_Source\PSoC5/Segments.c **** 
 424:Generated_Source\PSoC5/Segments.c **** /*******************************************************************************
 425:Generated_Source\PSoC5/Segments.c **** * Function Name: Segments_Start
 426:Generated_Source\PSoC5/Segments.c **** ********************************************************************************
 427:Generated_Source\PSoC5/Segments.c **** *
 428:Generated_Source\PSoC5/Segments.c **** * Summary:
 429:Generated_Source\PSoC5/Segments.c **** *  Configures the hardware (DMA and optional PWM) and enables the LED
 430:Generated_Source\PSoC5/Segments.c **** *  display. Whatever is currently in the display RAM will be displayed on the 
 431:Generated_Source\PSoC5/Segments.c **** *  LED display. The display RAM is an array of 1 to 24 bytes called 
 432:Generated_Source\PSoC5/Segments.c **** *  LED_Driver_1_SegmentRam[].
 433:Generated_Source\PSoC5/Segments.c **** *
 434:Generated_Source\PSoC5/Segments.c **** * Parameters:
 435:Generated_Source\PSoC5/Segments.c **** *  None
 436:Generated_Source\PSoC5/Segments.c **** *
 437:Generated_Source\PSoC5/Segments.c **** * Return:
 438:Generated_Source\PSoC5/Segments.c **** *  None
 439:Generated_Source\PSoC5/Segments.c **** *
 440:Generated_Source\PSoC5/Segments.c **** * Side effects: 
 441:Generated_Source\PSoC5/Segments.c **** *  None
 442:Generated_Source\PSoC5/Segments.c **** *
 443:Generated_Source\PSoC5/Segments.c **** *******************************************************************************/
 444:Generated_Source\PSoC5/Segments.c **** void Segments_Start(void) 
 445:Generated_Source\PSoC5/Segments.c **** {
 446:Generated_Source\PSoC5/Segments.c ****     if(0u == Segments_initVar)
 447:Generated_Source\PSoC5/Segments.c ****     {
 448:Generated_Source\PSoC5/Segments.c ****         Segments_Init();
 449:Generated_Source\PSoC5/Segments.c ****         Segments_initVar = 1u;
 450:Generated_Source\PSoC5/Segments.c ****     }
 451:Generated_Source\PSoC5/Segments.c **** 
 452:Generated_Source\PSoC5/Segments.c ****     Segments_Enable();
 453:Generated_Source\PSoC5/Segments.c **** }
 454:Generated_Source\PSoC5/Segments.c **** 
 455:Generated_Source\PSoC5/Segments.c **** 
 456:Generated_Source\PSoC5/Segments.c **** /*******************************************************************************
 457:Generated_Source\PSoC5/Segments.c **** * Function Name: Segments_Stop
 458:Generated_Source\PSoC5/Segments.c **** ********************************************************************************
 459:Generated_Source\PSoC5/Segments.c **** *
 460:Generated_Source\PSoC5/Segments.c **** * Summary:
 461:Generated_Source\PSoC5/Segments.c **** *  Clears the display SRAM, disables all DMA channels and the stops the PWM
 462:Generated_Source\PSoC5/Segments.c **** *  (if enabled in the customizer).
 463:Generated_Source\PSoC5/Segments.c **** *
 464:Generated_Source\PSoC5/Segments.c **** * Parameters:
 465:Generated_Source\PSoC5/Segments.c **** *  None
 466:Generated_Source\PSoC5/Segments.c **** *
 467:Generated_Source\PSoC5/Segments.c **** * Return:
ARM GAS  C:\Users\Esteban\AppData\Local\Temp\ccHxlO6N.s 			page 18


 468:Generated_Source\PSoC5/Segments.c **** *  None
 469:Generated_Source\PSoC5/Segments.c **** *
 470:Generated_Source\PSoC5/Segments.c **** * Side effects:
 471:Generated_Source\PSoC5/Segments.c **** *  None
 472:Generated_Source\PSoC5/Segments.c **** *
 473:Generated_Source\PSoC5/Segments.c **** *******************************************************************************/
 474:Generated_Source\PSoC5/Segments.c **** void Segments_Stop(void) 
 475:Generated_Source\PSoC5/Segments.c **** {
 476:Generated_Source\PSoC5/Segments.c ****     #if (Segments_BRIGHTNESS_EN == Segments_ENABLED)
 477:Generated_Source\PSoC5/Segments.c ****         /* Disable the PWM */
 478:Generated_Source\PSoC5/Segments.c ****         Segments_CONTROL_REG = Segments_CTRL_DISABLE;
 479:Generated_Source\PSoC5/Segments.c ****     #endif /* (Segments_BRIGHTNESS_EN == Segments_ENABLED) */
 480:Generated_Source\PSoC5/Segments.c ****     
 481:Generated_Source\PSoC5/Segments.c ****     Segments_DmaDisable();
 482:Generated_Source\PSoC5/Segments.c ****     Segments_ClearDisplayAll();
 483:Generated_Source\PSoC5/Segments.c ****     
 484:Generated_Source\PSoC5/Segments.c ****     Segments_enableVar  = Segments_CTRL_DISABLE;
 485:Generated_Source\PSoC5/Segments.c **** }
 486:Generated_Source\PSoC5/Segments.c **** 
 487:Generated_Source\PSoC5/Segments.c **** 
 488:Generated_Source\PSoC5/Segments.c **** /*******************************************************************************
 489:Generated_Source\PSoC5/Segments.c **** * Function Name: Segments_SetDisplayRAM
 490:Generated_Source\PSoC5/Segments.c **** ********************************************************************************
 491:Generated_Source\PSoC5/Segments.c **** *
 492:Generated_Source\PSoC5/Segments.c **** * Summary:
 493:Generated_Source\PSoC5/Segments.c **** *  Writes 'value' directly into the display RAM. It is not necessary to use 
 494:Generated_Source\PSoC5/Segments.c **** *  this API to manipulate the display RAM, you can also access the display 
 495:Generated_Source\PSoC5/Segments.c **** *  RAM directly by writing to Segments_segLBuffer,
 496:Generated_Source\PSoC5/Segments.c **** *  Segments_segMBuffer, Segments_segHBuffer.
 497:Generated_Source\PSoC5/Segments.c **** *
 498:Generated_Source\PSoC5/Segments.c **** * Parameters:
 499:Generated_Source\PSoC5/Segments.c **** *  uint8 value: Desired value to write into the display RAM. A '1' enables the
 500:Generated_Source\PSoC5/Segments.c **** *               segment, a '0' disables the segment.
 501:Generated_Source\PSoC5/Segments.c **** *  uint8 position: Position of the display that is modified.
 502:Generated_Source\PSoC5/Segments.c **** *
 503:Generated_Source\PSoC5/Segments.c **** * Return:
 504:Generated_Source\PSoC5/Segments.c **** *  None
 505:Generated_Source\PSoC5/Segments.c **** *
 506:Generated_Source\PSoC5/Segments.c **** * Side effects:
 507:Generated_Source\PSoC5/Segments.c **** *  None
 508:Generated_Source\PSoC5/Segments.c **** *
 509:Generated_Source\PSoC5/Segments.c **** *******************************************************************************/
 510:Generated_Source\PSoC5/Segments.c **** void Segments_SetDisplayRAM(uint8 value, uint8 position) 
 511:Generated_Source\PSoC5/Segments.c **** {
 485              		.loc 1 511 0
 486              		.cfi_startproc
 487              		@ args = 0, pretend = 0, frame = 0
 488              		@ frame_needed = 0, uses_anonymous_args = 0
 489              		@ link register save eliminated.
 490              	.LVL58:
 512:Generated_Source\PSoC5/Segments.c ****     uint8 relPosition;
 513:Generated_Source\PSoC5/Segments.c ****     
 514:Generated_Source\PSoC5/Segments.c ****     if(position < Segments_NUM_COM)
 491              		.loc 1 514 0
 492 0000 0329     		cmp	r1, #3
 493 0002 01D8     		bhi	.L40
 494              	.LVL59:
ARM GAS  C:\Users\Esteban\AppData\Local\Temp\ccHxlO6N.s 			page 19


 515:Generated_Source\PSoC5/Segments.c ****     {
 516:Generated_Source\PSoC5/Segments.c ****         relPosition = position;
 517:Generated_Source\PSoC5/Segments.c ****         #if(Segments_SEG_DRIVE == Segments_HIGH)
 518:Generated_Source\PSoC5/Segments.c ****             Segments_segLBuffer[relPosition] = value;
 495              		.loc 1 518 0
 496 0004 014B     		ldr	r3, .L42
 497 0006 5854     		strb	r0, [r3, r1]
 498              	.LVL60:
 499              	.L40:
 500 0008 7047     		bx	lr
 501              	.L43:
 502 000a 00BF     		.align	2
 503              	.L42:
 504 000c 00000000 		.word	Segments_segLBuffer
 505              		.cfi_endproc
 506              	.LFE7:
 507              		.size	Segments_SetDisplayRAM, .-Segments_SetDisplayRAM
 508              		.section	.text.Segments_SetRC,"ax",%progbits
 509              		.align	2
 510              		.global	Segments_SetRC
 511              		.thumb
 512              		.thumb_func
 513              		.type	Segments_SetRC, %function
 514              	Segments_SetRC:
 515              	.LFB8:
 519:Generated_Source\PSoC5/Segments.c ****         #else
 520:Generated_Source\PSoC5/Segments.c ****             Segments_segLBuffer[relPosition] = ((uint8) ~value);
 521:Generated_Source\PSoC5/Segments.c ****         #endif /* Segments_SEG_DRIVE == Segments_HIGH */
 522:Generated_Source\PSoC5/Segments.c ****     }    
 523:Generated_Source\PSoC5/Segments.c ****     else if (position < Segments_TWO_NUM_COM)
 524:Generated_Source\PSoC5/Segments.c ****     {
 525:Generated_Source\PSoC5/Segments.c ****         #if (Segments_NUM_SEG > 8u)
 526:Generated_Source\PSoC5/Segments.c ****             relPosition = position - Segments_NUM_COM;
 527:Generated_Source\PSoC5/Segments.c ****             #if(Segments_SEG_DRIVE == Segments_HIGH)
 528:Generated_Source\PSoC5/Segments.c ****                 Segments_segMBuffer[relPosition] = value;
 529:Generated_Source\PSoC5/Segments.c ****             #else
 530:Generated_Source\PSoC5/Segments.c ****                 Segments_segMBuffer[relPosition] = ((uint8) ~value);
 531:Generated_Source\PSoC5/Segments.c ****             #endif /* Segments_SEG_DRIVE == Segments_HIGH */
 532:Generated_Source\PSoC5/Segments.c ****         #endif /* (Segments_NUM_SEG > 8u) */
 533:Generated_Source\PSoC5/Segments.c ****     }
 534:Generated_Source\PSoC5/Segments.c ****     else
 535:Generated_Source\PSoC5/Segments.c ****     {
 536:Generated_Source\PSoC5/Segments.c ****         #if (Segments_NUM_SEG > 16u)
 537:Generated_Source\PSoC5/Segments.c ****             relPosition = position - Segments_TWO_NUM_COM;
 538:Generated_Source\PSoC5/Segments.c ****             if(relPosition < Segments_NUM_COM)
 539:Generated_Source\PSoC5/Segments.c ****             {
 540:Generated_Source\PSoC5/Segments.c ****                 #if(Segments_SEG_DRIVE == Segments_HIGH)
 541:Generated_Source\PSoC5/Segments.c ****                     Segments_segHBuffer[relPosition] = value;
 542:Generated_Source\PSoC5/Segments.c ****                 #else
 543:Generated_Source\PSoC5/Segments.c ****                     Segments_segMBuffer[relPosition] = ((uint8) ~value);
 544:Generated_Source\PSoC5/Segments.c ****                 #endif /* Segments_SEG_DRIVE == Segments_HIGH */
 545:Generated_Source\PSoC5/Segments.c ****             }
 546:Generated_Source\PSoC5/Segments.c ****         #endif /* (Segments_NUM_SEG > 16u) */
 547:Generated_Source\PSoC5/Segments.c ****     }
 548:Generated_Source\PSoC5/Segments.c **** }
 549:Generated_Source\PSoC5/Segments.c **** 
 550:Generated_Source\PSoC5/Segments.c **** 
ARM GAS  C:\Users\Esteban\AppData\Local\Temp\ccHxlO6N.s 			page 20


 551:Generated_Source\PSoC5/Segments.c **** /*******************************************************************************
 552:Generated_Source\PSoC5/Segments.c **** * Function Name: Segments_SetRC
 553:Generated_Source\PSoC5/Segments.c **** ********************************************************************************
 554:Generated_Source\PSoC5/Segments.c **** *
 555:Generated_Source\PSoC5/Segments.c **** * Summary:
 556:Generated_Source\PSoC5/Segments.c **** *  Sets the bit in the display RAM corresponding to the LED in the designated
 557:Generated_Source\PSoC5/Segments.c **** *  row and column. Rows are the segments and columns are the commons.
 558:Generated_Source\PSoC5/Segments.c **** *
 559:Generated_Source\PSoC5/Segments.c **** * Parameters:
 560:Generated_Source\PSoC5/Segments.c **** *  uint8 row: Row value 0 to 23.
 561:Generated_Source\PSoC5/Segments.c **** *  uint8 col: Column between 0 and 7.
 562:Generated_Source\PSoC5/Segments.c **** *
 563:Generated_Source\PSoC5/Segments.c **** * Return:
 564:Generated_Source\PSoC5/Segments.c **** *  None
 565:Generated_Source\PSoC5/Segments.c **** *
 566:Generated_Source\PSoC5/Segments.c **** * Side effects:
 567:Generated_Source\PSoC5/Segments.c **** *  None
 568:Generated_Source\PSoC5/Segments.c **** *
 569:Generated_Source\PSoC5/Segments.c **** *******************************************************************************/
 570:Generated_Source\PSoC5/Segments.c **** void Segments_SetRC(uint8 row, uint8 column) 
 571:Generated_Source\PSoC5/Segments.c **** {
 516              		.loc 1 571 0
 517              		.cfi_startproc
 518              		@ args = 0, pretend = 0, frame = 0
 519              		@ frame_needed = 0, uses_anonymous_args = 0
 520              		@ link register save eliminated.
 521              	.LVL61:
 572:Generated_Source\PSoC5/Segments.c ****     uint8 rowSeg;
 573:Generated_Source\PSoC5/Segments.c ****     
 574:Generated_Source\PSoC5/Segments.c ****     if(column < Segments_NUM_COM)
 522              		.loc 1 574 0
 523 0000 0329     		cmp	r1, #3
 524 0002 08D8     		bhi	.L44
 575:Generated_Source\PSoC5/Segments.c ****     {
 576:Generated_Source\PSoC5/Segments.c ****         if(row < 8u)
 525              		.loc 1 576 0
 526 0004 0728     		cmp	r0, #7
 527 0006 06D8     		bhi	.L44
 528              	.LVL62:
 577:Generated_Source\PSoC5/Segments.c ****         {
 578:Generated_Source\PSoC5/Segments.c ****             rowSeg = row;
 579:Generated_Source\PSoC5/Segments.c ****             #if(Segments_SEG_DRIVE == Segments_HIGH)
 580:Generated_Source\PSoC5/Segments.c ****                 Segments_segLBuffer[column] |= ((uint8)((uint8)0x01u << rowSeg));
 529              		.loc 1 580 0
 530 0008 0123     		movs	r3, #1
 531 000a 03FA00F0 		lsl	r0, r3, r0
 532              	.LVL63:
 533 000e 024B     		ldr	r3, .L46
 534 0010 5A5C     		ldrb	r2, [r3, r1]	@ zero_extendqisi2
 535 0012 1043     		orrs	r0, r0, r2
 536 0014 5854     		strb	r0, [r3, r1]
 537              	.LVL64:
 538              	.L44:
 539 0016 7047     		bx	lr
 540              	.L47:
 541              		.align	2
 542              	.L46:
ARM GAS  C:\Users\Esteban\AppData\Local\Temp\ccHxlO6N.s 			page 21


 543 0018 00000000 		.word	Segments_segLBuffer
 544              		.cfi_endproc
 545              	.LFE8:
 546              		.size	Segments_SetRC, .-Segments_SetRC
 547              		.section	.text.Segments_ClearRC,"ax",%progbits
 548              		.align	2
 549              		.global	Segments_ClearRC
 550              		.thumb
 551              		.thumb_func
 552              		.type	Segments_ClearRC, %function
 553              	Segments_ClearRC:
 554              	.LFB9:
 581:Generated_Source\PSoC5/Segments.c ****             #else
 582:Generated_Source\PSoC5/Segments.c ****                 Segments_segLBuffer[column] &= ((uint8)~((uint8)((uint8)0x01u << rowSeg)));
 583:Generated_Source\PSoC5/Segments.c ****             #endif /* Segments_SEG_DRIVE == Segments_HIGH */
 584:Generated_Source\PSoC5/Segments.c ****         }
 585:Generated_Source\PSoC5/Segments.c ****         else if (row < 16u)
 586:Generated_Source\PSoC5/Segments.c ****         {
 587:Generated_Source\PSoC5/Segments.c ****             #if (Segments_NUM_SEG > 8u) 
 588:Generated_Source\PSoC5/Segments.c ****                 rowSeg = row - 8u;
 589:Generated_Source\PSoC5/Segments.c ****                 #if(Segments_SEG_DRIVE == Segments_HIGH)
 590:Generated_Source\PSoC5/Segments.c ****                     Segments_segMBuffer[column] |= ((uint8)((uint8)0x01u << rowSeg));
 591:Generated_Source\PSoC5/Segments.c ****                 #else
 592:Generated_Source\PSoC5/Segments.c ****                     Segments_segMBuffer[column] &= ((uint8)~((uint8)((uint8)0x01u << rowSeg)));
 593:Generated_Source\PSoC5/Segments.c ****                 #endif /* Segments_SEG_DRIVE == Segments_HIGH */
 594:Generated_Source\PSoC5/Segments.c ****             #endif /* (Segments_NUM_SEG > 8u) */
 595:Generated_Source\PSoC5/Segments.c ****         }
 596:Generated_Source\PSoC5/Segments.c ****         else
 597:Generated_Source\PSoC5/Segments.c ****         {
 598:Generated_Source\PSoC5/Segments.c ****             #if (Segments_NUM_SEG > 16u)
 599:Generated_Source\PSoC5/Segments.c ****                 rowSeg = row - 16u;
 600:Generated_Source\PSoC5/Segments.c ****                 #if(Segments_SEG_DRIVE == Segments_HIGH)
 601:Generated_Source\PSoC5/Segments.c ****                     Segments_segHBuffer[column] |= ((uint8)((uint8)0x01u << rowSeg));
 602:Generated_Source\PSoC5/Segments.c ****                 #else
 603:Generated_Source\PSoC5/Segments.c ****                     Segments_segHBuffer[column] &= ((uint8)~((uint8)((uint8)0x01u << rowSeg)));
 604:Generated_Source\PSoC5/Segments.c ****                 #endif /* Segments_SEG_DRIVE == Segments_HIGH */
 605:Generated_Source\PSoC5/Segments.c ****             #endif /* (Segments_NUM_SEG > 16u) */
 606:Generated_Source\PSoC5/Segments.c ****         }
 607:Generated_Source\PSoC5/Segments.c ****     }
 608:Generated_Source\PSoC5/Segments.c **** }
 609:Generated_Source\PSoC5/Segments.c **** 
 610:Generated_Source\PSoC5/Segments.c **** 
 611:Generated_Source\PSoC5/Segments.c **** /*******************************************************************************
 612:Generated_Source\PSoC5/Segments.c **** * Function Name: Segments_ClearRC
 613:Generated_Source\PSoC5/Segments.c **** ********************************************************************************
 614:Generated_Source\PSoC5/Segments.c **** *
 615:Generated_Source\PSoC5/Segments.c **** * Summary:
 616:Generated_Source\PSoC5/Segments.c **** *  Clears the bit in the display RAM corresponding to the LED in the designated
 617:Generated_Source\PSoC5/Segments.c **** *  row and column.
 618:Generated_Source\PSoC5/Segments.c **** *
 619:Generated_Source\PSoC5/Segments.c **** * Parameters:
 620:Generated_Source\PSoC5/Segments.c **** *  uint8 row: Row value 0 to 23.
 621:Generated_Source\PSoC5/Segments.c **** *  uint8 col: Column between 0 and 7.
 622:Generated_Source\PSoC5/Segments.c **** *
 623:Generated_Source\PSoC5/Segments.c **** * Return:
 624:Generated_Source\PSoC5/Segments.c **** *  None
 625:Generated_Source\PSoC5/Segments.c **** *
ARM GAS  C:\Users\Esteban\AppData\Local\Temp\ccHxlO6N.s 			page 22


 626:Generated_Source\PSoC5/Segments.c **** * Side effects:
 627:Generated_Source\PSoC5/Segments.c **** *  None
 628:Generated_Source\PSoC5/Segments.c **** *
 629:Generated_Source\PSoC5/Segments.c **** *******************************************************************************/
 630:Generated_Source\PSoC5/Segments.c **** void Segments_ClearRC(uint8 row, uint8 column) 
 631:Generated_Source\PSoC5/Segments.c **** {
 555              		.loc 1 631 0
 556              		.cfi_startproc
 557              		@ args = 0, pretend = 0, frame = 0
 558              		@ frame_needed = 0, uses_anonymous_args = 0
 559              		@ link register save eliminated.
 560              	.LVL65:
 632:Generated_Source\PSoC5/Segments.c ****     uint8 rowSeg;
 633:Generated_Source\PSoC5/Segments.c ****     uint8 rowSelect;
 634:Generated_Source\PSoC5/Segments.c ****     
 635:Generated_Source\PSoC5/Segments.c ****     if(column < Segments_NUM_COM)
 561              		.loc 1 635 0
 562 0000 0329     		cmp	r1, #3
 563 0002 0AD8     		bhi	.L48
 636:Generated_Source\PSoC5/Segments.c ****     {
 637:Generated_Source\PSoC5/Segments.c ****         if(row < 8u)
 564              		.loc 1 637 0
 565 0004 0728     		cmp	r0, #7
 566 0006 08D8     		bhi	.L48
 567              	.LVL66:
 638:Generated_Source\PSoC5/Segments.c ****         {
 639:Generated_Source\PSoC5/Segments.c ****             rowSeg = row;
 640:Generated_Source\PSoC5/Segments.c ****             rowSelect = ((uint8)((uint8)0x01u << rowSeg));
 568              		.loc 1 640 0
 569 0008 0123     		movs	r3, #1
 570 000a 03FA00F0 		lsl	r0, r3, r0
 571              	.LVL67:
 572 000e C0B2     		uxtb	r0, r0
 573              	.LVL68:
 641:Generated_Source\PSoC5/Segments.c ****             #if(Segments_SEG_DRIVE == Segments_HIGH)
 642:Generated_Source\PSoC5/Segments.c ****                 Segments_segLBuffer[column] &= ((uint8)(~(uint8)rowSelect));
 574              		.loc 1 642 0
 575 0010 024A     		ldr	r2, .L50
 576 0012 535C     		ldrb	r3, [r2, r1]	@ zero_extendqisi2
 577 0014 23EA0000 		bic	r0, r3, r0
 578              	.LVL69:
 579 0018 5054     		strb	r0, [r2, r1]
 580              	.LVL70:
 581              	.L48:
 582 001a 7047     		bx	lr
 583              	.L51:
 584              		.align	2
 585              	.L50:
 586 001c 00000000 		.word	Segments_segLBuffer
 587              		.cfi_endproc
 588              	.LFE9:
 589              		.size	Segments_ClearRC, .-Segments_ClearRC
 590              		.section	.text.Segments_ToggleRC,"ax",%progbits
 591              		.align	2
 592              		.global	Segments_ToggleRC
 593              		.thumb
 594              		.thumb_func
ARM GAS  C:\Users\Esteban\AppData\Local\Temp\ccHxlO6N.s 			page 23


 595              		.type	Segments_ToggleRC, %function
 596              	Segments_ToggleRC:
 597              	.LFB10:
 643:Generated_Source\PSoC5/Segments.c ****             #else
 644:Generated_Source\PSoC5/Segments.c ****                 Segments_segLBuffer[column] |= rowSelect;
 645:Generated_Source\PSoC5/Segments.c ****             #endif /* Segments_SEG_DRIVE == Segments_HIGH */
 646:Generated_Source\PSoC5/Segments.c ****         }    
 647:Generated_Source\PSoC5/Segments.c ****         else if (row < 16u)
 648:Generated_Source\PSoC5/Segments.c ****         {
 649:Generated_Source\PSoC5/Segments.c ****             #if (Segments_NUM_SEG > 8u) 
 650:Generated_Source\PSoC5/Segments.c ****                 rowSeg = row - 8u;
 651:Generated_Source\PSoC5/Segments.c ****                 rowSelect = ((uint8)((uint8)0x01u << rowSeg));
 652:Generated_Source\PSoC5/Segments.c ****                 #if(Segments_SEG_DRIVE == Segments_HIGH)
 653:Generated_Source\PSoC5/Segments.c ****                     Segments_segMBuffer[column] &= ((uint8)(~(uint8)rowSelect));
 654:Generated_Source\PSoC5/Segments.c ****                 #else
 655:Generated_Source\PSoC5/Segments.c ****                     Segments_segMBuffer[column] |= rowSelect;
 656:Generated_Source\PSoC5/Segments.c ****                 #endif /* Segments_SEG_DRIVE == Segments_HIGH */
 657:Generated_Source\PSoC5/Segments.c ****             #endif /* (Segments_NUM_SEG > 8u) */
 658:Generated_Source\PSoC5/Segments.c ****         }
 659:Generated_Source\PSoC5/Segments.c ****         else
 660:Generated_Source\PSoC5/Segments.c ****         {
 661:Generated_Source\PSoC5/Segments.c ****             #if (Segments_NUM_SEG > 16u)
 662:Generated_Source\PSoC5/Segments.c ****                 rowSeg = row - 16u;
 663:Generated_Source\PSoC5/Segments.c ****                 rowSelect = ((uint8)((uint8)0x01u << rowSeg));
 664:Generated_Source\PSoC5/Segments.c ****                 #if(Segments_SEG_DRIVE == Segments_HIGH)
 665:Generated_Source\PSoC5/Segments.c ****                     Segments_segHBuffer[column] &= ((uint8)(~(uint8)rowSelect));
 666:Generated_Source\PSoC5/Segments.c ****                 #else
 667:Generated_Source\PSoC5/Segments.c ****                     Segments_segHBuffer[column] |= rowSelect;
 668:Generated_Source\PSoC5/Segments.c ****                 #endif /* Segments_SEG_DRIVE == Segments_HIGH */
 669:Generated_Source\PSoC5/Segments.c ****             #endif /* (Segments_NUM_SEG > 16u) */
 670:Generated_Source\PSoC5/Segments.c ****         }
 671:Generated_Source\PSoC5/Segments.c ****     }
 672:Generated_Source\PSoC5/Segments.c **** }
 673:Generated_Source\PSoC5/Segments.c **** 
 674:Generated_Source\PSoC5/Segments.c **** 
 675:Generated_Source\PSoC5/Segments.c **** /*******************************************************************************
 676:Generated_Source\PSoC5/Segments.c **** * Function Name: Segments_ToggleRC
 677:Generated_Source\PSoC5/Segments.c **** ********************************************************************************
 678:Generated_Source\PSoC5/Segments.c **** *
 679:Generated_Source\PSoC5/Segments.c **** * Summary:
 680:Generated_Source\PSoC5/Segments.c **** *  Toggles the bit in the display RAM corresponding to the LED in the designated
 681:Generated_Source\PSoC5/Segments.c **** *  row and column.
 682:Generated_Source\PSoC5/Segments.c **** *
 683:Generated_Source\PSoC5/Segments.c **** * Parameters:
 684:Generated_Source\PSoC5/Segments.c **** *  uint8 row: Row value 0 to 23.
 685:Generated_Source\PSoC5/Segments.c **** *  uint8 col: Column between 0 and 7.
 686:Generated_Source\PSoC5/Segments.c **** *
 687:Generated_Source\PSoC5/Segments.c **** * Return:
 688:Generated_Source\PSoC5/Segments.c **** *  None
 689:Generated_Source\PSoC5/Segments.c **** *
 690:Generated_Source\PSoC5/Segments.c **** * Side effects:
 691:Generated_Source\PSoC5/Segments.c **** *  None
 692:Generated_Source\PSoC5/Segments.c **** *
 693:Generated_Source\PSoC5/Segments.c **** *******************************************************************************/
 694:Generated_Source\PSoC5/Segments.c **** void Segments_ToggleRC(uint8 row, uint8 column) 
 695:Generated_Source\PSoC5/Segments.c **** {
 598              		.loc 1 695 0
ARM GAS  C:\Users\Esteban\AppData\Local\Temp\ccHxlO6N.s 			page 24


 599              		.cfi_startproc
 600              		@ args = 0, pretend = 0, frame = 0
 601              		@ frame_needed = 0, uses_anonymous_args = 0
 602              		@ link register save eliminated.
 603              	.LVL71:
 696:Generated_Source\PSoC5/Segments.c ****     uint8 rowSeg;
 697:Generated_Source\PSoC5/Segments.c ****     
 698:Generated_Source\PSoC5/Segments.c ****     if(column < Segments_NUM_COM)
 604              		.loc 1 698 0
 605 0000 0329     		cmp	r1, #3
 606 0002 08D8     		bhi	.L52
 699:Generated_Source\PSoC5/Segments.c ****     {
 700:Generated_Source\PSoC5/Segments.c ****         if(row < 8u)
 607              		.loc 1 700 0
 608 0004 0728     		cmp	r0, #7
 609 0006 06D8     		bhi	.L52
 610              	.LVL72:
 701:Generated_Source\PSoC5/Segments.c ****         {
 702:Generated_Source\PSoC5/Segments.c ****             rowSeg = row;
 703:Generated_Source\PSoC5/Segments.c ****             Segments_segLBuffer[column] ^= ((uint8)((uint8)0x01u << rowSeg));
 611              		.loc 1 703 0
 612 0008 0123     		movs	r3, #1
 613 000a 03FA00F0 		lsl	r0, r3, r0
 614              	.LVL73:
 615 000e 024B     		ldr	r3, .L54
 616 0010 5A5C     		ldrb	r2, [r3, r1]	@ zero_extendqisi2
 617 0012 5040     		eors	r0, r0, r2
 618 0014 5854     		strb	r0, [r3, r1]
 619              	.LVL74:
 620              	.L52:
 621 0016 7047     		bx	lr
 622              	.L55:
 623              		.align	2
 624              	.L54:
 625 0018 00000000 		.word	Segments_segLBuffer
 626              		.cfi_endproc
 627              	.LFE10:
 628              		.size	Segments_ToggleRC, .-Segments_ToggleRC
 629              		.section	.text.Segments_GetRC,"ax",%progbits
 630              		.align	2
 631              		.global	Segments_GetRC
 632              		.thumb
 633              		.thumb_func
 634              		.type	Segments_GetRC, %function
 635              	Segments_GetRC:
 636              	.LFB11:
 704:Generated_Source\PSoC5/Segments.c ****         }    
 705:Generated_Source\PSoC5/Segments.c ****         else if (row < 16u)
 706:Generated_Source\PSoC5/Segments.c ****         {
 707:Generated_Source\PSoC5/Segments.c ****             #if (Segments_NUM_SEG > 8u)
 708:Generated_Source\PSoC5/Segments.c ****                 rowSeg = row - 8u;
 709:Generated_Source\PSoC5/Segments.c ****                 Segments_segMBuffer[column] ^= ((uint8)((uint8)0x01u << rowSeg));
 710:Generated_Source\PSoC5/Segments.c ****             #endif /* (Segments_NUM_SEG > 8u) */
 711:Generated_Source\PSoC5/Segments.c ****         } 
 712:Generated_Source\PSoC5/Segments.c ****         else
 713:Generated_Source\PSoC5/Segments.c ****         {
 714:Generated_Source\PSoC5/Segments.c ****             #if (Segments_NUM_SEG > 16u)
ARM GAS  C:\Users\Esteban\AppData\Local\Temp\ccHxlO6N.s 			page 25


 715:Generated_Source\PSoC5/Segments.c ****                 rowSeg = row - 16u;
 716:Generated_Source\PSoC5/Segments.c ****                 Segments_segHBuffer[column] ^= ((uint8)((uint8)0x01u << rowSeg));
 717:Generated_Source\PSoC5/Segments.c ****             #endif /* (Segments_NUM_SEG > 16u) */
 718:Generated_Source\PSoC5/Segments.c ****         }
 719:Generated_Source\PSoC5/Segments.c ****     }
 720:Generated_Source\PSoC5/Segments.c **** }
 721:Generated_Source\PSoC5/Segments.c **** 
 722:Generated_Source\PSoC5/Segments.c **** 
 723:Generated_Source\PSoC5/Segments.c **** /*******************************************************************************
 724:Generated_Source\PSoC5/Segments.c **** * Function Name: Segments_GetRC
 725:Generated_Source\PSoC5/Segments.c **** ********************************************************************************
 726:Generated_Source\PSoC5/Segments.c **** *
 727:Generated_Source\PSoC5/Segments.c **** * Summary:
 728:Generated_Source\PSoC5/Segments.c **** *  Returns the bit value in the display RAM corresponding to the LED in the
 729:Generated_Source\PSoC5/Segments.c **** *  designated row and column.
 730:Generated_Source\PSoC5/Segments.c **** *
 731:Generated_Source\PSoC5/Segments.c **** * Parameters:
 732:Generated_Source\PSoC5/Segments.c **** *  uint8 row: Row value 0 to 23.
 733:Generated_Source\PSoC5/Segments.c **** *  uint8 col: Column between 0 and 7.
 734:Generated_Source\PSoC5/Segments.c **** *
 735:Generated_Source\PSoC5/Segments.c **** * Return:
 736:Generated_Source\PSoC5/Segments.c **** *  uint8 - bit value of the display RAM at the corresponding row and column. 
 737:Generated_Source\PSoC5/Segments.c **** *
 738:Generated_Source\PSoC5/Segments.c **** * Side effects:
 739:Generated_Source\PSoC5/Segments.c **** *  None
 740:Generated_Source\PSoC5/Segments.c **** *
 741:Generated_Source\PSoC5/Segments.c **** *******************************************************************************/
 742:Generated_Source\PSoC5/Segments.c **** uint8 Segments_GetRC(uint8 row, uint8 column) 
 743:Generated_Source\PSoC5/Segments.c **** {
 637              		.loc 1 743 0
 638              		.cfi_startproc
 639              		@ args = 0, pretend = 0, frame = 0
 640              		@ frame_needed = 0, uses_anonymous_args = 0
 641              		@ link register save eliminated.
 642              	.LVL75:
 744:Generated_Source\PSoC5/Segments.c ****     uint8 valueRC = 0u;
 745:Generated_Source\PSoC5/Segments.c ****     uint8 rowSeg;
 746:Generated_Source\PSoC5/Segments.c ****     uint8 rowSegSelect = 0u;
 747:Generated_Source\PSoC5/Segments.c ****     
 748:Generated_Source\PSoC5/Segments.c ****     if(column < Segments_NUM_COM)
 643              		.loc 1 748 0
 644 0000 0329     		cmp	r1, #3
 645 0002 0BD8     		bhi	.L59
 749:Generated_Source\PSoC5/Segments.c ****     {
 750:Generated_Source\PSoC5/Segments.c ****         if(row < 8u)
 646              		.loc 1 750 0
 647 0004 0728     		cmp	r0, #7
 648 0006 05D8     		bhi	.L60
 649              	.LVL76:
 751:Generated_Source\PSoC5/Segments.c ****         {
 752:Generated_Source\PSoC5/Segments.c ****             rowSeg = row;
 753:Generated_Source\PSoC5/Segments.c ****             rowSegSelect = (uint8)((uint8)Segments_segLBuffer[column] >> rowSeg);
 650              		.loc 1 753 0
 651 0008 054B     		ldr	r3, .L61
 652 000a 5B5C     		ldrb	r3, [r3, r1]	@ zero_extendqisi2
 653 000c 43FA00F0 		asr	r0, r3, r0
 654              	.LVL77:
ARM GAS  C:\Users\Esteban\AppData\Local\Temp\ccHxlO6N.s 			page 26


 655 0010 C0B2     		uxtb	r0, r0
 656              	.LVL78:
 657 0012 00E0     		b	.L58
 658              	.LVL79:
 659              	.L60:
 746:Generated_Source\PSoC5/Segments.c ****     
 660              		.loc 1 746 0
 661 0014 0020     		movs	r0, #0
 662              	.LVL80:
 663              	.L58:
 754:Generated_Source\PSoC5/Segments.c ****         }    
 755:Generated_Source\PSoC5/Segments.c ****         else if (row < 16u)
 756:Generated_Source\PSoC5/Segments.c ****         {
 757:Generated_Source\PSoC5/Segments.c ****             #if (Segments_NUM_SEG > 8u) 
 758:Generated_Source\PSoC5/Segments.c ****                 rowSeg = row - 8u;
 759:Generated_Source\PSoC5/Segments.c ****                 rowSegSelect = (uint8)((uint8)Segments_segMBuffer[column] >> rowSeg);
 760:Generated_Source\PSoC5/Segments.c ****             #endif /* (Segments_NUM_SEG > 8u) */
 761:Generated_Source\PSoC5/Segments.c ****         }
 762:Generated_Source\PSoC5/Segments.c ****         else
 763:Generated_Source\PSoC5/Segments.c ****         {
 764:Generated_Source\PSoC5/Segments.c ****             #if (Segments_NUM_SEG > 16u)
 765:Generated_Source\PSoC5/Segments.c ****                 rowSeg = row - 16u;
 766:Generated_Source\PSoC5/Segments.c ****                 rowSegSelect = (uint8)((uint8)Segments_segHBuffer[column] >> rowSeg);
 767:Generated_Source\PSoC5/Segments.c ****             #endif /* (Segments_NUM_SEG > 16u) */
 768:Generated_Source\PSoC5/Segments.c ****         }
 769:Generated_Source\PSoC5/Segments.c ****         
 770:Generated_Source\PSoC5/Segments.c ****         #if(Segments_SEG_DRIVE == Segments_HIGH)
 771:Generated_Source\PSoC5/Segments.c ****             valueRC = (uint8)((uint8)rowSegSelect & 0x01u);
 664              		.loc 1 771 0
 665 0016 00F00100 		and	r0, r0, #1
 666              	.LVL81:
 667 001a 7047     		bx	lr
 668              	.LVL82:
 669              	.L59:
 744:Generated_Source\PSoC5/Segments.c ****     uint8 rowSeg;
 670              		.loc 1 744 0
 671 001c 0020     		movs	r0, #0
 672              	.LVL83:
 772:Generated_Source\PSoC5/Segments.c ****         #else
 773:Generated_Source\PSoC5/Segments.c ****             valueRC = (uint8)((uint8)((uint8)~rowSegSelect) & 0x01u);
 774:Generated_Source\PSoC5/Segments.c ****         #endif /* Segments_SEG_DRIVE == Segments_HIGH */
 775:Generated_Source\PSoC5/Segments.c ****     }
 776:Generated_Source\PSoC5/Segments.c ****     
 777:Generated_Source\PSoC5/Segments.c ****     return(valueRC);
 778:Generated_Source\PSoC5/Segments.c **** }
 673              		.loc 1 778 0
 674 001e 7047     		bx	lr
 675              	.L62:
 676              		.align	2
 677              	.L61:
 678 0020 00000000 		.word	Segments_segLBuffer
 679              		.cfi_endproc
 680              	.LFE11:
 681              		.size	Segments_GetRC, .-Segments_GetRC
 682              		.section	.text.Segments_ClearDisplay,"ax",%progbits
 683              		.align	2
 684              		.global	Segments_ClearDisplay
ARM GAS  C:\Users\Esteban\AppData\Local\Temp\ccHxlO6N.s 			page 27


 685              		.thumb
 686              		.thumb_func
 687              		.type	Segments_ClearDisplay, %function
 688              	Segments_ClearDisplay:
 689              	.LFB12:
 779:Generated_Source\PSoC5/Segments.c **** 
 780:Generated_Source\PSoC5/Segments.c **** 
 781:Generated_Source\PSoC5/Segments.c **** /*******************************************************************************
 782:Generated_Source\PSoC5/Segments.c **** * Function Name: Segments_ClearDisplay
 783:Generated_Source\PSoC5/Segments.c **** ********************************************************************************
 784:Generated_Source\PSoC5/Segments.c **** *
 785:Generated_Source\PSoC5/Segments.c **** * Summary:
 786:Generated_Source\PSoC5/Segments.c **** *  Clears the display (disables all the LEDs) for the associated position by
 787:Generated_Source\PSoC5/Segments.c **** *  setting the display RAM to zero.
 788:Generated_Source\PSoC5/Segments.c **** *
 789:Generated_Source\PSoC5/Segments.c **** * Parameters:
 790:Generated_Source\PSoC5/Segments.c **** *  uint8 position: The digit position to clear.
 791:Generated_Source\PSoC5/Segments.c **** *
 792:Generated_Source\PSoC5/Segments.c **** * Return:
 793:Generated_Source\PSoC5/Segments.c **** *  None
 794:Generated_Source\PSoC5/Segments.c **** *
 795:Generated_Source\PSoC5/Segments.c **** * Side effects:
 796:Generated_Source\PSoC5/Segments.c **** *  None
 797:Generated_Source\PSoC5/Segments.c **** *
 798:Generated_Source\PSoC5/Segments.c **** *******************************************************************************/
 799:Generated_Source\PSoC5/Segments.c **** void Segments_ClearDisplay(uint8 position) 
 800:Generated_Source\PSoC5/Segments.c **** {  
 690              		.loc 1 800 0
 691              		.cfi_startproc
 692              		@ args = 0, pretend = 0, frame = 0
 693              		@ frame_needed = 0, uses_anonymous_args = 0
 694              		@ link register save eliminated.
 695              	.LVL84:
 801:Generated_Source\PSoC5/Segments.c ****     uint8 relPosition;
 802:Generated_Source\PSoC5/Segments.c ****     
 803:Generated_Source\PSoC5/Segments.c ****     if(position < Segments_NUM_COM)
 696              		.loc 1 803 0
 697 0000 0328     		cmp	r0, #3
 698 0002 02D8     		bhi	.L63
 699              	.LVL85:
 804:Generated_Source\PSoC5/Segments.c ****     {
 805:Generated_Source\PSoC5/Segments.c ****         relPosition = position;
 806:Generated_Source\PSoC5/Segments.c ****         Segments_segLBuffer[relPosition] = Segments_CLEAR;
 700              		.loc 1 806 0
 701 0004 0022     		movs	r2, #0
 702 0006 014B     		ldr	r3, .L65
 703 0008 1A54     		strb	r2, [r3, r0]
 704              	.LVL86:
 705              	.L63:
 706 000a 7047     		bx	lr
 707              	.L66:
 708              		.align	2
 709              	.L65:
 710 000c 00000000 		.word	Segments_segLBuffer
 711              		.cfi_endproc
 712              	.LFE12:
 713              		.size	Segments_ClearDisplay, .-Segments_ClearDisplay
ARM GAS  C:\Users\Esteban\AppData\Local\Temp\ccHxlO6N.s 			page 28


 714              		.section	.text.Segments_ClearDisplayAll,"ax",%progbits
 715              		.align	2
 716              		.global	Segments_ClearDisplayAll
 717              		.thumb
 718              		.thumb_func
 719              		.type	Segments_ClearDisplayAll, %function
 720              	Segments_ClearDisplayAll:
 721              	.LFB13:
 807:Generated_Source\PSoC5/Segments.c ****     }    
 808:Generated_Source\PSoC5/Segments.c ****     else if (position < Segments_TWO_NUM_COM)
 809:Generated_Source\PSoC5/Segments.c ****     {
 810:Generated_Source\PSoC5/Segments.c ****         #if (Segments_NUM_SEG > 8u)
 811:Generated_Source\PSoC5/Segments.c ****             relPosition = position - Segments_NUM_COM;
 812:Generated_Source\PSoC5/Segments.c ****             Segments_segMBuffer[relPosition] = Segments_CLEAR;
 813:Generated_Source\PSoC5/Segments.c ****         #endif /* (Segments_NUM_SEG > 8u) */
 814:Generated_Source\PSoC5/Segments.c ****     }
 815:Generated_Source\PSoC5/Segments.c ****     else
 816:Generated_Source\PSoC5/Segments.c ****     {
 817:Generated_Source\PSoC5/Segments.c ****         #if (Segments_NUM_SEG > 16u)
 818:Generated_Source\PSoC5/Segments.c ****             relPosition = position - Segments_TWO_NUM_COM;
 819:Generated_Source\PSoC5/Segments.c ****             if(relPosition < Segments_NUM_COM)
 820:Generated_Source\PSoC5/Segments.c ****             {
 821:Generated_Source\PSoC5/Segments.c ****                 Segments_segHBuffer[relPosition] = Segments_CLEAR;
 822:Generated_Source\PSoC5/Segments.c ****             }
 823:Generated_Source\PSoC5/Segments.c ****         #endif /* (Segments_NUM_SEG > 16u) */
 824:Generated_Source\PSoC5/Segments.c ****     }
 825:Generated_Source\PSoC5/Segments.c **** }
 826:Generated_Source\PSoC5/Segments.c **** 
 827:Generated_Source\PSoC5/Segments.c **** 
 828:Generated_Source\PSoC5/Segments.c **** /*******************************************************************************
 829:Generated_Source\PSoC5/Segments.c **** * Function Name: Segments_ClearDisplayAll
 830:Generated_Source\PSoC5/Segments.c **** ********************************************************************************
 831:Generated_Source\PSoC5/Segments.c **** *
 832:Generated_Source\PSoC5/Segments.c **** * Summary:
 833:Generated_Source\PSoC5/Segments.c **** *  Clears the entire display by writing zeros to all the display RAM locations.
 834:Generated_Source\PSoC5/Segments.c **** *
 835:Generated_Source\PSoC5/Segments.c **** * Parameters:
 836:Generated_Source\PSoC5/Segments.c **** *  None
 837:Generated_Source\PSoC5/Segments.c **** *
 838:Generated_Source\PSoC5/Segments.c **** * Return:
 839:Generated_Source\PSoC5/Segments.c **** *  None
 840:Generated_Source\PSoC5/Segments.c **** *
 841:Generated_Source\PSoC5/Segments.c **** * Side effects:
 842:Generated_Source\PSoC5/Segments.c **** *  None
 843:Generated_Source\PSoC5/Segments.c **** *
 844:Generated_Source\PSoC5/Segments.c **** *******************************************************************************/
 845:Generated_Source\PSoC5/Segments.c **** void Segments_ClearDisplayAll(void) 
 846:Generated_Source\PSoC5/Segments.c **** {
 722              		.loc 1 846 0
 723              		.cfi_startproc
 724              		@ args = 0, pretend = 0, frame = 0
 725              		@ frame_needed = 0, uses_anonymous_args = 0
 726              		@ link register save eliminated.
 727              	.LVL87:
 847:Generated_Source\PSoC5/Segments.c ****     uint8 position;
 848:Generated_Source\PSoC5/Segments.c ****     
 849:Generated_Source\PSoC5/Segments.c ****     for(position = 0u; position < Segments_NUM_COM; position++)
ARM GAS  C:\Users\Esteban\AppData\Local\Temp\ccHxlO6N.s 			page 29


 728              		.loc 1 849 0
 729 0000 0023     		movs	r3, #0
 730 0002 04E0     		b	.L68
 731              	.LVL88:
 732              	.L69:
 850:Generated_Source\PSoC5/Segments.c ****     {
 851:Generated_Source\PSoC5/Segments.c ****         Segments_segLBuffer[position] = Segments_CLEAR; 
 733              		.loc 1 851 0 discriminator 3
 734 0004 0021     		movs	r1, #0
 735 0006 034A     		ldr	r2, .L70
 736 0008 D154     		strb	r1, [r2, r3]
 849:Generated_Source\PSoC5/Segments.c ****     {
 737              		.loc 1 849 0 discriminator 3
 738 000a 0133     		adds	r3, r3, #1
 739              	.LVL89:
 740 000c DBB2     		uxtb	r3, r3
 741              	.LVL90:
 742              	.L68:
 849:Generated_Source\PSoC5/Segments.c ****     {
 743              		.loc 1 849 0 is_stmt 0 discriminator 1
 744 000e 032B     		cmp	r3, #3
 745 0010 F8D9     		bls	.L69
 852:Generated_Source\PSoC5/Segments.c ****         
 853:Generated_Source\PSoC5/Segments.c ****         #if (Segments_NUM_SEG > 8u) 
 854:Generated_Source\PSoC5/Segments.c ****             Segments_segMBuffer[position] = Segments_CLEAR;
 855:Generated_Source\PSoC5/Segments.c ****         #endif /* (Segments_NUM_SEG > 8u) */
 856:Generated_Source\PSoC5/Segments.c ****         
 857:Generated_Source\PSoC5/Segments.c ****         #if (Segments_NUM_SEG > 16u)
 858:Generated_Source\PSoC5/Segments.c ****             Segments_segHBuffer[position] = Segments_CLEAR;
 859:Generated_Source\PSoC5/Segments.c ****         #endif /* (Segments_NUM_SEG > 16u) */
 860:Generated_Source\PSoC5/Segments.c ****     }
 861:Generated_Source\PSoC5/Segments.c **** }
 746              		.loc 1 861 0 is_stmt 1
 747 0012 7047     		bx	lr
 748              	.L71:
 749              		.align	2
 750              	.L70:
 751 0014 00000000 		.word	Segments_segLBuffer
 752              		.cfi_endproc
 753              	.LFE13:
 754              		.size	Segments_ClearDisplayAll, .-Segments_ClearDisplayAll
 755              		.section	.text.Segments_Init,"ax",%progbits
 756              		.align	2
 757              		.global	Segments_Init
 758              		.thumb
 759              		.thumb_func
 760              		.type	Segments_Init, %function
 761              	Segments_Init:
 762              	.LFB3:
 363:Generated_Source\PSoC5/Segments.c ****     static uint8 Segments_dmaInitDone = 0u;
 763              		.loc 1 363 0
 764              		.cfi_startproc
 765              		@ args = 0, pretend = 0, frame = 0
 766              		@ frame_needed = 0, uses_anonymous_args = 0
 767 0000 08B5     		push	{r3, lr}
 768              		.cfi_def_cfa_offset 8
 769              		.cfi_offset 3, -8
ARM GAS  C:\Users\Esteban\AppData\Local\Temp\ccHxlO6N.s 			page 30


 770              		.cfi_offset 14, -4
 370:Generated_Source\PSoC5/Segments.c ****     
 771              		.loc 1 370 0
 772 0002 FFF7FEFF 		bl	Segments_ClearDisplayAll
 773              	.LVL91:
 373:Generated_Source\PSoC5/Segments.c ****     {
 774              		.loc 1 373 0
 775 0006 094B     		ldr	r3, .L77
 776 0008 5B7F     		ldrb	r3, [r3, #29]	@ zero_extendqisi2
 777 000a 23B9     		cbnz	r3, .L73
 375:Generated_Source\PSoC5/Segments.c ****         Segments_dmaInitDone = 1u;
 778              		.loc 1 375 0
 779 000c FFF7FEFF 		bl	Segments_DmaInit
 780              	.LVL92:
 376:Generated_Source\PSoC5/Segments.c ****     }
 781              		.loc 1 376 0
 782 0010 0122     		movs	r2, #1
 783 0012 064B     		ldr	r3, .L77
 784 0014 5A77     		strb	r2, [r3, #29]
 785              	.L73:
 363:Generated_Source\PSoC5/Segments.c ****     static uint8 Segments_dmaInitDone = 0u;
 786              		.loc 1 363 0 discriminator 1
 787 0016 0023     		movs	r3, #0
 788 0018 05E0     		b	.L74
 789              	.LVL93:
 790              	.L75:
 383:Generated_Source\PSoC5/Segments.c ****         }
 791              		.loc 1 383 0 discriminator 3
 792 001a 044A     		ldr	r2, .L77
 793 001c 1A44     		add	r2, r2, r3
 794 001e FF21     		movs	r1, #255
 795 0020 1176     		strb	r1, [r2, #24]
 381:Generated_Source\PSoC5/Segments.c ****         {
 796              		.loc 1 381 0 discriminator 3
 797 0022 0133     		adds	r3, r3, #1
 798              	.LVL94:
 799 0024 DBB2     		uxtb	r3, r3
 800              	.LVL95:
 801              	.L74:
 381:Generated_Source\PSoC5/Segments.c ****         {
 802              		.loc 1 381 0 is_stmt 0 discriminator 1
 803 0026 032B     		cmp	r3, #3
 804 0028 F7D9     		bls	.L75
 386:Generated_Source\PSoC5/Segments.c **** 
 805              		.loc 1 386 0 is_stmt 1
 806 002a 08BD     		pop	{r3, pc}
 807              	.LVL96:
 808              	.L78:
 809              		.align	2
 810              	.L77:
 811 002c 00000000 		.word	.LANCHOR0
 812              		.cfi_endproc
 813              	.LFE3:
 814              		.size	Segments_Init, .-Segments_Init
 815              		.section	.text.Segments_Start,"ax",%progbits
 816              		.align	2
 817              		.global	Segments_Start
ARM GAS  C:\Users\Esteban\AppData\Local\Temp\ccHxlO6N.s 			page 31


 818              		.thumb
 819              		.thumb_func
 820              		.type	Segments_Start, %function
 821              	Segments_Start:
 822              	.LFB5:
 445:Generated_Source\PSoC5/Segments.c ****     if(0u == Segments_initVar)
 823              		.loc 1 445 0
 824              		.cfi_startproc
 825              		@ args = 0, pretend = 0, frame = 0
 826              		@ frame_needed = 0, uses_anonymous_args = 0
 827 0000 08B5     		push	{r3, lr}
 828              		.cfi_def_cfa_offset 8
 829              		.cfi_offset 3, -8
 830              		.cfi_offset 14, -4
 446:Generated_Source\PSoC5/Segments.c ****     {
 831              		.loc 1 446 0
 832 0002 054B     		ldr	r3, .L82
 833 0004 9B7F     		ldrb	r3, [r3, #30]	@ zero_extendqisi2
 834 0006 23B9     		cbnz	r3, .L80
 448:Generated_Source\PSoC5/Segments.c ****         Segments_initVar = 1u;
 835              		.loc 1 448 0
 836 0008 FFF7FEFF 		bl	Segments_Init
 837              	.LVL97:
 449:Generated_Source\PSoC5/Segments.c ****     }
 838              		.loc 1 449 0
 839 000c 0122     		movs	r2, #1
 840 000e 024B     		ldr	r3, .L82
 841 0010 9A77     		strb	r2, [r3, #30]
 842              	.L80:
 452:Generated_Source\PSoC5/Segments.c **** }
 843              		.loc 1 452 0
 844 0012 FFF7FEFF 		bl	Segments_Enable
 845              	.LVL98:
 846 0016 08BD     		pop	{r3, pc}
 847              	.L83:
 848              		.align	2
 849              	.L82:
 850 0018 00000000 		.word	.LANCHOR0
 851              		.cfi_endproc
 852              	.LFE5:
 853              		.size	Segments_Start, .-Segments_Start
 854              		.section	.text.Segments_Stop,"ax",%progbits
 855              		.align	2
 856              		.global	Segments_Stop
 857              		.thumb
 858              		.thumb_func
 859              		.type	Segments_Stop, %function
 860              	Segments_Stop:
 861              	.LFB6:
 475:Generated_Source\PSoC5/Segments.c ****     #if (Segments_BRIGHTNESS_EN == Segments_ENABLED)
 862              		.loc 1 475 0
 863              		.cfi_startproc
 864              		@ args = 0, pretend = 0, frame = 0
 865              		@ frame_needed = 0, uses_anonymous_args = 0
 866 0000 10B5     		push	{r4, lr}
 867              		.cfi_def_cfa_offset 8
 868              		.cfi_offset 4, -8
ARM GAS  C:\Users\Esteban\AppData\Local\Temp\ccHxlO6N.s 			page 32


 869              		.cfi_offset 14, -4
 478:Generated_Source\PSoC5/Segments.c ****     #endif /* (Segments_BRIGHTNESS_EN == Segments_ENABLED) */
 870              		.loc 1 478 0
 871 0002 0024     		movs	r4, #0
 872 0004 044B     		ldr	r3, .L86
 873 0006 1C70     		strb	r4, [r3]
 481:Generated_Source\PSoC5/Segments.c ****     Segments_ClearDisplayAll();
 874              		.loc 1 481 0
 875 0008 FFF7FEFF 		bl	Segments_DmaDisable
 876              	.LVL99:
 482:Generated_Source\PSoC5/Segments.c ****     
 877              		.loc 1 482 0
 878 000c FFF7FEFF 		bl	Segments_ClearDisplayAll
 879              	.LVL100:
 484:Generated_Source\PSoC5/Segments.c **** }
 880              		.loc 1 484 0
 881 0010 024B     		ldr	r3, .L86+4
 882 0012 1C77     		strb	r4, [r3, #28]
 883 0014 10BD     		pop	{r4, pc}
 884              	.L87:
 885 0016 00BF     		.align	2
 886              	.L86:
 887 0018 74650040 		.word	1073767796
 888 001c 00000000 		.word	.LANCHOR0
 889              		.cfi_endproc
 890              	.LFE6:
 891              		.size	Segments_Stop, .-Segments_Stop
 892              		.section	.text.Segments_PutDecimalPoint,"ax",%progbits
 893              		.align	2
 894              		.global	Segments_PutDecimalPoint
 895              		.thumb
 896              		.thumb_func
 897              		.type	Segments_PutDecimalPoint, %function
 898              	Segments_PutDecimalPoint:
 899              	.LFB32:
 862:Generated_Source\PSoC5/Segments.c **** 
 863:Generated_Source\PSoC5/Segments.c **** 
 864:Generated_Source\PSoC5/Segments.c **** /*******************************************************************************
 865:Generated_Source\PSoC5/Segments.c **** * Function Name: Segments_Write7SegNumberDec
 866:Generated_Source\PSoC5/Segments.c **** ********************************************************************************
 867:Generated_Source\PSoC5/Segments.c **** *
 868:Generated_Source\PSoC5/Segments.c **** * Summary:
 869:Generated_Source\PSoC5/Segments.c **** *  Displays a signed integer up to 8 characters long, starting at 'position' 
 870:Generated_Source\PSoC5/Segments.c **** *  and extending for 'digits' characters. The negative sign will consume one 
 871:Generated_Source\PSoC5/Segments.c **** *  digit if it is required. If you do not use the correct number of digits for
 872:Generated_Source\PSoC5/Segments.c **** *  your number, the least significant digits will be displayed. For example, 
 873:Generated_Source\PSoC5/Segments.c **** *  if value is -1234, display is 0 and digits is 4, the result will be: -234.
 874:Generated_Source\PSoC5/Segments.c **** *
 875:Generated_Source\PSoC5/Segments.c **** * Parameters:
 876:Generated_Source\PSoC5/Segments.c **** *  int32 number: a signed integer number to display. It is the responsibility 
 877:Generated_Source\PSoC5/Segments.c **** *                of the user to ensure that the display has enough digits to 
 878:Generated_Source\PSoC5/Segments.c **** *                accurately represent the number passed to this function. If 
 879:Generated_Source\PSoC5/Segments.c **** *                not, the least significant digits will be displayed. Also note
 880:Generated_Source\PSoC5/Segments.c **** *                that a negative number will require 1 more digit than the
 881:Generated_Source\PSoC5/Segments.c **** *                equivalent positive number to display the negative sign.
 882:Generated_Source\PSoC5/Segments.c **** *  uint8 position: Digit position of the Display/Common RAM to start.
 883:Generated_Source\PSoC5/Segments.c **** *  uint8 digits: The number of digits you wish to use to display the value 
ARM GAS  C:\Users\Esteban\AppData\Local\Temp\ccHxlO6N.s 			page 33


 884:Generated_Source\PSoC5/Segments.c **** *                passed into the function. The negative sign will consume one 
 885:Generated_Source\PSoC5/Segments.c **** *                digit if it is required.
 886:Generated_Source\PSoC5/Segments.c **** *  uint8 alignment: How to align the provided number in the allocated digits.
 887:Generated_Source\PSoC5/Segments.c **** *       RIGHT_ALIGN - Least significant digit occupies the rightmost digit
 888:Generated_Source\PSoC5/Segments.c **** *                     (position + digits). Unused digits are turned off unless
 889:Generated_Source\PSoC5/Segments.c **** *                     ZERO_PAD enabled.
 890:Generated_Source\PSoC5/Segments.c **** *       LEFT_ALIGN - Most significant digit (or negative sign) occupies the
 891:Generated_Source\PSoC5/Segments.c **** *                    digit specified by position. Unused digits are turned off.
 892:Generated_Source\PSoC5/Segments.c **** *       ZERO_PAD - Unused digits to the left are padded with leading zeros.
 893:Generated_Source\PSoC5/Segments.c **** *
 894:Generated_Source\PSoC5/Segments.c **** * Return:
 895:Generated_Source\PSoC5/Segments.c **** *  None
 896:Generated_Source\PSoC5/Segments.c **** *
 897:Generated_Source\PSoC5/Segments.c **** * Side effects:
 898:Generated_Source\PSoC5/Segments.c **** *  None
 899:Generated_Source\PSoC5/Segments.c **** *
 900:Generated_Source\PSoC5/Segments.c **** *******************************************************************************/
 901:Generated_Source\PSoC5/Segments.c **** void Segments_Write7SegNumberDec(int32 number, uint8 position, uint8 digits, uint8 alignment)
 902:Generated_Source\PSoC5/Segments.c **** 
 903:Generated_Source\PSoC5/Segments.c **** {
 904:Generated_Source\PSoC5/Segments.c ****     uint8 i;
 905:Generated_Source\PSoC5/Segments.c ****     uint8 relPosition;
 906:Generated_Source\PSoC5/Segments.c ****     uint8 choiceReg;
 907:Generated_Source\PSoC5/Segments.c ****     uint8 numberSign;
 908:Generated_Source\PSoC5/Segments.c ****     uint8 selectVal;
 909:Generated_Source\PSoC5/Segments.c ****     uint8 zeroCount = 0u;
 910:Generated_Source\PSoC5/Segments.c ****     uint8 bufArray[8u] = {0u};
 911:Generated_Source\PSoC5/Segments.c ****     uint32 numberVal;
 912:Generated_Source\PSoC5/Segments.c ****         
 913:Generated_Source\PSoC5/Segments.c ****     /* Choose to use either the low, mid or high control registers */
 914:Generated_Source\PSoC5/Segments.c ****     if(position < Segments_NUM_COM)
 915:Generated_Source\PSoC5/Segments.c ****     {
 916:Generated_Source\PSoC5/Segments.c ****         choiceReg = Segments_SEG_REG_LOW;
 917:Generated_Source\PSoC5/Segments.c ****         relPosition = position;
 918:Generated_Source\PSoC5/Segments.c ****     }
 919:Generated_Source\PSoC5/Segments.c ****     else if (position < Segments_TWO_NUM_COM)
 920:Generated_Source\PSoC5/Segments.c ****     {
 921:Generated_Source\PSoC5/Segments.c ****         choiceReg = Segments_SEG_REG_MID;
 922:Generated_Source\PSoC5/Segments.c ****         relPosition = position - Segments_NUM_COM;
 923:Generated_Source\PSoC5/Segments.c ****     }
 924:Generated_Source\PSoC5/Segments.c ****     else
 925:Generated_Source\PSoC5/Segments.c ****     {
 926:Generated_Source\PSoC5/Segments.c ****         choiceReg = Segments_SEG_REG_HIGH;
 927:Generated_Source\PSoC5/Segments.c ****         relPosition = position - Segments_TWO_NUM_COM;
 928:Generated_Source\PSoC5/Segments.c ****     }
 929:Generated_Source\PSoC5/Segments.c ****     
 930:Generated_Source\PSoC5/Segments.c ****     /* Routine to extract the sign and to convert to unsigned */
 931:Generated_Source\PSoC5/Segments.c ****     if(number >= Segments_ZERO_NEG)
 932:Generated_Source\PSoC5/Segments.c ****     {
 933:Generated_Source\PSoC5/Segments.c ****         numberVal = (uint32)number;
 934:Generated_Source\PSoC5/Segments.c ****         numberSign = Segments_UNSIGNED;
 935:Generated_Source\PSoC5/Segments.c ****     }
 936:Generated_Source\PSoC5/Segments.c ****     else
 937:Generated_Source\PSoC5/Segments.c ****     {
 938:Generated_Source\PSoC5/Segments.c ****         numberVal = (uint32)(-number);
 939:Generated_Source\PSoC5/Segments.c ****         numberSign = Segments_SIGNED;
 940:Generated_Source\PSoC5/Segments.c ****     }
ARM GAS  C:\Users\Esteban\AppData\Local\Temp\ccHxlO6N.s 			page 34


 941:Generated_Source\PSoC5/Segments.c ****     
 942:Generated_Source\PSoC5/Segments.c ****     /* Fill up the temporary array */
 943:Generated_Source\PSoC5/Segments.c ****     for(i = digits; i > 0u; i--)
 944:Generated_Source\PSoC5/Segments.c ****     {
 945:Generated_Source\PSoC5/Segments.c ****         selectVal = (uint8)(numberVal % 10u);
 946:Generated_Source\PSoC5/Segments.c ****         bufArray[i-1u] = Segments_EncodeNumber7Seg(selectVal);
 947:Generated_Source\PSoC5/Segments.c ****         numberVal = numberVal / 10u;
 948:Generated_Source\PSoC5/Segments.c ****     }
 949:Generated_Source\PSoC5/Segments.c ****     
 950:Generated_Source\PSoC5/Segments.c ****     /* Clean up the array and place sign if needed */
 951:Generated_Source\PSoC5/Segments.c ****     if(alignment == Segments_ZERO_PAD)
 952:Generated_Source\PSoC5/Segments.c ****     {
 953:Generated_Source\PSoC5/Segments.c ****         if(numberSign == Segments_SIGNED)
 954:Generated_Source\PSoC5/Segments.c ****         {
 955:Generated_Source\PSoC5/Segments.c ****             /* Place sign on the MSB */
 956:Generated_Source\PSoC5/Segments.c ****             bufArray[0u] = Segments_EncodeChar7Seg('-');
 957:Generated_Source\PSoC5/Segments.c ****         }
 958:Generated_Source\PSoC5/Segments.c ****     }
 959:Generated_Source\PSoC5/Segments.c ****     else
 960:Generated_Source\PSoC5/Segments.c ****     {
 961:Generated_Source\PSoC5/Segments.c ****         for(i = 0u; i < digits; i++)
 962:Generated_Source\PSoC5/Segments.c ****         {
 963:Generated_Source\PSoC5/Segments.c ****             if (bufArray[i] != Segments_ZERO_7CHAR)
 964:Generated_Source\PSoC5/Segments.c ****             {
 965:Generated_Source\PSoC5/Segments.c ****                 if(numberSign == Segments_SIGNED)
 966:Generated_Source\PSoC5/Segments.c ****                 {
 967:Generated_Source\PSoC5/Segments.c ****                     if(i == 0u)
 968:Generated_Source\PSoC5/Segments.c ****                     {
 969:Generated_Source\PSoC5/Segments.c ****                         /* Place sign on the MSB */
 970:Generated_Source\PSoC5/Segments.c ****                         bufArray[i] = Segments_EncodeChar7Seg('-');
 971:Generated_Source\PSoC5/Segments.c ****                     }
 972:Generated_Source\PSoC5/Segments.c ****                     else
 973:Generated_Source\PSoC5/Segments.c ****                     {
 974:Generated_Source\PSoC5/Segments.c ****                         /* Place sign before MSB */
 975:Generated_Source\PSoC5/Segments.c ****                         bufArray[i-1u] = Segments_EncodeChar7Seg('-');
 976:Generated_Source\PSoC5/Segments.c ****                     }
 977:Generated_Source\PSoC5/Segments.c ****                 }
 978:Generated_Source\PSoC5/Segments.c ****                 /* Exit when encountering non-zero number */
 979:Generated_Source\PSoC5/Segments.c ****                 break;
 980:Generated_Source\PSoC5/Segments.c ****             }
 981:Generated_Source\PSoC5/Segments.c ****             else
 982:Generated_Source\PSoC5/Segments.c ****             {
 983:Generated_Source\PSoC5/Segments.c ****                 if(zeroCount != (digits - 1u))
 984:Generated_Source\PSoC5/Segments.c ****                 {
 985:Generated_Source\PSoC5/Segments.c ****                     /* Turn off the display */
 986:Generated_Source\PSoC5/Segments.c ****                     bufArray[i] = Segments_CLEAR;
 987:Generated_Source\PSoC5/Segments.c ****                     zeroCount++;
 988:Generated_Source\PSoC5/Segments.c ****                 }
 989:Generated_Source\PSoC5/Segments.c ****             }    
 990:Generated_Source\PSoC5/Segments.c ****         }
 991:Generated_Source\PSoC5/Segments.c ****     }
 992:Generated_Source\PSoC5/Segments.c ****     
 993:Generated_Source\PSoC5/Segments.c ****     /* Place the values in the segment array according to alignment */
 994:Generated_Source\PSoC5/Segments.c ****     if(alignment == Segments_LEFT_ALIGN)
 995:Generated_Source\PSoC5/Segments.c ****     {
 996:Generated_Source\PSoC5/Segments.c ****         for(i = 0u; i < digits; i++)
 997:Generated_Source\PSoC5/Segments.c ****         {
ARM GAS  C:\Users\Esteban\AppData\Local\Temp\ccHxlO6N.s 			page 35


 998:Generated_Source\PSoC5/Segments.c ****             if(bufArray[i] != Segments_CLEAR)
 999:Generated_Source\PSoC5/Segments.c ****             {
1000:Generated_Source\PSoC5/Segments.c ****                 if(relPosition < Segments_NUM_COM)
1001:Generated_Source\PSoC5/Segments.c ****                 {
1002:Generated_Source\PSoC5/Segments.c ****                     /* Only show displays that are not empty */
1003:Generated_Source\PSoC5/Segments.c ****                     switch(choiceReg)
1004:Generated_Source\PSoC5/Segments.c ****                     {
1005:Generated_Source\PSoC5/Segments.c ****                         case Segments_SEG_REG_LOW :
1006:Generated_Source\PSoC5/Segments.c ****                             Segments_segLBuffer[relPosition] = bufArray[i];
1007:Generated_Source\PSoC5/Segments.c ****                             break;
1008:Generated_Source\PSoC5/Segments.c ****                         case Segments_SEG_REG_MID :
1009:Generated_Source\PSoC5/Segments.c ****                             #if (Segments_NUM_SEG > 8u)
1010:Generated_Source\PSoC5/Segments.c ****                                 Segments_segMBuffer[relPosition] = bufArray[i];
1011:Generated_Source\PSoC5/Segments.c ****                             #endif /* (Segments_NUM_SEG > 8u) */
1012:Generated_Source\PSoC5/Segments.c ****                             break;
1013:Generated_Source\PSoC5/Segments.c ****                         case Segments_SEG_REG_HIGH :
1014:Generated_Source\PSoC5/Segments.c ****                             #if (Segments_NUM_SEG > 16u)
1015:Generated_Source\PSoC5/Segments.c ****                                 Segments_segHBuffer[relPosition] = bufArray[i];
1016:Generated_Source\PSoC5/Segments.c ****                             #endif /* (Segments_NUM_SEG > 16u) */
1017:Generated_Source\PSoC5/Segments.c ****                             break;
1018:Generated_Source\PSoC5/Segments.c ****                         default :
1019:Generated_Source\PSoC5/Segments.c ****                             Segments_segLBuffer[relPosition] = bufArray[i];
1020:Generated_Source\PSoC5/Segments.c ****                             break;
1021:Generated_Source\PSoC5/Segments.c ****                     }
1022:Generated_Source\PSoC5/Segments.c ****                 }
1023:Generated_Source\PSoC5/Segments.c ****                 relPosition++;
1024:Generated_Source\PSoC5/Segments.c ****             }
1025:Generated_Source\PSoC5/Segments.c ****         }
1026:Generated_Source\PSoC5/Segments.c ****         /* Clear the rest of the positions to the right of value */
1027:Generated_Source\PSoC5/Segments.c ****         while(relPosition < digits)
1028:Generated_Source\PSoC5/Segments.c ****         {
1029:Generated_Source\PSoC5/Segments.c ****             switch(choiceReg)
1030:Generated_Source\PSoC5/Segments.c ****             {
1031:Generated_Source\PSoC5/Segments.c ****                 case Segments_SEG_REG_LOW :
1032:Generated_Source\PSoC5/Segments.c ****                     Segments_segLBuffer[relPosition] = Segments_CLEAR;
1033:Generated_Source\PSoC5/Segments.c ****                     break;
1034:Generated_Source\PSoC5/Segments.c ****                 case Segments_SEG_REG_MID :
1035:Generated_Source\PSoC5/Segments.c ****                     #if (Segments_NUM_SEG > 8u)
1036:Generated_Source\PSoC5/Segments.c ****                         Segments_segMBuffer[relPosition] = Segments_CLEAR;
1037:Generated_Source\PSoC5/Segments.c ****                     #endif /* (Segments_NUM_SEG > 8u) */
1038:Generated_Source\PSoC5/Segments.c ****                     break;
1039:Generated_Source\PSoC5/Segments.c ****                 case Segments_SEG_REG_HIGH :
1040:Generated_Source\PSoC5/Segments.c ****                     #if (Segments_NUM_SEG > 16u)
1041:Generated_Source\PSoC5/Segments.c ****                         Segments_segHBuffer[relPosition] = Segments_CLEAR;
1042:Generated_Source\PSoC5/Segments.c ****                     #endif /* (Segments_NUM_SEG > 16u) */
1043:Generated_Source\PSoC5/Segments.c ****                     break;
1044:Generated_Source\PSoC5/Segments.c ****                 default :
1045:Generated_Source\PSoC5/Segments.c ****                     Segments_segLBuffer[relPosition] = Segments_CLEAR;
1046:Generated_Source\PSoC5/Segments.c ****                     break;
1047:Generated_Source\PSoC5/Segments.c ****             }
1048:Generated_Source\PSoC5/Segments.c ****             relPosition++;
1049:Generated_Source\PSoC5/Segments.c ****         }
1050:Generated_Source\PSoC5/Segments.c ****     }
1051:Generated_Source\PSoC5/Segments.c ****     else
1052:Generated_Source\PSoC5/Segments.c ****     {
1053:Generated_Source\PSoC5/Segments.c ****         /* Alignment for Right and zero padded */
1054:Generated_Source\PSoC5/Segments.c ****         for(i = digits; i > 0u; i--)
ARM GAS  C:\Users\Esteban\AppData\Local\Temp\ccHxlO6N.s 			page 36


1055:Generated_Source\PSoC5/Segments.c ****         {
1056:Generated_Source\PSoC5/Segments.c ****             if(((i + relPosition) - 1u) < Segments_NUM_COM)
1057:Generated_Source\PSoC5/Segments.c ****             {
1058:Generated_Source\PSoC5/Segments.c ****                 /* Decide which row to use */
1059:Generated_Source\PSoC5/Segments.c ****                 switch(choiceReg)
1060:Generated_Source\PSoC5/Segments.c ****                 {
1061:Generated_Source\PSoC5/Segments.c ****                     case Segments_SEG_REG_LOW :
1062:Generated_Source\PSoC5/Segments.c ****                         Segments_segLBuffer[(i + relPosition) - 1u] = bufArray[i-1u];
1063:Generated_Source\PSoC5/Segments.c ****                         break;
1064:Generated_Source\PSoC5/Segments.c ****                     case Segments_SEG_REG_MID :
1065:Generated_Source\PSoC5/Segments.c ****                         #if (Segments_NUM_SEG > 8u)
1066:Generated_Source\PSoC5/Segments.c ****                             Segments_segMBuffer[(i + relPosition) - 1u] = bufArray[i-1u];
1067:Generated_Source\PSoC5/Segments.c ****                         #endif /* (Segments_NUM_SEG > 8u) */
1068:Generated_Source\PSoC5/Segments.c ****                         break;
1069:Generated_Source\PSoC5/Segments.c ****                     case Segments_SEG_REG_HIGH :
1070:Generated_Source\PSoC5/Segments.c ****                         #if (Segments_NUM_SEG > 16u)
1071:Generated_Source\PSoC5/Segments.c ****                             Segments_segHBuffer[(i + relPosition) - 1u] = bufArray[i-1u];
1072:Generated_Source\PSoC5/Segments.c ****                         #endif /* (Segments_NUM_SEG > 16u) */
1073:Generated_Source\PSoC5/Segments.c ****                         break;
1074:Generated_Source\PSoC5/Segments.c ****                     default :
1075:Generated_Source\PSoC5/Segments.c ****                         Segments_segLBuffer[(i + relPosition) - 1u] = bufArray[i-1u];
1076:Generated_Source\PSoC5/Segments.c ****                         break;
1077:Generated_Source\PSoC5/Segments.c ****                 }
1078:Generated_Source\PSoC5/Segments.c ****             }
1079:Generated_Source\PSoC5/Segments.c ****         }
1080:Generated_Source\PSoC5/Segments.c ****     }
1081:Generated_Source\PSoC5/Segments.c **** }
1082:Generated_Source\PSoC5/Segments.c **** 
1083:Generated_Source\PSoC5/Segments.c **** 
1084:Generated_Source\PSoC5/Segments.c **** /*******************************************************************************
1085:Generated_Source\PSoC5/Segments.c **** * Function Name: Segments_Write7SegNumberHex
1086:Generated_Source\PSoC5/Segments.c **** ********************************************************************************
1087:Generated_Source\PSoC5/Segments.c **** *
1088:Generated_Source\PSoC5/Segments.c **** * Summary:
1089:Generated_Source\PSoC5/Segments.c **** *  Displays a hexadecimal number up to 8 characters long, starting at 'position'
1090:Generated_Source\PSoC5/Segments.c **** *  and extending for 'digits' characters. If you do not use the correct number 
1091:Generated_Source\PSoC5/Segments.c **** *  of digits for your number, the least significant digits will be displayed. 
1092:Generated_Source\PSoC5/Segments.c **** *  For example, if value is 0xDEADBEEF, display is 0 and digits is 4, the result 
1093:Generated_Source\PSoC5/Segments.c **** *  will be: BEEF.
1094:Generated_Source\PSoC5/Segments.c **** *
1095:Generated_Source\PSoC5/Segments.c **** * Parameters:
1096:Generated_Source\PSoC5/Segments.c **** *  uint32 number: The hexadecimal number to display. It is the responsibility of
1097:Generated_Source\PSoC5/Segments.c **** *                 the user to ensure that the display has enough digits to 
1098:Generated_Source\PSoC5/Segments.c **** *                 accurately representthe number passed to this function. If 
1099:Generated_Source\PSoC5/Segments.c **** *                 not, the least significant digits will be displayed.
1100:Generated_Source\PSoC5/Segments.c **** *  uint8 position: Position of the Display/Common to start number.
1101:Generated_Source\PSoC5/Segments.c **** *  uint8 digits: The number of digits you wish to use to display the value 
1102:Generated_Source\PSoC5/Segments.c **** *                passed into the function. If you do not use the correct number 
1103:Generated_Source\PSoC5/Segments.c **** *                of digits for your number, the least significant digits will be
1104:Generated_Source\PSoC5/Segments.c **** *                displayed.
1105:Generated_Source\PSoC5/Segments.c **** *  uint8 alignment: How to align the provided number in the allocated digits.
1106:Generated_Source\PSoC5/Segments.c **** *       RIGHT_ALIGN - Least significant digit occupies the rightmost digit
1107:Generated_Source\PSoC5/Segments.c **** *                     (position + digits). Unused digits are turned off unless
1108:Generated_Source\PSoC5/Segments.c **** *                     ZERO_PAD enabled.
1109:Generated_Source\PSoC5/Segments.c **** *       LEFT_ALIGN - Most significant digit (or negative sign) occupies the
1110:Generated_Source\PSoC5/Segments.c **** *                    digit specified by position. Unused digits are turned off.
1111:Generated_Source\PSoC5/Segments.c **** *       ZERO_PAD - Unused digits to the left are padded with leading zeros.
ARM GAS  C:\Users\Esteban\AppData\Local\Temp\ccHxlO6N.s 			page 37


1112:Generated_Source\PSoC5/Segments.c **** *
1113:Generated_Source\PSoC5/Segments.c **** * Return:
1114:Generated_Source\PSoC5/Segments.c **** *  None
1115:Generated_Source\PSoC5/Segments.c **** *
1116:Generated_Source\PSoC5/Segments.c **** * Side effects:
1117:Generated_Source\PSoC5/Segments.c **** *  None
1118:Generated_Source\PSoC5/Segments.c **** *
1119:Generated_Source\PSoC5/Segments.c **** *******************************************************************************/
1120:Generated_Source\PSoC5/Segments.c **** void Segments_Write7SegNumberHex(uint32 number, uint8 position, uint8 digits, uint8 alignment)
1121:Generated_Source\PSoC5/Segments.c **** 
1122:Generated_Source\PSoC5/Segments.c **** {
1123:Generated_Source\PSoC5/Segments.c ****     uint8 i;
1124:Generated_Source\PSoC5/Segments.c ****     uint8 relPosition;
1125:Generated_Source\PSoC5/Segments.c ****     uint8 choiceReg;
1126:Generated_Source\PSoC5/Segments.c ****     uint8 selectVal;
1127:Generated_Source\PSoC5/Segments.c ****     uint8 zeroCount = 0u;
1128:Generated_Source\PSoC5/Segments.c ****     uint8 bufArray[8u] = {0u};
1129:Generated_Source\PSoC5/Segments.c ****     uint32 numberVal;
1130:Generated_Source\PSoC5/Segments.c ****         
1131:Generated_Source\PSoC5/Segments.c ****     numberVal = number;
1132:Generated_Source\PSoC5/Segments.c ****     
1133:Generated_Source\PSoC5/Segments.c ****     /* Choose to use either the low, mid or high control registers */
1134:Generated_Source\PSoC5/Segments.c ****     if(position < Segments_NUM_COM)
1135:Generated_Source\PSoC5/Segments.c ****     {
1136:Generated_Source\PSoC5/Segments.c ****         choiceReg = Segments_SEG_REG_LOW;
1137:Generated_Source\PSoC5/Segments.c ****         relPosition = position;
1138:Generated_Source\PSoC5/Segments.c ****     }
1139:Generated_Source\PSoC5/Segments.c ****     else if (position < Segments_TWO_NUM_COM)
1140:Generated_Source\PSoC5/Segments.c ****     {
1141:Generated_Source\PSoC5/Segments.c ****         choiceReg = Segments_SEG_REG_MID;
1142:Generated_Source\PSoC5/Segments.c ****         relPosition = position - Segments_NUM_COM;
1143:Generated_Source\PSoC5/Segments.c ****     }
1144:Generated_Source\PSoC5/Segments.c ****     else
1145:Generated_Source\PSoC5/Segments.c ****     {
1146:Generated_Source\PSoC5/Segments.c ****         choiceReg = Segments_SEG_REG_HIGH;
1147:Generated_Source\PSoC5/Segments.c ****         relPosition = position - Segments_TWO_NUM_COM;
1148:Generated_Source\PSoC5/Segments.c ****     }
1149:Generated_Source\PSoC5/Segments.c ****     
1150:Generated_Source\PSoC5/Segments.c ****     /* Fill up the temporary array */
1151:Generated_Source\PSoC5/Segments.c ****     for(i = digits; i > 0u; i--)
1152:Generated_Source\PSoC5/Segments.c ****     {
1153:Generated_Source\PSoC5/Segments.c ****         selectVal = (uint8)((uint8)numberVal & Segments_NIBBLE_MASK);
1154:Generated_Source\PSoC5/Segments.c ****         bufArray[i-1u] = Segments_EncodeNumber7Seg(selectVal);
1155:Generated_Source\PSoC5/Segments.c ****         numberVal = (uint32)((uint32)numberVal >> Segments_SHIFT_NIBBLE);
1156:Generated_Source\PSoC5/Segments.c ****     }
1157:Generated_Source\PSoC5/Segments.c ****     
1158:Generated_Source\PSoC5/Segments.c ****     /* Clean up the array */
1159:Generated_Source\PSoC5/Segments.c ****     if(alignment != Segments_ZERO_PAD)
1160:Generated_Source\PSoC5/Segments.c ****     {
1161:Generated_Source\PSoC5/Segments.c ****         for(i = 0u; i < digits; i++)
1162:Generated_Source\PSoC5/Segments.c ****         {
1163:Generated_Source\PSoC5/Segments.c ****             if (bufArray[i] != Segments_ZERO_7CHAR)
1164:Generated_Source\PSoC5/Segments.c ****             {
1165:Generated_Source\PSoC5/Segments.c ****                 /* Exit when encountering non-zero number */
1166:Generated_Source\PSoC5/Segments.c ****                 break;
1167:Generated_Source\PSoC5/Segments.c ****             }
1168:Generated_Source\PSoC5/Segments.c ****             else
ARM GAS  C:\Users\Esteban\AppData\Local\Temp\ccHxlO6N.s 			page 38


1169:Generated_Source\PSoC5/Segments.c ****             {
1170:Generated_Source\PSoC5/Segments.c ****                 if(zeroCount != (digits - 1u))
1171:Generated_Source\PSoC5/Segments.c ****                 {
1172:Generated_Source\PSoC5/Segments.c ****                     /* Turn off the display */
1173:Generated_Source\PSoC5/Segments.c ****                     bufArray[i] = Segments_CLEAR;
1174:Generated_Source\PSoC5/Segments.c ****                     zeroCount++;
1175:Generated_Source\PSoC5/Segments.c ****                 }
1176:Generated_Source\PSoC5/Segments.c ****             }    
1177:Generated_Source\PSoC5/Segments.c ****         }
1178:Generated_Source\PSoC5/Segments.c ****     }
1179:Generated_Source\PSoC5/Segments.c ****     
1180:Generated_Source\PSoC5/Segments.c ****     /* Place the values in the segment array according to alignment */
1181:Generated_Source\PSoC5/Segments.c ****     if(alignment == Segments_LEFT_ALIGN)
1182:Generated_Source\PSoC5/Segments.c ****     {
1183:Generated_Source\PSoC5/Segments.c ****         for(i = 0u; i < digits; i++)
1184:Generated_Source\PSoC5/Segments.c ****         {
1185:Generated_Source\PSoC5/Segments.c ****             if(bufArray[i] != Segments_CLEAR)
1186:Generated_Source\PSoC5/Segments.c ****             {
1187:Generated_Source\PSoC5/Segments.c ****                 if(relPosition < Segments_NUM_COM)
1188:Generated_Source\PSoC5/Segments.c ****                 {
1189:Generated_Source\PSoC5/Segments.c ****                     /* Only show displays that are not empty */
1190:Generated_Source\PSoC5/Segments.c ****                     switch(choiceReg)
1191:Generated_Source\PSoC5/Segments.c ****                     {
1192:Generated_Source\PSoC5/Segments.c ****                         case Segments_SEG_REG_LOW :
1193:Generated_Source\PSoC5/Segments.c ****                             Segments_segLBuffer[relPosition] = bufArray[i];
1194:Generated_Source\PSoC5/Segments.c ****                             break;
1195:Generated_Source\PSoC5/Segments.c ****                         case Segments_SEG_REG_MID :
1196:Generated_Source\PSoC5/Segments.c ****                             #if (Segments_NUM_SEG > 8u)
1197:Generated_Source\PSoC5/Segments.c ****                                 Segments_segMBuffer[relPosition] = bufArray[i];
1198:Generated_Source\PSoC5/Segments.c ****                             #endif /* (Segments_NUM_SEG > 8u) */
1199:Generated_Source\PSoC5/Segments.c ****                             break;
1200:Generated_Source\PSoC5/Segments.c ****                         case Segments_SEG_REG_HIGH :
1201:Generated_Source\PSoC5/Segments.c ****                             #if (Segments_NUM_SEG > 16u)
1202:Generated_Source\PSoC5/Segments.c ****                                 Segments_segHBuffer[relPosition] = bufArray[i];
1203:Generated_Source\PSoC5/Segments.c ****                             #endif /* (Segments_NUM_SEG > 16u) */
1204:Generated_Source\PSoC5/Segments.c ****                             break;
1205:Generated_Source\PSoC5/Segments.c ****                         default :
1206:Generated_Source\PSoC5/Segments.c ****                             Segments_segLBuffer[relPosition] = bufArray[i];
1207:Generated_Source\PSoC5/Segments.c ****                             break;
1208:Generated_Source\PSoC5/Segments.c ****                     }
1209:Generated_Source\PSoC5/Segments.c ****                 }
1210:Generated_Source\PSoC5/Segments.c ****                 relPosition++;
1211:Generated_Source\PSoC5/Segments.c ****             }
1212:Generated_Source\PSoC5/Segments.c ****         }
1213:Generated_Source\PSoC5/Segments.c ****         /* Clear the rest of the positions to the right of value */
1214:Generated_Source\PSoC5/Segments.c ****         while(relPosition < digits)
1215:Generated_Source\PSoC5/Segments.c ****         {
1216:Generated_Source\PSoC5/Segments.c ****             switch(choiceReg)
1217:Generated_Source\PSoC5/Segments.c ****             {
1218:Generated_Source\PSoC5/Segments.c ****                 case Segments_SEG_REG_LOW :
1219:Generated_Source\PSoC5/Segments.c ****                     Segments_segLBuffer[relPosition] = Segments_CLEAR;
1220:Generated_Source\PSoC5/Segments.c ****                     break;
1221:Generated_Source\PSoC5/Segments.c ****                 case Segments_SEG_REG_MID :
1222:Generated_Source\PSoC5/Segments.c ****                     #if (Segments_NUM_SEG > 8u)
1223:Generated_Source\PSoC5/Segments.c ****                         Segments_segMBuffer[relPosition] = Segments_CLEAR;
1224:Generated_Source\PSoC5/Segments.c ****                     #endif /* (Segments_NUM_SEG > 8u) */
1225:Generated_Source\PSoC5/Segments.c ****                     break;
ARM GAS  C:\Users\Esteban\AppData\Local\Temp\ccHxlO6N.s 			page 39


1226:Generated_Source\PSoC5/Segments.c ****                 case Segments_SEG_REG_HIGH :
1227:Generated_Source\PSoC5/Segments.c ****                     #if (Segments_NUM_SEG > 16u)
1228:Generated_Source\PSoC5/Segments.c ****                         Segments_segHBuffer[relPosition] = Segments_CLEAR;
1229:Generated_Source\PSoC5/Segments.c ****                     #endif /* (Segments_NUM_SEG > 16u) */
1230:Generated_Source\PSoC5/Segments.c ****                     break;
1231:Generated_Source\PSoC5/Segments.c ****                 default :
1232:Generated_Source\PSoC5/Segments.c ****                     Segments_segLBuffer[relPosition] = Segments_CLEAR;
1233:Generated_Source\PSoC5/Segments.c ****                     break;
1234:Generated_Source\PSoC5/Segments.c ****             }
1235:Generated_Source\PSoC5/Segments.c ****             relPosition++;
1236:Generated_Source\PSoC5/Segments.c ****         }
1237:Generated_Source\PSoC5/Segments.c ****     }
1238:Generated_Source\PSoC5/Segments.c ****     else
1239:Generated_Source\PSoC5/Segments.c ****     {
1240:Generated_Source\PSoC5/Segments.c ****         /* Alignment for right and zero padded */
1241:Generated_Source\PSoC5/Segments.c ****         for(i = digits; i > 0u; i--)
1242:Generated_Source\PSoC5/Segments.c ****         {
1243:Generated_Source\PSoC5/Segments.c ****             if(((i + relPosition) - 1u) < Segments_NUM_COM)
1244:Generated_Source\PSoC5/Segments.c ****             {
1245:Generated_Source\PSoC5/Segments.c ****                 /* Decide which row to use */
1246:Generated_Source\PSoC5/Segments.c ****                 switch(choiceReg)
1247:Generated_Source\PSoC5/Segments.c ****                 {
1248:Generated_Source\PSoC5/Segments.c ****                     case Segments_SEG_REG_LOW :
1249:Generated_Source\PSoC5/Segments.c ****                         Segments_segLBuffer[(i + relPosition) - 1u] = bufArray[i-1u];
1250:Generated_Source\PSoC5/Segments.c ****                         break;
1251:Generated_Source\PSoC5/Segments.c ****                     case Segments_SEG_REG_MID :
1252:Generated_Source\PSoC5/Segments.c ****                         #if (Segments_NUM_SEG > 8u)
1253:Generated_Source\PSoC5/Segments.c ****                             Segments_segMBuffer[(i + relPosition) - 1u] = bufArray[i-1u];
1254:Generated_Source\PSoC5/Segments.c ****                         #endif /* (Segments_NUM_SEG > 8u) */
1255:Generated_Source\PSoC5/Segments.c ****                         break;
1256:Generated_Source\PSoC5/Segments.c ****                     case Segments_SEG_REG_HIGH :
1257:Generated_Source\PSoC5/Segments.c ****                         #if (Segments_NUM_SEG > 16u)
1258:Generated_Source\PSoC5/Segments.c ****                             Segments_segHBuffer[(i + relPosition) - 1u] = bufArray[i-1u];
1259:Generated_Source\PSoC5/Segments.c ****                         #endif /* (Segments_NUM_SEG > 16u) */
1260:Generated_Source\PSoC5/Segments.c ****                         break;
1261:Generated_Source\PSoC5/Segments.c ****                     default :
1262:Generated_Source\PSoC5/Segments.c ****                         Segments_segLBuffer[(i + relPosition) - 1u] = bufArray[i-1u];
1263:Generated_Source\PSoC5/Segments.c ****                         break;
1264:Generated_Source\PSoC5/Segments.c ****                 }
1265:Generated_Source\PSoC5/Segments.c ****             }
1266:Generated_Source\PSoC5/Segments.c ****         }
1267:Generated_Source\PSoC5/Segments.c ****     }
1268:Generated_Source\PSoC5/Segments.c **** }
1269:Generated_Source\PSoC5/Segments.c **** 
1270:Generated_Source\PSoC5/Segments.c **** 
1271:Generated_Source\PSoC5/Segments.c **** /*******************************************************************************
1272:Generated_Source\PSoC5/Segments.c **** * Function Name: Segments_WriteString7Seg
1273:Generated_Source\PSoC5/Segments.c **** ********************************************************************************
1274:Generated_Source\PSoC5/Segments.c **** *
1275:Generated_Source\PSoC5/Segments.c **** * Summary:
1276:Generated_Source\PSoC5/Segments.c **** *  Displays a null terminated string starting at 'position' and ending at either
1277:Generated_Source\PSoC5/Segments.c **** *  at the end the string or the end of the display. The displayable characters 
1278:Generated_Source\PSoC5/Segments.c **** *  are the same for the LED_Driver_PutChar7Seg() function. Non-displayable
1279:Generated_Source\PSoC5/Segments.c **** *  characters will produce a blank space.
1280:Generated_Source\PSoC5/Segments.c **** *
1281:Generated_Source\PSoC5/Segments.c **** * Parameters:
1282:Generated_Source\PSoC5/Segments.c **** *  char8 const character[]: The null terminated string to be displayed.
ARM GAS  C:\Users\Esteban\AppData\Local\Temp\ccHxlO6N.s 			page 40


1283:Generated_Source\PSoC5/Segments.c **** *  uint8 position: The position to start the string.
1284:Generated_Source\PSoC5/Segments.c **** *
1285:Generated_Source\PSoC5/Segments.c **** * Return:
1286:Generated_Source\PSoC5/Segments.c **** *  None
1287:Generated_Source\PSoC5/Segments.c **** *
1288:Generated_Source\PSoC5/Segments.c **** * Side effects:
1289:Generated_Source\PSoC5/Segments.c **** *  None
1290:Generated_Source\PSoC5/Segments.c **** *
1291:Generated_Source\PSoC5/Segments.c **** *******************************************************************************/
1292:Generated_Source\PSoC5/Segments.c **** void Segments_WriteString7Seg(char8 const character[], uint8 position)
1293:Generated_Source\PSoC5/Segments.c **** 
1294:Generated_Source\PSoC5/Segments.c **** {
1295:Generated_Source\PSoC5/Segments.c ****     uint8 relPosition;
1296:Generated_Source\PSoC5/Segments.c ****     uint8 sizeLimit;
1297:Generated_Source\PSoC5/Segments.c ****     uint8 i = 0u;
1298:Generated_Source\PSoC5/Segments.c ****     
1299:Generated_Source\PSoC5/Segments.c ****     if(position < Segments_NUM_COM)
1300:Generated_Source\PSoC5/Segments.c ****     {
1301:Generated_Source\PSoC5/Segments.c ****         sizeLimit = (uint8)(strlen(character)) + position;
1302:Generated_Source\PSoC5/Segments.c ****         for(relPosition = position; relPosition < Segments_NUM_COM; relPosition++)
1303:Generated_Source\PSoC5/Segments.c ****         {
1304:Generated_Source\PSoC5/Segments.c ****             if(relPosition < sizeLimit)
1305:Generated_Source\PSoC5/Segments.c ****             {
1306:Generated_Source\PSoC5/Segments.c ****                 Segments_segLBuffer[relPosition] = Segments_EncodeChar7Seg(character[i]);
1307:Generated_Source\PSoC5/Segments.c ****                 i++;
1308:Generated_Source\PSoC5/Segments.c ****             }
1309:Generated_Source\PSoC5/Segments.c ****         }
1310:Generated_Source\PSoC5/Segments.c ****     }    
1311:Generated_Source\PSoC5/Segments.c ****     else if (position < Segments_TWO_NUM_COM)
1312:Generated_Source\PSoC5/Segments.c ****     {
1313:Generated_Source\PSoC5/Segments.c ****         #if (Segments_NUM_SEG > 8u) 
1314:Generated_Source\PSoC5/Segments.c ****             sizeLimit = ((uint8)(strlen(character)) + position) - Segments_NUM_COM;
1315:Generated_Source\PSoC5/Segments.c ****             for(relPosition = position - Segments_NUM_COM;
1316:Generated_Source\PSoC5/Segments.c ****                 relPosition < Segments_NUM_COM; 
1317:Generated_Source\PSoC5/Segments.c ****                 relPosition++)
1318:Generated_Source\PSoC5/Segments.c ****             {
1319:Generated_Source\PSoC5/Segments.c ****                 if(relPosition < sizeLimit)
1320:Generated_Source\PSoC5/Segments.c ****                 {
1321:Generated_Source\PSoC5/Segments.c ****                     Segments_segMBuffer[relPosition] = Segments_EncodeChar7Seg(character[i]);
1322:Generated_Source\PSoC5/Segments.c ****                     i++;
1323:Generated_Source\PSoC5/Segments.c ****                 }
1324:Generated_Source\PSoC5/Segments.c ****             }
1325:Generated_Source\PSoC5/Segments.c ****         #endif /* (Segments_NUM_SEG > 8u) */
1326:Generated_Source\PSoC5/Segments.c ****     }
1327:Generated_Source\PSoC5/Segments.c ****     else
1328:Generated_Source\PSoC5/Segments.c ****     {
1329:Generated_Source\PSoC5/Segments.c ****         #if (Segments_NUM_SEG > 16u)
1330:Generated_Source\PSoC5/Segments.c ****             sizeLimit = ((uint8)(strlen(character)) + position) - Segments_TWO_NUM_COM;
1331:Generated_Source\PSoC5/Segments.c ****             for(relPosition = position - Segments_TWO_NUM_COM;
1332:Generated_Source\PSoC5/Segments.c ****                 relPosition < Segments_NUM_COM; 
1333:Generated_Source\PSoC5/Segments.c ****                 relPosition++)
1334:Generated_Source\PSoC5/Segments.c ****             {
1335:Generated_Source\PSoC5/Segments.c ****                 if(relPosition < sizeLimit)
1336:Generated_Source\PSoC5/Segments.c ****                 {
1337:Generated_Source\PSoC5/Segments.c ****                     Segments_segHBuffer[relPosition] = Segments_EncodeChar7Seg(character[i]);
1338:Generated_Source\PSoC5/Segments.c ****                     i++;
1339:Generated_Source\PSoC5/Segments.c ****                 }    
ARM GAS  C:\Users\Esteban\AppData\Local\Temp\ccHxlO6N.s 			page 41


1340:Generated_Source\PSoC5/Segments.c ****             }
1341:Generated_Source\PSoC5/Segments.c ****         #endif /* (Segments_NUM_SEG > 16u) */
1342:Generated_Source\PSoC5/Segments.c ****     }
1343:Generated_Source\PSoC5/Segments.c **** }
1344:Generated_Source\PSoC5/Segments.c **** 
1345:Generated_Source\PSoC5/Segments.c **** 
1346:Generated_Source\PSoC5/Segments.c **** /*******************************************************************************
1347:Generated_Source\PSoC5/Segments.c **** * Function Name: Segments_PutChar7Seg
1348:Generated_Source\PSoC5/Segments.c **** ********************************************************************************
1349:Generated_Source\PSoC5/Segments.c **** *
1350:Generated_Source\PSoC5/Segments.c **** * Summary:
1351:Generated_Source\PSoC5/Segments.c **** *  Displays an ascii encoded character at 'position'. This function can display 
1352:Generated_Source\PSoC5/Segments.c **** *  all alphanumeric characters. The function can also display '-', '.', '_', 
1353:Generated_Source\PSoC5/Segments.c **** *  ' ', and '='. All unknown characters are displayed as a space.
1354:Generated_Source\PSoC5/Segments.c **** *
1355:Generated_Source\PSoC5/Segments.c **** * Parameters:
1356:Generated_Source\PSoC5/Segments.c **** *  char8 character: ASCII character.
1357:Generated_Source\PSoC5/Segments.c **** *  uint8 position: The position of the character.
1358:Generated_Source\PSoC5/Segments.c **** *
1359:Generated_Source\PSoC5/Segments.c **** * Return:
1360:Generated_Source\PSoC5/Segments.c **** *  None
1361:Generated_Source\PSoC5/Segments.c **** *
1362:Generated_Source\PSoC5/Segments.c **** * Side effects:
1363:Generated_Source\PSoC5/Segments.c **** *  None
1364:Generated_Source\PSoC5/Segments.c **** *
1365:Generated_Source\PSoC5/Segments.c **** *******************************************************************************/
1366:Generated_Source\PSoC5/Segments.c **** void Segments_PutChar7Seg(char8 character , uint8 position)
1367:Generated_Source\PSoC5/Segments.c **** 
1368:Generated_Source\PSoC5/Segments.c **** {
1369:Generated_Source\PSoC5/Segments.c ****     uint8 relPosition;
1370:Generated_Source\PSoC5/Segments.c ****     
1371:Generated_Source\PSoC5/Segments.c ****     if(position < Segments_NUM_COM)
1372:Generated_Source\PSoC5/Segments.c ****     {
1373:Generated_Source\PSoC5/Segments.c ****         relPosition = position;
1374:Generated_Source\PSoC5/Segments.c ****         Segments_segLBuffer[relPosition] = Segments_EncodeChar7Seg(character);
1375:Generated_Source\PSoC5/Segments.c ****     }    
1376:Generated_Source\PSoC5/Segments.c ****     else if (position < Segments_TWO_NUM_COM)
1377:Generated_Source\PSoC5/Segments.c ****     {
1378:Generated_Source\PSoC5/Segments.c ****         #if (Segments_NUM_SEG > 8u) 
1379:Generated_Source\PSoC5/Segments.c ****             relPosition = position - Segments_NUM_COM;
1380:Generated_Source\PSoC5/Segments.c ****             Segments_segMBuffer[relPosition] = Segments_EncodeChar7Seg(character);
1381:Generated_Source\PSoC5/Segments.c ****         #endif /* (Segments_NUM_SEG > 8u) */
1382:Generated_Source\PSoC5/Segments.c ****     }
1383:Generated_Source\PSoC5/Segments.c ****     else
1384:Generated_Source\PSoC5/Segments.c ****     {
1385:Generated_Source\PSoC5/Segments.c ****         #if (Segments_NUM_SEG > 16u)
1386:Generated_Source\PSoC5/Segments.c ****             relPosition = position - Segments_TWO_NUM_COM;
1387:Generated_Source\PSoC5/Segments.c ****             if(relPosition < Segments_NUM_COM)
1388:Generated_Source\PSoC5/Segments.c ****             {
1389:Generated_Source\PSoC5/Segments.c ****                 Segments_segHBuffer[relPosition] = Segments_EncodeChar7Seg(character);
1390:Generated_Source\PSoC5/Segments.c ****             }
1391:Generated_Source\PSoC5/Segments.c ****         #endif /* (Segments_NUM_SEG > 16u) */
1392:Generated_Source\PSoC5/Segments.c ****     }
1393:Generated_Source\PSoC5/Segments.c **** }
1394:Generated_Source\PSoC5/Segments.c **** 
1395:Generated_Source\PSoC5/Segments.c **** 
1396:Generated_Source\PSoC5/Segments.c **** /*******************************************************************************
ARM GAS  C:\Users\Esteban\AppData\Local\Temp\ccHxlO6N.s 			page 42


1397:Generated_Source\PSoC5/Segments.c **** * Function Name: Segments_Write7SegDigitDec
1398:Generated_Source\PSoC5/Segments.c **** ********************************************************************************
1399:Generated_Source\PSoC5/Segments.c **** *
1400:Generated_Source\PSoC5/Segments.c **** * Summary:
1401:Generated_Source\PSoC5/Segments.c **** *  Displays a single digit on the specified display. The number in 'digit' 
1402:Generated_Source\PSoC5/Segments.c **** *  (0-9) is placed on 'position.'
1403:Generated_Source\PSoC5/Segments.c **** *
1404:Generated_Source\PSoC5/Segments.c **** * Parameters:
1405:Generated_Source\PSoC5/Segments.c **** *  uint8 digit: A number between 0 and 9 to display.
1406:Generated_Source\PSoC5/Segments.c **** *  uint8 position: Position of the display in which to place the number.
1407:Generated_Source\PSoC5/Segments.c **** *
1408:Generated_Source\PSoC5/Segments.c **** * Return:
1409:Generated_Source\PSoC5/Segments.c **** *  None
1410:Generated_Source\PSoC5/Segments.c **** *
1411:Generated_Source\PSoC5/Segments.c **** * Side effects:
1412:Generated_Source\PSoC5/Segments.c **** *  None
1413:Generated_Source\PSoC5/Segments.c **** *
1414:Generated_Source\PSoC5/Segments.c **** *******************************************************************************/
1415:Generated_Source\PSoC5/Segments.c **** void Segments_Write7SegDigitDec(uint8 digit, uint8 position)
1416:Generated_Source\PSoC5/Segments.c **** 
1417:Generated_Source\PSoC5/Segments.c **** {
1418:Generated_Source\PSoC5/Segments.c ****     uint8 relPosition;
1419:Generated_Source\PSoC5/Segments.c ****     
1420:Generated_Source\PSoC5/Segments.c ****     /* Only display numerical values */
1421:Generated_Source\PSoC5/Segments.c ****     if (digit < 10u)
1422:Generated_Source\PSoC5/Segments.c ****     {
1423:Generated_Source\PSoC5/Segments.c ****         if(position < Segments_NUM_COM)
1424:Generated_Source\PSoC5/Segments.c ****         {
1425:Generated_Source\PSoC5/Segments.c ****             relPosition = position;
1426:Generated_Source\PSoC5/Segments.c ****             Segments_segLBuffer[relPosition] = Segments_EncodeNumber7Seg(digit);
1427:Generated_Source\PSoC5/Segments.c ****         }    
1428:Generated_Source\PSoC5/Segments.c ****         else if (position < Segments_TWO_NUM_COM)
1429:Generated_Source\PSoC5/Segments.c ****         {
1430:Generated_Source\PSoC5/Segments.c ****             #if (Segments_NUM_SEG > 8u)
1431:Generated_Source\PSoC5/Segments.c ****                 relPosition = position - Segments_NUM_COM;
1432:Generated_Source\PSoC5/Segments.c ****                 Segments_segMBuffer[relPosition] = Segments_EncodeNumber7Seg(digit);
1433:Generated_Source\PSoC5/Segments.c ****             #endif /* (Segments_NUM_SEG > 8u) */
1434:Generated_Source\PSoC5/Segments.c ****         } 
1435:Generated_Source\PSoC5/Segments.c ****         else
1436:Generated_Source\PSoC5/Segments.c ****         {
1437:Generated_Source\PSoC5/Segments.c ****             #if (Segments_NUM_SEG > 16u)
1438:Generated_Source\PSoC5/Segments.c ****                 relPosition = position - Segments_TWO_NUM_COM;
1439:Generated_Source\PSoC5/Segments.c ****                 if(relPosition < Segments_TWO_NUM_COM)
1440:Generated_Source\PSoC5/Segments.c ****                 {
1441:Generated_Source\PSoC5/Segments.c ****                     Segments_segHBuffer[relPosition] = Segments_EncodeNumber7Seg(digit);
1442:Generated_Source\PSoC5/Segments.c ****                 }
1443:Generated_Source\PSoC5/Segments.c ****             #endif /* (Segments_NUM_SEG > 16u) */
1444:Generated_Source\PSoC5/Segments.c ****         }
1445:Generated_Source\PSoC5/Segments.c ****     }
1446:Generated_Source\PSoC5/Segments.c **** }
1447:Generated_Source\PSoC5/Segments.c **** 
1448:Generated_Source\PSoC5/Segments.c **** 
1449:Generated_Source\PSoC5/Segments.c **** /*******************************************************************************
1450:Generated_Source\PSoC5/Segments.c **** * Function Name: Segments_Write7SegDigitHex
1451:Generated_Source\PSoC5/Segments.c **** ********************************************************************************
1452:Generated_Source\PSoC5/Segments.c **** *
1453:Generated_Source\PSoC5/Segments.c **** * Summary:
ARM GAS  C:\Users\Esteban\AppData\Local\Temp\ccHxlO6N.s 			page 43


1454:Generated_Source\PSoC5/Segments.c **** *  Displays a single digit at the specified position. The number in 'digit' 
1455:Generated_Source\PSoC5/Segments.c **** *  (0-F) is placed on 'position'.
1456:Generated_Source\PSoC5/Segments.c **** *
1457:Generated_Source\PSoC5/Segments.c **** * Parameters:
1458:Generated_Source\PSoC5/Segments.c **** *  uint8 digit: A number between 0x0 and 0xF (0 to 15)
1459:Generated_Source\PSoC5/Segments.c **** *  uint8 position: The position in which to place the number.
1460:Generated_Source\PSoC5/Segments.c **** *
1461:Generated_Source\PSoC5/Segments.c **** * Return:
1462:Generated_Source\PSoC5/Segments.c **** *  None
1463:Generated_Source\PSoC5/Segments.c **** *
1464:Generated_Source\PSoC5/Segments.c **** * Side effects:
1465:Generated_Source\PSoC5/Segments.c **** *  None
1466:Generated_Source\PSoC5/Segments.c **** *
1467:Generated_Source\PSoC5/Segments.c **** *******************************************************************************/
1468:Generated_Source\PSoC5/Segments.c **** void Segments_Write7SegDigitHex(uint8 digit, uint8 position)
1469:Generated_Source\PSoC5/Segments.c **** 
1470:Generated_Source\PSoC5/Segments.c **** {
1471:Generated_Source\PSoC5/Segments.c ****     uint8 relPosition;
1472:Generated_Source\PSoC5/Segments.c ****     
1473:Generated_Source\PSoC5/Segments.c ****     if(position < Segments_NUM_COM)
1474:Generated_Source\PSoC5/Segments.c ****     {
1475:Generated_Source\PSoC5/Segments.c ****         relPosition = position;
1476:Generated_Source\PSoC5/Segments.c ****         Segments_segLBuffer[relPosition] = Segments_EncodeNumber7Seg(digit);
1477:Generated_Source\PSoC5/Segments.c ****     }    
1478:Generated_Source\PSoC5/Segments.c ****     else if (position < Segments_TWO_NUM_COM)
1479:Generated_Source\PSoC5/Segments.c ****     {
1480:Generated_Source\PSoC5/Segments.c ****         #if (Segments_NUM_SEG > 8u) 
1481:Generated_Source\PSoC5/Segments.c ****             relPosition = position - Segments_NUM_COM;
1482:Generated_Source\PSoC5/Segments.c ****             Segments_segMBuffer[relPosition] = Segments_EncodeNumber7Seg(digit);
1483:Generated_Source\PSoC5/Segments.c ****         #endif /* (Segments_NUM_SEG > 8u) */
1484:Generated_Source\PSoC5/Segments.c ****     }
1485:Generated_Source\PSoC5/Segments.c ****     else
1486:Generated_Source\PSoC5/Segments.c ****     {
1487:Generated_Source\PSoC5/Segments.c ****         #if (Segments_NUM_SEG > 16u)
1488:Generated_Source\PSoC5/Segments.c ****             relPosition = position - Segments_TWO_NUM_COM;
1489:Generated_Source\PSoC5/Segments.c ****             if(relPosition < Segments_NUM_COM)
1490:Generated_Source\PSoC5/Segments.c ****             {
1491:Generated_Source\PSoC5/Segments.c ****                 Segments_segHBuffer[relPosition] = Segments_EncodeNumber7Seg(digit);
1492:Generated_Source\PSoC5/Segments.c ****             }
1493:Generated_Source\PSoC5/Segments.c ****         #endif /* (Segments_NUM_SEG > 16u) */
1494:Generated_Source\PSoC5/Segments.c ****     }
1495:Generated_Source\PSoC5/Segments.c **** }
1496:Generated_Source\PSoC5/Segments.c **** 
1497:Generated_Source\PSoC5/Segments.c **** 
1498:Generated_Source\PSoC5/Segments.c **** /*******************************************************************************
1499:Generated_Source\PSoC5/Segments.c **** * Function Name: Segments_Write14SegNumberDec
1500:Generated_Source\PSoC5/Segments.c **** ********************************************************************************
1501:Generated_Source\PSoC5/Segments.c **** *
1502:Generated_Source\PSoC5/Segments.c **** * Summary:
1503:Generated_Source\PSoC5/Segments.c **** *  Displays a signed integer up to 8 characters long, starting at 'position' and
1504:Generated_Source\PSoC5/Segments.c **** *  extending for 'digits' characters. The negative sign will take an extra digit
1505:Generated_Source\PSoC5/Segments.c **** *  if it is required. If you do not use the correct number of digits for your 
1506:Generated_Source\PSoC5/Segments.c **** *  number, only the least significant digits will be displayed.
1507:Generated_Source\PSoC5/Segments.c **** *
1508:Generated_Source\PSoC5/Segments.c **** * Parameters:
1509:Generated_Source\PSoC5/Segments.c **** *  int32 number: a signed integer number to display. It is the responsibility 
1510:Generated_Source\PSoC5/Segments.c **** *                of the user to ensure that the display has enough digits to 
ARM GAS  C:\Users\Esteban\AppData\Local\Temp\ccHxlO6N.s 			page 44


1511:Generated_Source\PSoC5/Segments.c **** *                accurately represent the number passed to this function. Note 
1512:Generated_Source\PSoC5/Segments.c **** *                that a negative number will require 1 more digit than the 
1513:Generated_Source\PSoC5/Segments.c **** *                equivalent positive number to display the negative sign.
1514:Generated_Source\PSoC5/Segments.c **** *  uint8 position: Digit position of the Display/Common RAM to start.
1515:Generated_Source\PSoC5/Segments.c **** *  uint8 digits: The number of digits you wish to use to display the value 
1516:Generated_Source\PSoC5/Segments.c **** *                passed into the function. The negative sign will take an extra
1517:Generated_Source\PSoC5/Segments.c **** *                digit if it is required.
1518:Generated_Source\PSoC5/Segments.c **** *  uint8 alignment: How to align the provided number in the allocated digits.
1519:Generated_Source\PSoC5/Segments.c **** *       RIGHT_ALIGN - Least significant digit occupies the rightmost digit
1520:Generated_Source\PSoC5/Segments.c **** *                     (position + digits). Unused digits are turned off unless
1521:Generated_Source\PSoC5/Segments.c **** *                     ZERO_PAD enabled.
1522:Generated_Source\PSoC5/Segments.c **** *       LEFT_ALIGN - Most significant digit (or negative sign) occupies the
1523:Generated_Source\PSoC5/Segments.c **** *                    digit specified by position. Unused digits are turned off.
1524:Generated_Source\PSoC5/Segments.c **** *       ZERO_PAD - Unused digits to the left are padded with leading zeros.
1525:Generated_Source\PSoC5/Segments.c **** * Return:
1526:Generated_Source\PSoC5/Segments.c **** *  None
1527:Generated_Source\PSoC5/Segments.c **** *
1528:Generated_Source\PSoC5/Segments.c **** * Side effects:
1529:Generated_Source\PSoC5/Segments.c **** *  None
1530:Generated_Source\PSoC5/Segments.c **** *
1531:Generated_Source\PSoC5/Segments.c **** *******************************************************************************/
1532:Generated_Source\PSoC5/Segments.c **** void Segments_Write14SegNumberDec(int32 number, uint8 position, uint8 digits, uint8 alignment)
1533:Generated_Source\PSoC5/Segments.c **** 
1534:Generated_Source\PSoC5/Segments.c **** {
1535:Generated_Source\PSoC5/Segments.c ****     uint8 i;
1536:Generated_Source\PSoC5/Segments.c ****     uint8 relPosition;
1537:Generated_Source\PSoC5/Segments.c ****     uint8 numberSign;
1538:Generated_Source\PSoC5/Segments.c ****     uint8 selectVal;
1539:Generated_Source\PSoC5/Segments.c ****     uint8 zeroCount = 0u;
1540:Generated_Source\PSoC5/Segments.c ****     uint16 bufArray[8u] = {0u};
1541:Generated_Source\PSoC5/Segments.c ****     uint32 numberVal;
1542:Generated_Source\PSoC5/Segments.c ****         
1543:Generated_Source\PSoC5/Segments.c ****     /* Routine to extract the sign and to convert to unsigned */
1544:Generated_Source\PSoC5/Segments.c ****     if(number >= Segments_ZERO_NEG)
1545:Generated_Source\PSoC5/Segments.c ****     {
1546:Generated_Source\PSoC5/Segments.c ****         numberVal = (uint32)number;
1547:Generated_Source\PSoC5/Segments.c ****         numberSign = Segments_UNSIGNED;
1548:Generated_Source\PSoC5/Segments.c ****     }
1549:Generated_Source\PSoC5/Segments.c ****     else
1550:Generated_Source\PSoC5/Segments.c ****     {
1551:Generated_Source\PSoC5/Segments.c ****         numberVal = (uint32)(-number);
1552:Generated_Source\PSoC5/Segments.c ****         numberSign = Segments_SIGNED;
1553:Generated_Source\PSoC5/Segments.c ****     }
1554:Generated_Source\PSoC5/Segments.c ****     
1555:Generated_Source\PSoC5/Segments.c ****     /* Fill up the temporary array */
1556:Generated_Source\PSoC5/Segments.c ****     for(i = digits; i > 0u; i--)
1557:Generated_Source\PSoC5/Segments.c ****     {
1558:Generated_Source\PSoC5/Segments.c ****         selectVal = (uint8)(numberVal % 10u);
1559:Generated_Source\PSoC5/Segments.c ****         bufArray[i-1u] = Segments_EncodeNumber14Seg(selectVal);
1560:Generated_Source\PSoC5/Segments.c ****         numberVal = numberVal / 10u;
1561:Generated_Source\PSoC5/Segments.c ****     }
1562:Generated_Source\PSoC5/Segments.c ****     
1563:Generated_Source\PSoC5/Segments.c ****     /* Clean up the array and place sign if needed */
1564:Generated_Source\PSoC5/Segments.c ****     if(alignment == Segments_ZERO_PAD)
1565:Generated_Source\PSoC5/Segments.c ****     {
1566:Generated_Source\PSoC5/Segments.c ****         if(numberSign == Segments_SIGNED)
1567:Generated_Source\PSoC5/Segments.c ****         {
ARM GAS  C:\Users\Esteban\AppData\Local\Temp\ccHxlO6N.s 			page 45


1568:Generated_Source\PSoC5/Segments.c ****             /* Place sign on the MSB */
1569:Generated_Source\PSoC5/Segments.c ****             bufArray[0u] = Segments_EncodeChar14Seg('-');
1570:Generated_Source\PSoC5/Segments.c ****         }
1571:Generated_Source\PSoC5/Segments.c ****     }
1572:Generated_Source\PSoC5/Segments.c ****     else
1573:Generated_Source\PSoC5/Segments.c ****     {
1574:Generated_Source\PSoC5/Segments.c ****         for(i = 0u; i < digits; i++)
1575:Generated_Source\PSoC5/Segments.c ****         {
1576:Generated_Source\PSoC5/Segments.c ****             if (bufArray[i] != Segments_ZERO_14CHAR)
1577:Generated_Source\PSoC5/Segments.c ****             {
1578:Generated_Source\PSoC5/Segments.c ****                 if(numberSign == Segments_SIGNED)
1579:Generated_Source\PSoC5/Segments.c ****                 {
1580:Generated_Source\PSoC5/Segments.c ****                     if(i == 0u)
1581:Generated_Source\PSoC5/Segments.c ****                     {
1582:Generated_Source\PSoC5/Segments.c ****                         /* Place sign on the MSB */
1583:Generated_Source\PSoC5/Segments.c ****                         bufArray[i] = Segments_EncodeChar14Seg('-');
1584:Generated_Source\PSoC5/Segments.c ****                     }
1585:Generated_Source\PSoC5/Segments.c ****                     else
1586:Generated_Source\PSoC5/Segments.c ****                     {
1587:Generated_Source\PSoC5/Segments.c ****                         /* Place sign before MSB */
1588:Generated_Source\PSoC5/Segments.c ****                         bufArray[i-1u] = Segments_EncodeChar14Seg('-');
1589:Generated_Source\PSoC5/Segments.c ****                     }
1590:Generated_Source\PSoC5/Segments.c ****                 }
1591:Generated_Source\PSoC5/Segments.c ****                 /* Exit when encountering non-zero number */
1592:Generated_Source\PSoC5/Segments.c ****                 break;
1593:Generated_Source\PSoC5/Segments.c ****             }
1594:Generated_Source\PSoC5/Segments.c ****             else
1595:Generated_Source\PSoC5/Segments.c ****             {
1596:Generated_Source\PSoC5/Segments.c ****                 if(zeroCount != (digits - 1u))
1597:Generated_Source\PSoC5/Segments.c ****                 {
1598:Generated_Source\PSoC5/Segments.c ****                     /* Turn off the display */
1599:Generated_Source\PSoC5/Segments.c ****                     bufArray[i] = Segments_CLEAR_16;
1600:Generated_Source\PSoC5/Segments.c ****                     zeroCount++;
1601:Generated_Source\PSoC5/Segments.c ****                 }
1602:Generated_Source\PSoC5/Segments.c ****             }    
1603:Generated_Source\PSoC5/Segments.c ****         }
1604:Generated_Source\PSoC5/Segments.c ****     }
1605:Generated_Source\PSoC5/Segments.c ****     
1606:Generated_Source\PSoC5/Segments.c ****     relPosition = position;
1607:Generated_Source\PSoC5/Segments.c ****     
1608:Generated_Source\PSoC5/Segments.c ****     /* Place the values in the segment array according to alignment */
1609:Generated_Source\PSoC5/Segments.c ****     if(alignment == Segments_LEFT_ALIGN)
1610:Generated_Source\PSoC5/Segments.c ****     {
1611:Generated_Source\PSoC5/Segments.c ****         for(i = 0u; i < digits; i++)
1612:Generated_Source\PSoC5/Segments.c ****         {
1613:Generated_Source\PSoC5/Segments.c ****             if(bufArray[i] != Segments_CLEAR_16)
1614:Generated_Source\PSoC5/Segments.c ****             {
1615:Generated_Source\PSoC5/Segments.c ****                 if(relPosition < Segments_NUM_COM)
1616:Generated_Source\PSoC5/Segments.c ****                 {
1617:Generated_Source\PSoC5/Segments.c ****                     /* Only show displays that are not empty */
1618:Generated_Source\PSoC5/Segments.c ****                     Segments_segLBuffer[relPosition] = LO8(bufArray[i]);
1619:Generated_Source\PSoC5/Segments.c ****                 #if (Segments_NUM_SEG > 8u)
1620:Generated_Source\PSoC5/Segments.c ****                     Segments_segMBuffer[relPosition] = HI8(bufArray[i]);
1621:Generated_Source\PSoC5/Segments.c ****                 #endif /* (Segments_NUM_SEG > 8u) */
1622:Generated_Source\PSoC5/Segments.c ****                 }
1623:Generated_Source\PSoC5/Segments.c ****                 relPosition++;
1624:Generated_Source\PSoC5/Segments.c ****             }
ARM GAS  C:\Users\Esteban\AppData\Local\Temp\ccHxlO6N.s 			page 46


1625:Generated_Source\PSoC5/Segments.c ****         }
1626:Generated_Source\PSoC5/Segments.c ****         /* Clear the rest of the positions to the right of value */
1627:Generated_Source\PSoC5/Segments.c ****         while(relPosition < digits)
1628:Generated_Source\PSoC5/Segments.c ****         {
1629:Generated_Source\PSoC5/Segments.c ****             /* Only show displays that are not empty */
1630:Generated_Source\PSoC5/Segments.c ****             Segments_segLBuffer[relPosition] = Segments_CLEAR;
1631:Generated_Source\PSoC5/Segments.c ****             #if (Segments_NUM_SEG > 8u)
1632:Generated_Source\PSoC5/Segments.c ****                 Segments_segMBuffer[relPosition] = Segments_CLEAR;
1633:Generated_Source\PSoC5/Segments.c ****             #endif /* (Segments_NUM_SEG > 8u) */
1634:Generated_Source\PSoC5/Segments.c ****             
1635:Generated_Source\PSoC5/Segments.c ****             relPosition++;
1636:Generated_Source\PSoC5/Segments.c ****         }
1637:Generated_Source\PSoC5/Segments.c ****     }
1638:Generated_Source\PSoC5/Segments.c ****     else
1639:Generated_Source\PSoC5/Segments.c ****     {
1640:Generated_Source\PSoC5/Segments.c ****         for(i = digits; i > 0u; i--)
1641:Generated_Source\PSoC5/Segments.c ****         {
1642:Generated_Source\PSoC5/Segments.c ****             if(((i + relPosition) - 1u) < Segments_NUM_COM)
1643:Generated_Source\PSoC5/Segments.c ****             {
1644:Generated_Source\PSoC5/Segments.c ****                 Segments_segLBuffer[(i + relPosition) - 1u] = LO8(bufArray[i-1u]);
1645:Generated_Source\PSoC5/Segments.c ****             #if (Segments_NUM_SEG > 8u)
1646:Generated_Source\PSoC5/Segments.c ****                 Segments_segMBuffer[(i + relPosition) - 1u] = HI8(bufArray[i-1u]);
1647:Generated_Source\PSoC5/Segments.c ****             #endif /* (Segments_NUM_SEG > 8u) */
1648:Generated_Source\PSoC5/Segments.c ****             }
1649:Generated_Source\PSoC5/Segments.c ****         }  
1650:Generated_Source\PSoC5/Segments.c ****     }
1651:Generated_Source\PSoC5/Segments.c **** }
1652:Generated_Source\PSoC5/Segments.c **** 
1653:Generated_Source\PSoC5/Segments.c **** 
1654:Generated_Source\PSoC5/Segments.c **** /*******************************************************************************
1655:Generated_Source\PSoC5/Segments.c **** * Function Name: Segments_Write14SegNumberHex
1656:Generated_Source\PSoC5/Segments.c **** ********************************************************************************
1657:Generated_Source\PSoC5/Segments.c **** *
1658:Generated_Source\PSoC5/Segments.c **** * Summary:
1659:Generated_Source\PSoC5/Segments.c **** *  Displays a hexadecimal number up to 8 characters long, starting at 'position'
1660:Generated_Source\PSoC5/Segments.c **** *  and extending for 'digits' characters. If you do not use the correct number
1661:Generated_Source\PSoC5/Segments.c **** *  of digits for your number, the least significant digits will be displayed. 
1662:Generated_Source\PSoC5/Segments.c **** *  For example, if value is 0xDEADBEEF, display is 0 and digits is 4, the result
1663:Generated_Source\PSoC5/Segments.c **** *  will be: BEEF.
1664:Generated_Source\PSoC5/Segments.c **** *
1665:Generated_Source\PSoC5/Segments.c **** * Parameters:
1666:Generated_Source\PSoC5/Segments.c **** *  uint32 number: The hexadecimal number to display. It is the responsibility 
1667:Generated_Source\PSoC5/Segments.c **** *                 of the user to ensure that the display has enough digits to 
1668:Generated_Source\PSoC5/Segments.c **** *                 accurately represent the number passed to this function. If 
1669:Generated_Source\PSoC5/Segments.c **** *                 not, only the least significant digits will be displayed.
1670:Generated_Source\PSoC5/Segments.c **** *  uint8 position: Position of the Display/Common to start number.
1671:Generated_Source\PSoC5/Segments.c **** *  uint8 digits: The number of digits you wish to use to display the value 
1672:Generated_Source\PSoC5/Segments.c **** *                passed into the function. If you do not use the correct number
1673:Generated_Source\PSoC5/Segments.c **** *                of digits for your number, the least significant digits will 
1674:Generated_Source\PSoC5/Segments.c **** *                be displayed.
1675:Generated_Source\PSoC5/Segments.c **** *  uint8 alignment: How to align the provided number in the allocated digits.
1676:Generated_Source\PSoC5/Segments.c **** *       RIGHT_ALIGN - Least significant digit occupies the rightmost digit
1677:Generated_Source\PSoC5/Segments.c **** *                     (position + digits). Unused digits are turned off unless
1678:Generated_Source\PSoC5/Segments.c **** *                     ZERO_PAD enabled.
1679:Generated_Source\PSoC5/Segments.c **** *       LEFT_ALIGN - Most significant digit (or negative sign) occupies the
1680:Generated_Source\PSoC5/Segments.c **** *                    digit specified by position. Unused digits are turned off.
1681:Generated_Source\PSoC5/Segments.c **** *       ZERO_PAD - Unused digits to the left are padded with leading zeros.
ARM GAS  C:\Users\Esteban\AppData\Local\Temp\ccHxlO6N.s 			page 47


1682:Generated_Source\PSoC5/Segments.c **** * Return:
1683:Generated_Source\PSoC5/Segments.c **** *  None
1684:Generated_Source\PSoC5/Segments.c **** *
1685:Generated_Source\PSoC5/Segments.c **** * Side effects:
1686:Generated_Source\PSoC5/Segments.c **** *  None
1687:Generated_Source\PSoC5/Segments.c **** *
1688:Generated_Source\PSoC5/Segments.c **** *******************************************************************************/
1689:Generated_Source\PSoC5/Segments.c **** void Segments_Write14SegNumberHex(uint32 number, uint8 position, uint8 digits, uint8 alignment)
1690:Generated_Source\PSoC5/Segments.c **** 
1691:Generated_Source\PSoC5/Segments.c **** {
1692:Generated_Source\PSoC5/Segments.c ****     uint8 i;
1693:Generated_Source\PSoC5/Segments.c ****     uint8 relPosition;
1694:Generated_Source\PSoC5/Segments.c ****     uint8 selectVal;
1695:Generated_Source\PSoC5/Segments.c ****     uint16 bufArray[8u] = {0u};
1696:Generated_Source\PSoC5/Segments.c ****     uint32 numberVal;
1697:Generated_Source\PSoC5/Segments.c ****     
1698:Generated_Source\PSoC5/Segments.c ****     numberVal = number;
1699:Generated_Source\PSoC5/Segments.c ****     
1700:Generated_Source\PSoC5/Segments.c ****     /* Fill up the temporary array */
1701:Generated_Source\PSoC5/Segments.c ****     for(i = digits; i > 0u; i--)
1702:Generated_Source\PSoC5/Segments.c ****     {
1703:Generated_Source\PSoC5/Segments.c ****         selectVal = (uint8)((uint8)numberVal & Segments_NIBBLE_MASK);
1704:Generated_Source\PSoC5/Segments.c ****         bufArray[i-1u] = Segments_EncodeNumber14Seg(selectVal);
1705:Generated_Source\PSoC5/Segments.c ****         numberVal = (uint32)((uint32)numberVal >> Segments_SHIFT_NIBBLE);
1706:Generated_Source\PSoC5/Segments.c ****     }
1707:Generated_Source\PSoC5/Segments.c ****     
1708:Generated_Source\PSoC5/Segments.c ****     /* Clean up the array */
1709:Generated_Source\PSoC5/Segments.c ****     for(i = 0u; i < digits; i++)
1710:Generated_Source\PSoC5/Segments.c ****     {
1711:Generated_Source\PSoC5/Segments.c ****         if (bufArray[i] != Segments_ZERO_14CHAR)
1712:Generated_Source\PSoC5/Segments.c ****         {
1713:Generated_Source\PSoC5/Segments.c ****             /* Exit when encountering non-zero number */
1714:Generated_Source\PSoC5/Segments.c ****             break;
1715:Generated_Source\PSoC5/Segments.c ****         }
1716:Generated_Source\PSoC5/Segments.c ****         else
1717:Generated_Source\PSoC5/Segments.c ****         {
1718:Generated_Source\PSoC5/Segments.c ****             /* Turn off the display */
1719:Generated_Source\PSoC5/Segments.c ****             bufArray[i] = Segments_CLEAR_16;
1720:Generated_Source\PSoC5/Segments.c ****         }    
1721:Generated_Source\PSoC5/Segments.c ****     }
1722:Generated_Source\PSoC5/Segments.c ****     
1723:Generated_Source\PSoC5/Segments.c ****     relPosition = position;
1724:Generated_Source\PSoC5/Segments.c ****     
1725:Generated_Source\PSoC5/Segments.c ****     /* Place the values in the segment array according to alignment */
1726:Generated_Source\PSoC5/Segments.c ****     if(alignment == Segments_LEFT_ALIGN)
1727:Generated_Source\PSoC5/Segments.c ****     {
1728:Generated_Source\PSoC5/Segments.c ****         for(i = 0u; i < digits; i++)
1729:Generated_Source\PSoC5/Segments.c ****         {
1730:Generated_Source\PSoC5/Segments.c ****             if(bufArray[i] != Segments_CLEAR_16)
1731:Generated_Source\PSoC5/Segments.c ****             {
1732:Generated_Source\PSoC5/Segments.c ****                 if(relPosition < Segments_NUM_COM)
1733:Generated_Source\PSoC5/Segments.c ****                 {
1734:Generated_Source\PSoC5/Segments.c ****                     /* Only show displays that are not empty */
1735:Generated_Source\PSoC5/Segments.c ****                     Segments_segLBuffer[relPosition] = LO8(bufArray[i]);
1736:Generated_Source\PSoC5/Segments.c ****                 #if (Segments_NUM_SEG > 8u)
1737:Generated_Source\PSoC5/Segments.c ****                     Segments_segMBuffer[relPosition] = HI8(bufArray[i]);
1738:Generated_Source\PSoC5/Segments.c ****                 #endif /* (Segments_NUM_SEG > 8u) */
ARM GAS  C:\Users\Esteban\AppData\Local\Temp\ccHxlO6N.s 			page 48


1739:Generated_Source\PSoC5/Segments.c ****                 }
1740:Generated_Source\PSoC5/Segments.c ****                 relPosition++;
1741:Generated_Source\PSoC5/Segments.c ****             }
1742:Generated_Source\PSoC5/Segments.c ****         }
1743:Generated_Source\PSoC5/Segments.c ****         /* Clear the rest of the positions to the right of value */
1744:Generated_Source\PSoC5/Segments.c ****         while(relPosition < digits)
1745:Generated_Source\PSoC5/Segments.c ****         {
1746:Generated_Source\PSoC5/Segments.c ****             /* Only show displays that are not empty */
1747:Generated_Source\PSoC5/Segments.c ****             Segments_segLBuffer[relPosition] = Segments_CLEAR;
1748:Generated_Source\PSoC5/Segments.c ****             #if (Segments_NUM_SEG > 8u)
1749:Generated_Source\PSoC5/Segments.c ****                 Segments_segMBuffer[relPosition] = Segments_CLEAR;
1750:Generated_Source\PSoC5/Segments.c ****             #endif /* (Segments_NUM_SEG > 8u) */
1751:Generated_Source\PSoC5/Segments.c ****             
1752:Generated_Source\PSoC5/Segments.c ****             relPosition++;
1753:Generated_Source\PSoC5/Segments.c ****         }
1754:Generated_Source\PSoC5/Segments.c ****     }
1755:Generated_Source\PSoC5/Segments.c ****     else
1756:Generated_Source\PSoC5/Segments.c ****     {
1757:Generated_Source\PSoC5/Segments.c ****         for(i = digits; i > 0u; i--)
1758:Generated_Source\PSoC5/Segments.c ****         {
1759:Generated_Source\PSoC5/Segments.c ****             if(((i + relPosition) - 1u) < Segments_NUM_COM)
1760:Generated_Source\PSoC5/Segments.c ****             {
1761:Generated_Source\PSoC5/Segments.c ****                 Segments_segLBuffer[(i + relPosition) - 1u] = LO8(bufArray[i-1u]);
1762:Generated_Source\PSoC5/Segments.c ****             #if (Segments_NUM_SEG > 8u)
1763:Generated_Source\PSoC5/Segments.c ****                 Segments_segMBuffer[(i + relPosition) - 1u] = HI8(bufArray[i-1u]);
1764:Generated_Source\PSoC5/Segments.c ****             #endif /* (Segments_NUM_SEG > 8u) */
1765:Generated_Source\PSoC5/Segments.c ****             }
1766:Generated_Source\PSoC5/Segments.c ****         }  
1767:Generated_Source\PSoC5/Segments.c ****     }
1768:Generated_Source\PSoC5/Segments.c **** }
1769:Generated_Source\PSoC5/Segments.c **** 
1770:Generated_Source\PSoC5/Segments.c **** 
1771:Generated_Source\PSoC5/Segments.c **** /*******************************************************************************
1772:Generated_Source\PSoC5/Segments.c **** * Function Name: Segments_WriteString14Seg
1773:Generated_Source\PSoC5/Segments.c **** ********************************************************************************
1774:Generated_Source\PSoC5/Segments.c **** *
1775:Generated_Source\PSoC5/Segments.c **** * Summary:
1776:Generated_Source\PSoC5/Segments.c **** *  Displays a null terminated string starting at 'position' and ending at 
1777:Generated_Source\PSoC5/Segments.c **** *  either the  the string or the  the display. The displayable 
1778:Generated_Source\PSoC5/Segments.c **** *  characters are the same for the LED_Driver_PutCharacter() function. 
1779:Generated_Source\PSoC5/Segments.c **** *  Non-displayable characters will produce a blank space.
1780:Generated_Source\PSoC5/Segments.c **** *
1781:Generated_Source\PSoC5/Segments.c **** * Parameters:
1782:Generated_Source\PSoC5/Segments.c **** *  char8 const character[]: The null terminated string to be displayed.
1783:Generated_Source\PSoC5/Segments.c **** *  uint8 position: The position to start the string.
1784:Generated_Source\PSoC5/Segments.c **** *
1785:Generated_Source\PSoC5/Segments.c **** * Return:
1786:Generated_Source\PSoC5/Segments.c **** *  None
1787:Generated_Source\PSoC5/Segments.c **** *
1788:Generated_Source\PSoC5/Segments.c **** * Side effects:
1789:Generated_Source\PSoC5/Segments.c **** *  None
1790:Generated_Source\PSoC5/Segments.c **** *
1791:Generated_Source\PSoC5/Segments.c **** *******************************************************************************/
1792:Generated_Source\PSoC5/Segments.c **** void Segments_WriteString14Seg(char8 const character[], uint8 position)
1793:Generated_Source\PSoC5/Segments.c **** 
1794:Generated_Source\PSoC5/Segments.c **** {
1795:Generated_Source\PSoC5/Segments.c ****     uint8 currPosition;
ARM GAS  C:\Users\Esteban\AppData\Local\Temp\ccHxlO6N.s 			page 49


1796:Generated_Source\PSoC5/Segments.c ****     uint8 sizeLimit;
1797:Generated_Source\PSoC5/Segments.c ****     uint8 i = 0u;
1798:Generated_Source\PSoC5/Segments.c ****     uint16 charDisplay;
1799:Generated_Source\PSoC5/Segments.c ****     
1800:Generated_Source\PSoC5/Segments.c ****     sizeLimit = (uint8)(strlen(character)) + position;
1801:Generated_Source\PSoC5/Segments.c ****     
1802:Generated_Source\PSoC5/Segments.c ****     for(currPosition = position; currPosition < Segments_NUM_COM; currPosition++)
1803:Generated_Source\PSoC5/Segments.c ****     {
1804:Generated_Source\PSoC5/Segments.c ****         if(currPosition < sizeLimit)
1805:Generated_Source\PSoC5/Segments.c ****         {
1806:Generated_Source\PSoC5/Segments.c ****             charDisplay = Segments_EncodeChar14Seg(character[i]);
1807:Generated_Source\PSoC5/Segments.c ****             Segments_segLBuffer[currPosition] = LO8(charDisplay);
1808:Generated_Source\PSoC5/Segments.c ****             #if (Segments_NUM_SEG > 8u)
1809:Generated_Source\PSoC5/Segments.c ****             Segments_segMBuffer[currPosition] = HI8(charDisplay);
1810:Generated_Source\PSoC5/Segments.c ****             #endif /* (Segments_NUM_SEG > 8u) */
1811:Generated_Source\PSoC5/Segments.c ****             i++;
1812:Generated_Source\PSoC5/Segments.c ****         }
1813:Generated_Source\PSoC5/Segments.c ****     }
1814:Generated_Source\PSoC5/Segments.c **** }
1815:Generated_Source\PSoC5/Segments.c **** 
1816:Generated_Source\PSoC5/Segments.c **** 
1817:Generated_Source\PSoC5/Segments.c **** /*******************************************************************************
1818:Generated_Source\PSoC5/Segments.c **** * Function Name: Segments_PutChar14Seg
1819:Generated_Source\PSoC5/Segments.c **** ********************************************************************************
1820:Generated_Source\PSoC5/Segments.c **** *
1821:Generated_Source\PSoC5/Segments.c **** * Summary:
1822:Generated_Source\PSoC5/Segments.c **** *  Displays an ascii encoded character at 'position'. This function can display
1823:Generated_Source\PSoC5/Segments.c **** *  all alphanumeric characters. The function can also display '-', '.', '_', 
1824:Generated_Source\PSoC5/Segments.c **** *  ' ', and '='. All unknown characters are displayed as a space.
1825:Generated_Source\PSoC5/Segments.c **** *
1826:Generated_Source\PSoC5/Segments.c **** * Parameters:
1827:Generated_Source\PSoC5/Segments.c **** *  char8 character: ASCII character.
1828:Generated_Source\PSoC5/Segments.c **** *  uint8 position: The position of the character.
1829:Generated_Source\PSoC5/Segments.c **** *
1830:Generated_Source\PSoC5/Segments.c **** * Return:
1831:Generated_Source\PSoC5/Segments.c **** *  None
1832:Generated_Source\PSoC5/Segments.c **** *
1833:Generated_Source\PSoC5/Segments.c **** * Side effects:
1834:Generated_Source\PSoC5/Segments.c **** *  None
1835:Generated_Source\PSoC5/Segments.c **** *
1836:Generated_Source\PSoC5/Segments.c **** *******************************************************************************/
1837:Generated_Source\PSoC5/Segments.c **** void Segments_PutChar14Seg(char8 character , uint8 position)
1838:Generated_Source\PSoC5/Segments.c **** 
1839:Generated_Source\PSoC5/Segments.c **** {
1840:Generated_Source\PSoC5/Segments.c ****     uint16 charDisplay;
1841:Generated_Source\PSoC5/Segments.c ****     
1842:Generated_Source\PSoC5/Segments.c ****     if(position < Segments_NUM_COM)
1843:Generated_Source\PSoC5/Segments.c ****     {
1844:Generated_Source\PSoC5/Segments.c ****         charDisplay = Segments_EncodeChar14Seg(character);
1845:Generated_Source\PSoC5/Segments.c ****         Segments_segLBuffer[position] = LO8(charDisplay);
1846:Generated_Source\PSoC5/Segments.c ****     #if (Segments_NUM_SEG > 8u)
1847:Generated_Source\PSoC5/Segments.c ****         Segments_segMBuffer[position] = HI8(charDisplay);
1848:Generated_Source\PSoC5/Segments.c ****     #endif /* (Segments_NUM_SEG > 8u) */
1849:Generated_Source\PSoC5/Segments.c ****     }
1850:Generated_Source\PSoC5/Segments.c **** }
1851:Generated_Source\PSoC5/Segments.c **** 
1852:Generated_Source\PSoC5/Segments.c **** 
ARM GAS  C:\Users\Esteban\AppData\Local\Temp\ccHxlO6N.s 			page 50


1853:Generated_Source\PSoC5/Segments.c **** /*******************************************************************************
1854:Generated_Source\PSoC5/Segments.c **** * Function Name: Segments_Write14SegDigitDec
1855:Generated_Source\PSoC5/Segments.c **** ********************************************************************************
1856:Generated_Source\PSoC5/Segments.c **** *
1857:Generated_Source\PSoC5/Segments.c **** * Summary:
1858:Generated_Source\PSoC5/Segments.c **** *  Displays a single digit on the specified display. The number in 'digit' 
1859:Generated_Source\PSoC5/Segments.c **** *  (0-9) is placed on 'position'.
1860:Generated_Source\PSoC5/Segments.c **** *
1861:Generated_Source\PSoC5/Segments.c **** * Parameters:
1862:Generated_Source\PSoC5/Segments.c **** *  uint8 digit: A number between 0 and 9 to display.
1863:Generated_Source\PSoC5/Segments.c **** *  uint8 position: Position of the display in which to place the number.
1864:Generated_Source\PSoC5/Segments.c **** *
1865:Generated_Source\PSoC5/Segments.c **** * Return:
1866:Generated_Source\PSoC5/Segments.c **** *  None
1867:Generated_Source\PSoC5/Segments.c **** *
1868:Generated_Source\PSoC5/Segments.c **** * Side effects:
1869:Generated_Source\PSoC5/Segments.c **** *  None
1870:Generated_Source\PSoC5/Segments.c **** *
1871:Generated_Source\PSoC5/Segments.c **** *******************************************************************************/
1872:Generated_Source\PSoC5/Segments.c **** void Segments_Write14SegDigitDec(uint8 digit, uint8 position)
1873:Generated_Source\PSoC5/Segments.c **** 
1874:Generated_Source\PSoC5/Segments.c **** {
1875:Generated_Source\PSoC5/Segments.c ****     uint16 charDisplay;
1876:Generated_Source\PSoC5/Segments.c ****     
1877:Generated_Source\PSoC5/Segments.c ****     if((digit < 10u) && (position < Segments_NUM_COM))
1878:Generated_Source\PSoC5/Segments.c ****     {
1879:Generated_Source\PSoC5/Segments.c ****         charDisplay = Segments_EncodeNumber14Seg(digit);
1880:Generated_Source\PSoC5/Segments.c ****         Segments_segLBuffer[position] = LO8(charDisplay);
1881:Generated_Source\PSoC5/Segments.c ****     #if (Segments_NUM_SEG > 8u)
1882:Generated_Source\PSoC5/Segments.c ****         Segments_segMBuffer[position] = HI8(charDisplay);
1883:Generated_Source\PSoC5/Segments.c ****     #endif /* (Segments_NUM_SEG > 8u) */
1884:Generated_Source\PSoC5/Segments.c ****     }
1885:Generated_Source\PSoC5/Segments.c **** }
1886:Generated_Source\PSoC5/Segments.c **** 
1887:Generated_Source\PSoC5/Segments.c **** 
1888:Generated_Source\PSoC5/Segments.c **** /*******************************************************************************
1889:Generated_Source\PSoC5/Segments.c **** * Function Name: Segments_Write14SegDigitHex
1890:Generated_Source\PSoC5/Segments.c **** ********************************************************************************
1891:Generated_Source\PSoC5/Segments.c **** *
1892:Generated_Source\PSoC5/Segments.c **** * Summary:
1893:Generated_Source\PSoC5/Segments.c **** *  Displays a single digit at the specified position. The number in 'digit' 
1894:Generated_Source\PSoC5/Segments.c **** *  (0-F) is placed on 'position'.
1895:Generated_Source\PSoC5/Segments.c **** *
1896:Generated_Source\PSoC5/Segments.c **** * Parameters:
1897:Generated_Source\PSoC5/Segments.c **** *  uint8 digit: A number between 0x0 and 0xF (0 to 15)
1898:Generated_Source\PSoC5/Segments.c **** *  uint8 position: The position in which to place the number.
1899:Generated_Source\PSoC5/Segments.c **** *
1900:Generated_Source\PSoC5/Segments.c **** * Return:
1901:Generated_Source\PSoC5/Segments.c **** *  None
1902:Generated_Source\PSoC5/Segments.c **** *
1903:Generated_Source\PSoC5/Segments.c **** * Side effects:
1904:Generated_Source\PSoC5/Segments.c **** *  None
1905:Generated_Source\PSoC5/Segments.c **** *
1906:Generated_Source\PSoC5/Segments.c **** *******************************************************************************/
1907:Generated_Source\PSoC5/Segments.c **** void Segments_Write14SegDigitHex(uint8 digit, uint8 position)
1908:Generated_Source\PSoC5/Segments.c **** 
1909:Generated_Source\PSoC5/Segments.c **** {
ARM GAS  C:\Users\Esteban\AppData\Local\Temp\ccHxlO6N.s 			page 51


1910:Generated_Source\PSoC5/Segments.c ****     uint16 charDisplay;
1911:Generated_Source\PSoC5/Segments.c **** 
1912:Generated_Source\PSoC5/Segments.c ****     if(position < Segments_NUM_COM)
1913:Generated_Source\PSoC5/Segments.c ****     {
1914:Generated_Source\PSoC5/Segments.c ****         charDisplay = Segments_EncodeNumber14Seg(digit);
1915:Generated_Source\PSoC5/Segments.c ****         Segments_segLBuffer[position] = LO8(charDisplay);
1916:Generated_Source\PSoC5/Segments.c ****     #if (Segments_NUM_SEG > 8u)
1917:Generated_Source\PSoC5/Segments.c ****         Segments_segMBuffer[position] = HI8(charDisplay);
1918:Generated_Source\PSoC5/Segments.c ****     #endif /* (Segments_NUM_SEG > 8u) */
1919:Generated_Source\PSoC5/Segments.c ****     }
1920:Generated_Source\PSoC5/Segments.c **** }
1921:Generated_Source\PSoC5/Segments.c **** 
1922:Generated_Source\PSoC5/Segments.c **** 
1923:Generated_Source\PSoC5/Segments.c **** /*******************************************************************************
1924:Generated_Source\PSoC5/Segments.c **** * Function Name: Segments_Write16SegNumberDec
1925:Generated_Source\PSoC5/Segments.c **** ********************************************************************************
1926:Generated_Source\PSoC5/Segments.c **** *
1927:Generated_Source\PSoC5/Segments.c **** * Summary:
1928:Generated_Source\PSoC5/Segments.c **** *  Displays a signed integer up to 8 characters long, starting at 'position' 
1929:Generated_Source\PSoC5/Segments.c **** *  and extending for 'digits' characters. The negative sign will take an extra 
1930:Generated_Source\PSoC5/Segments.c **** *  digit if it is required.
1931:Generated_Source\PSoC5/Segments.c **** *
1932:Generated_Source\PSoC5/Segments.c **** * Parameters:
1933:Generated_Source\PSoC5/Segments.c **** *  int32 number: a signed integer number to display. It is the responsibility 
1934:Generated_Source\PSoC5/Segments.c **** *                of the user to ensure that the display has enough digits to 
1935:Generated_Source\PSoC5/Segments.c **** *                accurately represent the number passed to this function. If 
1936:Generated_Source\PSoC5/Segments.c **** *                not, the least significant digits will be displayed. Also 
1937:Generated_Source\PSoC5/Segments.c **** *                note that a negative number will require 1 more digit than the
1938:Generated_Source\PSoC5/Segments.c **** *                equivalent positive number to display the negative sign.
1939:Generated_Source\PSoC5/Segments.c **** *  uint8 position: Digit position of the Display/Common RAM to start.
1940:Generated_Source\PSoC5/Segments.c **** *  uint8 digits: The number of digits you wish to use to display the value 
1941:Generated_Source\PSoC5/Segments.c **** *                passed into the function. The negative sign will take an extra 
1942:Generated_Source\PSoC5/Segments.c **** *                digit if it is required.
1943:Generated_Source\PSoC5/Segments.c **** *  uint8 alignment: How to align the provided number in the allocated digits.
1944:Generated_Source\PSoC5/Segments.c **** *       RIGHT_ALIGN - Least significant digit occupies the rightmost digit
1945:Generated_Source\PSoC5/Segments.c **** *                     (position + digits). Unused digits are turned off unless
1946:Generated_Source\PSoC5/Segments.c **** *                     ZERO_PAD enabled.
1947:Generated_Source\PSoC5/Segments.c **** *       LEFT_ALIGN - Most significant digit (or negative sign) occupies the
1948:Generated_Source\PSoC5/Segments.c **** *                    digit specified by position. Unused digits are turned off.
1949:Generated_Source\PSoC5/Segments.c **** *       ZERO_PAD - Unused digits to the left are padded with leading zeros.
1950:Generated_Source\PSoC5/Segments.c **** * Return:
1951:Generated_Source\PSoC5/Segments.c **** *  None
1952:Generated_Source\PSoC5/Segments.c **** *
1953:Generated_Source\PSoC5/Segments.c **** * Side effects:
1954:Generated_Source\PSoC5/Segments.c **** *  None
1955:Generated_Source\PSoC5/Segments.c **** *
1956:Generated_Source\PSoC5/Segments.c **** *******************************************************************************/
1957:Generated_Source\PSoC5/Segments.c **** void Segments_Write16SegNumberDec(int32 number, uint8 position, uint8 digits, uint8 alignment)
1958:Generated_Source\PSoC5/Segments.c **** 
1959:Generated_Source\PSoC5/Segments.c **** {
1960:Generated_Source\PSoC5/Segments.c ****     uint8 i;
1961:Generated_Source\PSoC5/Segments.c ****     uint8 relPosition;
1962:Generated_Source\PSoC5/Segments.c ****     uint8 numberSign;
1963:Generated_Source\PSoC5/Segments.c ****     uint8 selectVal;
1964:Generated_Source\PSoC5/Segments.c ****     uint8 zeroCount = 0u;
1965:Generated_Source\PSoC5/Segments.c ****     uint16 bufArray[8u] = {0u};
1966:Generated_Source\PSoC5/Segments.c ****     uint32 numberVal;
ARM GAS  C:\Users\Esteban\AppData\Local\Temp\ccHxlO6N.s 			page 52


1967:Generated_Source\PSoC5/Segments.c ****     
1968:Generated_Source\PSoC5/Segments.c ****     /* Routine to extract the sign and to convert to unsigned */
1969:Generated_Source\PSoC5/Segments.c ****     if(number >= Segments_ZERO_NEG)
1970:Generated_Source\PSoC5/Segments.c ****     {
1971:Generated_Source\PSoC5/Segments.c ****         numberVal = (uint32)number;
1972:Generated_Source\PSoC5/Segments.c ****         numberSign = Segments_UNSIGNED;
1973:Generated_Source\PSoC5/Segments.c ****     }
1974:Generated_Source\PSoC5/Segments.c ****     else
1975:Generated_Source\PSoC5/Segments.c ****     {
1976:Generated_Source\PSoC5/Segments.c ****         numberVal = (uint32)(-number);
1977:Generated_Source\PSoC5/Segments.c ****         numberSign = Segments_SIGNED;
1978:Generated_Source\PSoC5/Segments.c ****     }
1979:Generated_Source\PSoC5/Segments.c ****     
1980:Generated_Source\PSoC5/Segments.c ****     /* Fill up the temporary array */
1981:Generated_Source\PSoC5/Segments.c ****     for(i = digits; i > 0u; i--)
1982:Generated_Source\PSoC5/Segments.c ****     {
1983:Generated_Source\PSoC5/Segments.c ****         selectVal = (uint8)(numberVal % 10u);
1984:Generated_Source\PSoC5/Segments.c ****         bufArray[i-1u] = Segments_EncodeNumber16Seg(selectVal);
1985:Generated_Source\PSoC5/Segments.c ****         numberVal = numberVal / 10u;
1986:Generated_Source\PSoC5/Segments.c ****     }
1987:Generated_Source\PSoC5/Segments.c ****     
1988:Generated_Source\PSoC5/Segments.c ****     /* Clean up the array and place sign if needed */
1989:Generated_Source\PSoC5/Segments.c ****     if(alignment == Segments_ZERO_PAD)
1990:Generated_Source\PSoC5/Segments.c ****     {
1991:Generated_Source\PSoC5/Segments.c ****         if(numberSign == Segments_SIGNED)
1992:Generated_Source\PSoC5/Segments.c ****         {
1993:Generated_Source\PSoC5/Segments.c ****             /* Place sign on the MSB */
1994:Generated_Source\PSoC5/Segments.c ****             bufArray[0u] = Segments_EncodeChar16Seg('-');
1995:Generated_Source\PSoC5/Segments.c ****         }
1996:Generated_Source\PSoC5/Segments.c ****     }
1997:Generated_Source\PSoC5/Segments.c ****     else
1998:Generated_Source\PSoC5/Segments.c ****     {
1999:Generated_Source\PSoC5/Segments.c ****         for(i = 0u; i < digits; i++)
2000:Generated_Source\PSoC5/Segments.c ****         {
2001:Generated_Source\PSoC5/Segments.c ****             if (bufArray[i] != Segments_ZERO_16CHAR)
2002:Generated_Source\PSoC5/Segments.c ****             {
2003:Generated_Source\PSoC5/Segments.c ****                 if(numberSign == Segments_SIGNED)
2004:Generated_Source\PSoC5/Segments.c ****                 {
2005:Generated_Source\PSoC5/Segments.c ****                     if(i == 0u)
2006:Generated_Source\PSoC5/Segments.c ****                     {
2007:Generated_Source\PSoC5/Segments.c ****                         /* Place sign on the MSB */
2008:Generated_Source\PSoC5/Segments.c ****                         bufArray[i] = Segments_EncodeChar16Seg('-');
2009:Generated_Source\PSoC5/Segments.c ****                     }
2010:Generated_Source\PSoC5/Segments.c ****                     else
2011:Generated_Source\PSoC5/Segments.c ****                     {
2012:Generated_Source\PSoC5/Segments.c ****                         /* Place sign before MSB */
2013:Generated_Source\PSoC5/Segments.c ****                         bufArray[i-1u] = Segments_EncodeChar16Seg('-');
2014:Generated_Source\PSoC5/Segments.c ****                     }
2015:Generated_Source\PSoC5/Segments.c ****                 }
2016:Generated_Source\PSoC5/Segments.c ****                 /* Exit when encountering non-zero number */
2017:Generated_Source\PSoC5/Segments.c ****                 break;
2018:Generated_Source\PSoC5/Segments.c ****             }
2019:Generated_Source\PSoC5/Segments.c ****             else
2020:Generated_Source\PSoC5/Segments.c ****             {
2021:Generated_Source\PSoC5/Segments.c ****                 if(zeroCount != (digits - 1u))
2022:Generated_Source\PSoC5/Segments.c ****                 {
2023:Generated_Source\PSoC5/Segments.c ****                     /* Turn off the display */
ARM GAS  C:\Users\Esteban\AppData\Local\Temp\ccHxlO6N.s 			page 53


2024:Generated_Source\PSoC5/Segments.c ****                     bufArray[i] = Segments_CLEAR_16;
2025:Generated_Source\PSoC5/Segments.c ****                     zeroCount++;
2026:Generated_Source\PSoC5/Segments.c ****                 }
2027:Generated_Source\PSoC5/Segments.c ****             }    
2028:Generated_Source\PSoC5/Segments.c ****         }
2029:Generated_Source\PSoC5/Segments.c ****     }
2030:Generated_Source\PSoC5/Segments.c ****     
2031:Generated_Source\PSoC5/Segments.c ****     relPosition = position;
2032:Generated_Source\PSoC5/Segments.c ****     
2033:Generated_Source\PSoC5/Segments.c ****     /* Place the values in the segment array according to alignment */
2034:Generated_Source\PSoC5/Segments.c ****     if(alignment == Segments_LEFT_ALIGN)
2035:Generated_Source\PSoC5/Segments.c ****     {
2036:Generated_Source\PSoC5/Segments.c ****         for(i = 0u; i < digits; i++)
2037:Generated_Source\PSoC5/Segments.c ****         {
2038:Generated_Source\PSoC5/Segments.c ****             if(bufArray[i] != Segments_CLEAR_16)
2039:Generated_Source\PSoC5/Segments.c ****             {
2040:Generated_Source\PSoC5/Segments.c ****                 if(relPosition < Segments_NUM_COM)
2041:Generated_Source\PSoC5/Segments.c ****                 {
2042:Generated_Source\PSoC5/Segments.c ****                     /* Only show displays that are not empty */
2043:Generated_Source\PSoC5/Segments.c ****                     Segments_segLBuffer[relPosition] = LO8(bufArray[i]);
2044:Generated_Source\PSoC5/Segments.c ****                 #if (Segments_NUM_SEG > 8u)
2045:Generated_Source\PSoC5/Segments.c ****                     Segments_segMBuffer[relPosition] = HI8(bufArray[i]);
2046:Generated_Source\PSoC5/Segments.c ****                 #endif /* (Segments_NUM_SEG > 8u) */
2047:Generated_Source\PSoC5/Segments.c ****                 }
2048:Generated_Source\PSoC5/Segments.c ****                 relPosition++;
2049:Generated_Source\PSoC5/Segments.c ****             }
2050:Generated_Source\PSoC5/Segments.c ****         }
2051:Generated_Source\PSoC5/Segments.c ****         /* Clear the rest of the positions to the right of value */
2052:Generated_Source\PSoC5/Segments.c ****         while(relPosition < digits)
2053:Generated_Source\PSoC5/Segments.c ****         {
2054:Generated_Source\PSoC5/Segments.c ****             /* Only show displays that are not empty */
2055:Generated_Source\PSoC5/Segments.c ****             Segments_segLBuffer[relPosition] = Segments_CLEAR;
2056:Generated_Source\PSoC5/Segments.c ****             #if (Segments_NUM_SEG > 8u)
2057:Generated_Source\PSoC5/Segments.c ****                 Segments_segMBuffer[relPosition] = Segments_CLEAR;
2058:Generated_Source\PSoC5/Segments.c ****             #endif /* (Segments_NUM_SEG > 8u) */
2059:Generated_Source\PSoC5/Segments.c ****             
2060:Generated_Source\PSoC5/Segments.c ****             relPosition++;
2061:Generated_Source\PSoC5/Segments.c ****         }
2062:Generated_Source\PSoC5/Segments.c ****     }
2063:Generated_Source\PSoC5/Segments.c ****     else
2064:Generated_Source\PSoC5/Segments.c ****     {
2065:Generated_Source\PSoC5/Segments.c ****         for(i = digits; i > 0u; i--)
2066:Generated_Source\PSoC5/Segments.c ****         {
2067:Generated_Source\PSoC5/Segments.c ****             if(((i + relPosition) - 1u) < Segments_NUM_COM)
2068:Generated_Source\PSoC5/Segments.c ****             {
2069:Generated_Source\PSoC5/Segments.c ****                 Segments_segLBuffer[(i + relPosition) - 1u] = LO8(bufArray[i-1u]);
2070:Generated_Source\PSoC5/Segments.c ****             #if (Segments_NUM_SEG > 8u)
2071:Generated_Source\PSoC5/Segments.c ****                 Segments_segMBuffer[(i + relPosition) - 1u] = HI8(bufArray[i-1u]);
2072:Generated_Source\PSoC5/Segments.c ****             #endif /* (Segments_NUM_SEG > 8u) */
2073:Generated_Source\PSoC5/Segments.c ****             }
2074:Generated_Source\PSoC5/Segments.c ****         }
2075:Generated_Source\PSoC5/Segments.c ****     }
2076:Generated_Source\PSoC5/Segments.c **** }
2077:Generated_Source\PSoC5/Segments.c **** 
2078:Generated_Source\PSoC5/Segments.c **** 
2079:Generated_Source\PSoC5/Segments.c **** /*******************************************************************************
2080:Generated_Source\PSoC5/Segments.c **** * Function Name: Segments_Write16SegNumberHex
ARM GAS  C:\Users\Esteban\AppData\Local\Temp\ccHxlO6N.s 			page 54


2081:Generated_Source\PSoC5/Segments.c **** ********************************************************************************
2082:Generated_Source\PSoC5/Segments.c **** *
2083:Generated_Source\PSoC5/Segments.c **** * Summary:
2084:Generated_Source\PSoC5/Segments.c **** *  Displays a hexadecimal number up to 8 characters long, starting at 'position'
2085:Generated_Source\PSoC5/Segments.c **** *  and extending for 'digits' characters. If you do not use the correct number 
2086:Generated_Source\PSoC5/Segments.c **** *  of digits for your number, the least significant digits will be displayed. 
2087:Generated_Source\PSoC5/Segments.c **** *  For example, if value is 0xDEADBEEF, display is 0 and digits is 4, the result
2088:Generated_Source\PSoC5/Segments.c **** *  will be: BEEF.
2089:Generated_Source\PSoC5/Segments.c **** *
2090:Generated_Source\PSoC5/Segments.c **** * Parameters:
2091:Generated_Source\PSoC5/Segments.c **** *  uint32 number: The hexadecimal number to display. It is the responsibility of
2092:Generated_Source\PSoC5/Segments.c **** *  the user to ensure that the display has enough digits to accurately represent
2093:Generated_Source\PSoC5/Segments.c **** *  the number passed to this function.
2094:Generated_Source\PSoC5/Segments.c **** *  uint8 position: Position of the Display/Common to start number.
2095:Generated_Source\PSoC5/Segments.c **** *  uint8 digits: The number of digits you wish to use to display the value 
2096:Generated_Source\PSoC5/Segments.c **** *                passed into the function.
2097:Generated_Source\PSoC5/Segments.c **** *  uint8 alignment: How to align the provided number in the allocated digits.
2098:Generated_Source\PSoC5/Segments.c **** *       RIGHT_ALIGN - Least significant digit occupies the rightmost digit
2099:Generated_Source\PSoC5/Segments.c **** *                     (position + digits). Unused digits are turned off unless
2100:Generated_Source\PSoC5/Segments.c **** *                     ZERO_PAD enabled.
2101:Generated_Source\PSoC5/Segments.c **** *       LEFT_ALIGN - Most significant digit (or negative sign) occupies the
2102:Generated_Source\PSoC5/Segments.c **** *                    digit specified by position. Unused digits are turned off.
2103:Generated_Source\PSoC5/Segments.c **** *       ZERO_PAD - Unused digits to the left are padded with leading zeros.
2104:Generated_Source\PSoC5/Segments.c **** * Return:
2105:Generated_Source\PSoC5/Segments.c **** *  None
2106:Generated_Source\PSoC5/Segments.c **** *
2107:Generated_Source\PSoC5/Segments.c **** * Side effects:
2108:Generated_Source\PSoC5/Segments.c **** *  None
2109:Generated_Source\PSoC5/Segments.c **** *
2110:Generated_Source\PSoC5/Segments.c **** *******************************************************************************/
2111:Generated_Source\PSoC5/Segments.c **** void Segments_Write16SegNumberHex(uint32 number, uint8 position, uint8 digits, uint8 alignment)
2112:Generated_Source\PSoC5/Segments.c **** 
2113:Generated_Source\PSoC5/Segments.c **** {
2114:Generated_Source\PSoC5/Segments.c ****     uint8 i;
2115:Generated_Source\PSoC5/Segments.c ****     uint8 relPosition;
2116:Generated_Source\PSoC5/Segments.c ****     uint8 selectVal;
2117:Generated_Source\PSoC5/Segments.c ****     uint16 bufArray[8u] = {0u};
2118:Generated_Source\PSoC5/Segments.c ****     uint32 numberVal;
2119:Generated_Source\PSoC5/Segments.c ****     
2120:Generated_Source\PSoC5/Segments.c ****     numberVal = number;
2121:Generated_Source\PSoC5/Segments.c ****     
2122:Generated_Source\PSoC5/Segments.c ****     /* Fill up the temporary array */
2123:Generated_Source\PSoC5/Segments.c ****     for(i = digits; i > 0u; i--)
2124:Generated_Source\PSoC5/Segments.c ****     {
2125:Generated_Source\PSoC5/Segments.c ****         selectVal = (uint8)((uint8)numberVal & Segments_NIBBLE_MASK);
2126:Generated_Source\PSoC5/Segments.c ****         bufArray[i-1u] = Segments_EncodeNumber16Seg(selectVal);
2127:Generated_Source\PSoC5/Segments.c ****         numberVal = (uint32)((uint32)numberVal >> Segments_SHIFT_NIBBLE);
2128:Generated_Source\PSoC5/Segments.c ****     }
2129:Generated_Source\PSoC5/Segments.c ****     
2130:Generated_Source\PSoC5/Segments.c ****     /* Clean up the array and place sign if needed */
2131:Generated_Source\PSoC5/Segments.c ****     for(i = 0u; i < digits; i++)
2132:Generated_Source\PSoC5/Segments.c ****     {
2133:Generated_Source\PSoC5/Segments.c ****         if (bufArray[i] != Segments_ZERO_16CHAR)
2134:Generated_Source\PSoC5/Segments.c ****         {
2135:Generated_Source\PSoC5/Segments.c ****             /* Exit when encountering non-zero number */
2136:Generated_Source\PSoC5/Segments.c ****             break;
2137:Generated_Source\PSoC5/Segments.c ****         }
ARM GAS  C:\Users\Esteban\AppData\Local\Temp\ccHxlO6N.s 			page 55


2138:Generated_Source\PSoC5/Segments.c ****         else
2139:Generated_Source\PSoC5/Segments.c ****         {
2140:Generated_Source\PSoC5/Segments.c ****             /* Turn off the display */
2141:Generated_Source\PSoC5/Segments.c ****             bufArray[i] = Segments_CLEAR_16;
2142:Generated_Source\PSoC5/Segments.c ****         }    
2143:Generated_Source\PSoC5/Segments.c ****     }
2144:Generated_Source\PSoC5/Segments.c ****     
2145:Generated_Source\PSoC5/Segments.c ****     relPosition = position;
2146:Generated_Source\PSoC5/Segments.c ****     
2147:Generated_Source\PSoC5/Segments.c ****     /* Place the values in the segment array according to alignment */
2148:Generated_Source\PSoC5/Segments.c ****     if(alignment == Segments_LEFT_ALIGN)
2149:Generated_Source\PSoC5/Segments.c ****     {
2150:Generated_Source\PSoC5/Segments.c ****         for(i = 0u; i < digits; i++)
2151:Generated_Source\PSoC5/Segments.c ****         {
2152:Generated_Source\PSoC5/Segments.c ****             if(bufArray[i] != Segments_CLEAR_16)
2153:Generated_Source\PSoC5/Segments.c ****             {
2154:Generated_Source\PSoC5/Segments.c ****                 if(relPosition < Segments_NUM_COM)
2155:Generated_Source\PSoC5/Segments.c ****                 {
2156:Generated_Source\PSoC5/Segments.c ****                     /* Only show displays that are not empty */
2157:Generated_Source\PSoC5/Segments.c ****                     Segments_segLBuffer[relPosition] = LO8(bufArray[i]);
2158:Generated_Source\PSoC5/Segments.c ****                 #if (Segments_NUM_SEG > 8u)
2159:Generated_Source\PSoC5/Segments.c ****                     Segments_segMBuffer[relPosition] = HI8(bufArray[i]);
2160:Generated_Source\PSoC5/Segments.c ****                 #endif /* (Segments_NUM_SEG > 8u) */
2161:Generated_Source\PSoC5/Segments.c ****                 }
2162:Generated_Source\PSoC5/Segments.c ****                 relPosition++;
2163:Generated_Source\PSoC5/Segments.c ****             }
2164:Generated_Source\PSoC5/Segments.c ****         }
2165:Generated_Source\PSoC5/Segments.c ****         /* Clear the rest of the positions to the right of value */
2166:Generated_Source\PSoC5/Segments.c ****         while(relPosition < digits)
2167:Generated_Source\PSoC5/Segments.c ****         {
2168:Generated_Source\PSoC5/Segments.c ****             /* Only show displays that are not empty */
2169:Generated_Source\PSoC5/Segments.c ****             Segments_segLBuffer[relPosition] = Segments_CLEAR;
2170:Generated_Source\PSoC5/Segments.c ****             #if (Segments_NUM_SEG > 8u)
2171:Generated_Source\PSoC5/Segments.c ****                 Segments_segMBuffer[relPosition] = Segments_CLEAR;
2172:Generated_Source\PSoC5/Segments.c ****             #endif /* (Segments_NUM_SEG > 8u) */
2173:Generated_Source\PSoC5/Segments.c ****             
2174:Generated_Source\PSoC5/Segments.c ****             relPosition++;
2175:Generated_Source\PSoC5/Segments.c ****         }
2176:Generated_Source\PSoC5/Segments.c ****     }
2177:Generated_Source\PSoC5/Segments.c ****     else
2178:Generated_Source\PSoC5/Segments.c ****     {
2179:Generated_Source\PSoC5/Segments.c ****         for(i = digits; i > 0u; i--)
2180:Generated_Source\PSoC5/Segments.c ****         {
2181:Generated_Source\PSoC5/Segments.c ****             if(((i + relPosition) - 1u) < Segments_NUM_COM)
2182:Generated_Source\PSoC5/Segments.c ****             {
2183:Generated_Source\PSoC5/Segments.c ****                 Segments_segLBuffer[(i + relPosition) - 1u] = LO8(bufArray[i-1u]);
2184:Generated_Source\PSoC5/Segments.c ****             #if (Segments_NUM_SEG > 8u)
2185:Generated_Source\PSoC5/Segments.c ****                 Segments_segMBuffer[(i + relPosition) - 1u] = HI8(bufArray[i-1u]);
2186:Generated_Source\PSoC5/Segments.c ****             #endif /* (Segments_NUM_SEG > 8u) */
2187:Generated_Source\PSoC5/Segments.c ****             }
2188:Generated_Source\PSoC5/Segments.c ****         }
2189:Generated_Source\PSoC5/Segments.c ****     }
2190:Generated_Source\PSoC5/Segments.c **** }
2191:Generated_Source\PSoC5/Segments.c **** 
2192:Generated_Source\PSoC5/Segments.c **** 
2193:Generated_Source\PSoC5/Segments.c **** /*******************************************************************************
2194:Generated_Source\PSoC5/Segments.c **** * Function Name: Segments_WriteString16Seg
ARM GAS  C:\Users\Esteban\AppData\Local\Temp\ccHxlO6N.s 			page 56


2195:Generated_Source\PSoC5/Segments.c **** ********************************************************************************
2196:Generated_Source\PSoC5/Segments.c **** *
2197:Generated_Source\PSoC5/Segments.c **** * Summary:
2198:Generated_Source\PSoC5/Segments.c **** *  Displays a null terminated string starting at 'position' and ending at either
2199:Generated_Source\PSoC5/Segments.c **** *  the  the string or the  the display. The displayable characters 
2200:Generated_Source\PSoC5/Segments.c **** *  are the same for the LED_Driver_PutCharacter() function. Non-displayable
2201:Generated_Source\PSoC5/Segments.c **** *  characters will produce a blank space.
2202:Generated_Source\PSoC5/Segments.c **** *
2203:Generated_Source\PSoC5/Segments.c **** * Parameters:
2204:Generated_Source\PSoC5/Segments.c **** *  char8 const character[]: The null terminated string to be displayed.
2205:Generated_Source\PSoC5/Segments.c **** *  uint8 position: The position to start the string.
2206:Generated_Source\PSoC5/Segments.c **** * Return:
2207:Generated_Source\PSoC5/Segments.c **** *  None
2208:Generated_Source\PSoC5/Segments.c **** *
2209:Generated_Source\PSoC5/Segments.c **** * Side effects:
2210:Generated_Source\PSoC5/Segments.c **** *  None
2211:Generated_Source\PSoC5/Segments.c **** *
2212:Generated_Source\PSoC5/Segments.c **** *******************************************************************************/
2213:Generated_Source\PSoC5/Segments.c **** void Segments_WriteString16Seg(char8 const character[], uint8 position)
2214:Generated_Source\PSoC5/Segments.c **** 
2215:Generated_Source\PSoC5/Segments.c **** {
2216:Generated_Source\PSoC5/Segments.c ****     uint8 currPosition;
2217:Generated_Source\PSoC5/Segments.c ****     uint8 sizeLimit;
2218:Generated_Source\PSoC5/Segments.c ****     uint8 i = 0u;
2219:Generated_Source\PSoC5/Segments.c ****     uint16 charDisplay;
2220:Generated_Source\PSoC5/Segments.c ****     
2221:Generated_Source\PSoC5/Segments.c ****     sizeLimit = (uint8)(strlen(character)) + position;
2222:Generated_Source\PSoC5/Segments.c ****     
2223:Generated_Source\PSoC5/Segments.c ****     for(currPosition = position; currPosition < Segments_NUM_COM; currPosition++)
2224:Generated_Source\PSoC5/Segments.c ****     {
2225:Generated_Source\PSoC5/Segments.c ****         if(currPosition < sizeLimit)
2226:Generated_Source\PSoC5/Segments.c ****         {
2227:Generated_Source\PSoC5/Segments.c ****             charDisplay = Segments_EncodeChar16Seg(character[i]);
2228:Generated_Source\PSoC5/Segments.c ****             Segments_segLBuffer[currPosition] = LO8(charDisplay);
2229:Generated_Source\PSoC5/Segments.c ****             #if (Segments_NUM_SEG > 8u)
2230:Generated_Source\PSoC5/Segments.c ****                 Segments_segMBuffer[currPosition] = HI8(charDisplay);
2231:Generated_Source\PSoC5/Segments.c ****             #endif /* (Segments_NUM_SEG > 8u) */
2232:Generated_Source\PSoC5/Segments.c ****             i++;
2233:Generated_Source\PSoC5/Segments.c ****         }
2234:Generated_Source\PSoC5/Segments.c ****     }
2235:Generated_Source\PSoC5/Segments.c **** }
2236:Generated_Source\PSoC5/Segments.c **** 
2237:Generated_Source\PSoC5/Segments.c **** 
2238:Generated_Source\PSoC5/Segments.c **** /*******************************************************************************
2239:Generated_Source\PSoC5/Segments.c **** * Function Name: Segments_PutChar16Seg
2240:Generated_Source\PSoC5/Segments.c **** ********************************************************************************
2241:Generated_Source\PSoC5/Segments.c **** *
2242:Generated_Source\PSoC5/Segments.c **** * Summary:
2243:Generated_Source\PSoC5/Segments.c **** *  Displays an ascii encoded character at 'position'. This function can display 
2244:Generated_Source\PSoC5/Segments.c **** *  all alphanumeric characters. The function can also display '-', '.', '_', 
2245:Generated_Source\PSoC5/Segments.c **** *  ' ', and '='. All unknown characters are displayed as a space.
2246:Generated_Source\PSoC5/Segments.c **** *
2247:Generated_Source\PSoC5/Segments.c **** * Parameters:
2248:Generated_Source\PSoC5/Segments.c **** *  char8 character: ASCII character.
2249:Generated_Source\PSoC5/Segments.c **** *  uint8 position: The position of the character.
2250:Generated_Source\PSoC5/Segments.c **** * Return:
2251:Generated_Source\PSoC5/Segments.c **** *  None
ARM GAS  C:\Users\Esteban\AppData\Local\Temp\ccHxlO6N.s 			page 57


2252:Generated_Source\PSoC5/Segments.c **** *
2253:Generated_Source\PSoC5/Segments.c **** * Side effects:
2254:Generated_Source\PSoC5/Segments.c **** *  None
2255:Generated_Source\PSoC5/Segments.c **** *
2256:Generated_Source\PSoC5/Segments.c **** *******************************************************************************/
2257:Generated_Source\PSoC5/Segments.c **** void Segments_PutChar16Seg(char8 character , uint8 position)
2258:Generated_Source\PSoC5/Segments.c **** 
2259:Generated_Source\PSoC5/Segments.c **** {
2260:Generated_Source\PSoC5/Segments.c ****     uint16 charDisplay;
2261:Generated_Source\PSoC5/Segments.c ****     
2262:Generated_Source\PSoC5/Segments.c ****     if(position < Segments_NUM_COM)
2263:Generated_Source\PSoC5/Segments.c ****     {
2264:Generated_Source\PSoC5/Segments.c ****         charDisplay = Segments_EncodeChar16Seg(character);
2265:Generated_Source\PSoC5/Segments.c ****         Segments_segLBuffer[position] = LO8(charDisplay);
2266:Generated_Source\PSoC5/Segments.c ****         #if (Segments_NUM_SEG > 8u)
2267:Generated_Source\PSoC5/Segments.c ****             Segments_segMBuffer[position] = HI8(charDisplay);
2268:Generated_Source\PSoC5/Segments.c ****         #endif /* (Segments_NUM_SEG > 8u) */
2269:Generated_Source\PSoC5/Segments.c ****     }
2270:Generated_Source\PSoC5/Segments.c **** }
2271:Generated_Source\PSoC5/Segments.c **** 
2272:Generated_Source\PSoC5/Segments.c **** 
2273:Generated_Source\PSoC5/Segments.c **** /*******************************************************************************
2274:Generated_Source\PSoC5/Segments.c **** * Function Name: Segments_Write16SegDigitDec
2275:Generated_Source\PSoC5/Segments.c **** ********************************************************************************
2276:Generated_Source\PSoC5/Segments.c **** *
2277:Generated_Source\PSoC5/Segments.c **** * Summary:
2278:Generated_Source\PSoC5/Segments.c **** *  Displays a single digit on the specified display. The number in 'digit' 
2279:Generated_Source\PSoC5/Segments.c **** *  (0-9) is placed on 'position'.
2280:Generated_Source\PSoC5/Segments.c **** *
2281:Generated_Source\PSoC5/Segments.c **** * Parameters:
2282:Generated_Source\PSoC5/Segments.c **** *  uint8 digit: A number between 0 and 9 to display.
2283:Generated_Source\PSoC5/Segments.c **** *  uint8 position: Position of the display in which to place the number.
2284:Generated_Source\PSoC5/Segments.c **** * Return:
2285:Generated_Source\PSoC5/Segments.c **** *  None
2286:Generated_Source\PSoC5/Segments.c **** *
2287:Generated_Source\PSoC5/Segments.c **** * Side effects:
2288:Generated_Source\PSoC5/Segments.c **** *  None
2289:Generated_Source\PSoC5/Segments.c **** *
2290:Generated_Source\PSoC5/Segments.c **** *******************************************************************************/
2291:Generated_Source\PSoC5/Segments.c **** void Segments_Write16SegDigitDec(uint8 digit, uint8 position)
2292:Generated_Source\PSoC5/Segments.c **** 
2293:Generated_Source\PSoC5/Segments.c **** {
2294:Generated_Source\PSoC5/Segments.c ****     uint16 charDisplay;
2295:Generated_Source\PSoC5/Segments.c ****     
2296:Generated_Source\PSoC5/Segments.c ****     if((digit < 10u) && (position < Segments_NUM_COM))
2297:Generated_Source\PSoC5/Segments.c ****     {
2298:Generated_Source\PSoC5/Segments.c ****         charDisplay = Segments_EncodeNumber16Seg(digit);
2299:Generated_Source\PSoC5/Segments.c ****         Segments_segLBuffer[position] = LO8(charDisplay);
2300:Generated_Source\PSoC5/Segments.c ****         #if (Segments_NUM_SEG > 8u)
2301:Generated_Source\PSoC5/Segments.c ****             Segments_segMBuffer[position] = HI8(charDisplay);
2302:Generated_Source\PSoC5/Segments.c ****         #endif /* (Segments_NUM_SEG > 8u) */
2303:Generated_Source\PSoC5/Segments.c ****     }
2304:Generated_Source\PSoC5/Segments.c **** }
2305:Generated_Source\PSoC5/Segments.c **** 
2306:Generated_Source\PSoC5/Segments.c **** 
2307:Generated_Source\PSoC5/Segments.c **** /*******************************************************************************
2308:Generated_Source\PSoC5/Segments.c **** * Function Name: Segments_Write16SegDigitHex
ARM GAS  C:\Users\Esteban\AppData\Local\Temp\ccHxlO6N.s 			page 58


2309:Generated_Source\PSoC5/Segments.c **** ********************************************************************************
2310:Generated_Source\PSoC5/Segments.c **** *
2311:Generated_Source\PSoC5/Segments.c **** * Summary:
2312:Generated_Source\PSoC5/Segments.c **** *  Displays a single digit at the specified position. The number in 'digit' 
2313:Generated_Source\PSoC5/Segments.c **** *  (0-F) is placed on 'position'.
2314:Generated_Source\PSoC5/Segments.c **** *
2315:Generated_Source\PSoC5/Segments.c **** * Parameters:
2316:Generated_Source\PSoC5/Segments.c **** *  uint8 digit: A number between 0x0 and 0xF (0 to 15).
2317:Generated_Source\PSoC5/Segments.c **** *  uint8 position: The position in which to place the number.
2318:Generated_Source\PSoC5/Segments.c **** * Return:
2319:Generated_Source\PSoC5/Segments.c **** *  None
2320:Generated_Source\PSoC5/Segments.c **** *
2321:Generated_Source\PSoC5/Segments.c **** * Side effects:
2322:Generated_Source\PSoC5/Segments.c **** *  None
2323:Generated_Source\PSoC5/Segments.c **** *
2324:Generated_Source\PSoC5/Segments.c **** *******************************************************************************/
2325:Generated_Source\PSoC5/Segments.c **** void Segments_Write16SegDigitHex(uint8 digit, uint8 position)
2326:Generated_Source\PSoC5/Segments.c **** 
2327:Generated_Source\PSoC5/Segments.c **** {
2328:Generated_Source\PSoC5/Segments.c ****     uint16 charDisplay;
2329:Generated_Source\PSoC5/Segments.c **** 
2330:Generated_Source\PSoC5/Segments.c ****     if(position < Segments_NUM_COM)
2331:Generated_Source\PSoC5/Segments.c ****     {
2332:Generated_Source\PSoC5/Segments.c ****         charDisplay = Segments_EncodeNumber16Seg(digit);
2333:Generated_Source\PSoC5/Segments.c ****         Segments_segLBuffer[position] = LO8(charDisplay);
2334:Generated_Source\PSoC5/Segments.c ****         #if (Segments_NUM_SEG > 8u)
2335:Generated_Source\PSoC5/Segments.c ****             Segments_segMBuffer[position] = HI8(charDisplay);
2336:Generated_Source\PSoC5/Segments.c ****         #endif /* (Segments_NUM_SEG > 8u) */
2337:Generated_Source\PSoC5/Segments.c ****     }
2338:Generated_Source\PSoC5/Segments.c **** }
2339:Generated_Source\PSoC5/Segments.c **** 
2340:Generated_Source\PSoC5/Segments.c **** 
2341:Generated_Source\PSoC5/Segments.c **** /*******************************************************************************
2342:Generated_Source\PSoC5/Segments.c **** * Function Name: Segments_PutDecimalPoint
2343:Generated_Source\PSoC5/Segments.c **** ********************************************************************************
2344:Generated_Source\PSoC5/Segments.c **** *
2345:Generated_Source\PSoC5/Segments.c **** * Summary:
2346:Generated_Source\PSoC5/Segments.c **** *  Sets or clears the decimal point at the specified position.
2347:Generated_Source\PSoC5/Segments.c **** *
2348:Generated_Source\PSoC5/Segments.c **** * Parameters:
2349:Generated_Source\PSoC5/Segments.c **** *  uint8 dp: If the value is > 0 the decimal point will be set, if zero, the 
2350:Generated_Source\PSoC5/Segments.c **** *            decimal point will be cleared.
2351:Generated_Source\PSoC5/Segments.c **** *  uint8 position: The position at which to adjust the decimal point.
2352:Generated_Source\PSoC5/Segments.c **** * Return:
2353:Generated_Source\PSoC5/Segments.c **** *  None
2354:Generated_Source\PSoC5/Segments.c **** *
2355:Generated_Source\PSoC5/Segments.c **** * Side effects:
2356:Generated_Source\PSoC5/Segments.c **** *  None
2357:Generated_Source\PSoC5/Segments.c **** *
2358:Generated_Source\PSoC5/Segments.c **** *******************************************************************************/
2359:Generated_Source\PSoC5/Segments.c **** void Segments_PutDecimalPoint(uint8 dp, uint8 position)
2360:Generated_Source\PSoC5/Segments.c **** 
2361:Generated_Source\PSoC5/Segments.c **** {
 900              		.loc 1 2361 0
 901              		.cfi_startproc
 902              		@ args = 0, pretend = 0, frame = 0
 903              		@ frame_needed = 0, uses_anonymous_args = 0
ARM GAS  C:\Users\Esteban\AppData\Local\Temp\ccHxlO6N.s 			page 59


 904              		@ link register save eliminated.
 905              	.LVL101:
2362:Generated_Source\PSoC5/Segments.c ****     uint8 value;
2363:Generated_Source\PSoC5/Segments.c ****     uint8 relPosition;
2364:Generated_Source\PSoC5/Segments.c ****     
2365:Generated_Source\PSoC5/Segments.c ****     value = Segments_DEC_POINT_VALUE;
2366:Generated_Source\PSoC5/Segments.c ****     
2367:Generated_Source\PSoC5/Segments.c ****     if(position < Segments_NUM_COM)
 906              		.loc 1 2367 0
 907 0000 0329     		cmp	r1, #3
 908 0002 0BD8     		bhi	.L88
 909              	.LVL102:
2368:Generated_Source\PSoC5/Segments.c ****     {
2369:Generated_Source\PSoC5/Segments.c ****         relPosition = position;
2370:Generated_Source\PSoC5/Segments.c ****         if(dp != 0u)
 910              		.loc 1 2370 0
 911 0004 28B1     		cbz	r0, .L90
2371:Generated_Source\PSoC5/Segments.c ****         {
2372:Generated_Source\PSoC5/Segments.c ****             #if(Segments_SEG_DRIVE == Segments_HIGH)
2373:Generated_Source\PSoC5/Segments.c ****                 Segments_segLBuffer[relPosition] |= value;
 912              		.loc 1 2373 0
 913 0006 064A     		ldr	r2, .L91
 914 0008 535C     		ldrb	r3, [r2, r1]	@ zero_extendqisi2
 915 000a 63F07F03 		orn	r3, r3, #127
 916 000e 5354     		strb	r3, [r2, r1]
 917 0010 7047     		bx	lr
 918              	.L90:
2374:Generated_Source\PSoC5/Segments.c ****             #else
2375:Generated_Source\PSoC5/Segments.c ****                 Segments_segLBuffer[relPosition] &= value;
2376:Generated_Source\PSoC5/Segments.c ****             #endif /* (Segments_SEG_DRIVE == Segments_HIGH) */
2377:Generated_Source\PSoC5/Segments.c ****         }
2378:Generated_Source\PSoC5/Segments.c ****         else
2379:Generated_Source\PSoC5/Segments.c ****         {
2380:Generated_Source\PSoC5/Segments.c ****             #if(Segments_SEG_DRIVE == Segments_HIGH)
2381:Generated_Source\PSoC5/Segments.c ****                 Segments_segLBuffer[relPosition] &= ((uint8)(~(uint8)value));
 919              		.loc 1 2381 0
 920 0012 034A     		ldr	r2, .L91
 921 0014 535C     		ldrb	r3, [r2, r1]	@ zero_extendqisi2
 922 0016 03F07F03 		and	r3, r3, #127
 923 001a 5354     		strb	r3, [r2, r1]
 924              	.LVL103:
 925              	.L88:
 926 001c 7047     		bx	lr
 927              	.L92:
 928 001e 00BF     		.align	2
 929              	.L91:
 930 0020 00000000 		.word	Segments_segLBuffer
 931              		.cfi_endproc
 932              	.LFE32:
 933              		.size	Segments_PutDecimalPoint, .-Segments_PutDecimalPoint
 934              		.section	.text.Segments_GetDecimalPoint,"ax",%progbits
 935              		.align	2
 936              		.global	Segments_GetDecimalPoint
 937              		.thumb
 938              		.thumb_func
 939              		.type	Segments_GetDecimalPoint, %function
 940              	Segments_GetDecimalPoint:
ARM GAS  C:\Users\Esteban\AppData\Local\Temp\ccHxlO6N.s 			page 60


 941              	.LFB33:
2382:Generated_Source\PSoC5/Segments.c ****             #else
2383:Generated_Source\PSoC5/Segments.c ****                 Segments_segLBuffer[relPosition] |= ((uint8)(~(uint8)value));
2384:Generated_Source\PSoC5/Segments.c ****             #endif /* (Segments_SEG_DRIVE == Segments_HIGH) */
2385:Generated_Source\PSoC5/Segments.c ****         }
2386:Generated_Source\PSoC5/Segments.c ****     } 
2387:Generated_Source\PSoC5/Segments.c ****     else if (position < Segments_TWO_NUM_COM)
2388:Generated_Source\PSoC5/Segments.c ****     {
2389:Generated_Source\PSoC5/Segments.c ****         #if (Segments_NUM_SEG > 8u)
2390:Generated_Source\PSoC5/Segments.c ****             relPosition = position - Segments_NUM_COM;
2391:Generated_Source\PSoC5/Segments.c ****             if(dp != 0u)
2392:Generated_Source\PSoC5/Segments.c ****             {
2393:Generated_Source\PSoC5/Segments.c ****                 #if(Segments_SEG_DRIVE == Segments_HIGH)
2394:Generated_Source\PSoC5/Segments.c ****                     Segments_segMBuffer[relPosition] |= value;
2395:Generated_Source\PSoC5/Segments.c ****                 #else
2396:Generated_Source\PSoC5/Segments.c ****                     Segments_segMBuffer[relPosition] &= value;
2397:Generated_Source\PSoC5/Segments.c ****                 #endif /* (Segments_SEG_DRIVE == Segments_HIGH) */
2398:Generated_Source\PSoC5/Segments.c ****             }
2399:Generated_Source\PSoC5/Segments.c ****             else
2400:Generated_Source\PSoC5/Segments.c ****             {
2401:Generated_Source\PSoC5/Segments.c ****                 #if(Segments_SEG_DRIVE == Segments_HIGH)
2402:Generated_Source\PSoC5/Segments.c ****                     Segments_segMBuffer[relPosition] &= ((uint8)(~(uint8)value));
2403:Generated_Source\PSoC5/Segments.c ****                 #else
2404:Generated_Source\PSoC5/Segments.c ****                     Segments_segMBuffer[relPosition] |= ((uint8)(~(uint8)value));
2405:Generated_Source\PSoC5/Segments.c ****                 #endif /* (Segments_SEG_DRIVE == Segments_HIGH) */
2406:Generated_Source\PSoC5/Segments.c ****             }
2407:Generated_Source\PSoC5/Segments.c ****         #endif /* (Segments_NUM_SEG > 8u) */
2408:Generated_Source\PSoC5/Segments.c ****     } 
2409:Generated_Source\PSoC5/Segments.c ****     else
2410:Generated_Source\PSoC5/Segments.c ****     {
2411:Generated_Source\PSoC5/Segments.c ****         #if (Segments_NUM_SEG > 16u)
2412:Generated_Source\PSoC5/Segments.c ****             relPosition = position - Segments_TWO_NUM_COM;
2413:Generated_Source\PSoC5/Segments.c ****             if(relPosition < Segments_NUM_COM)
2414:Generated_Source\PSoC5/Segments.c ****             {
2415:Generated_Source\PSoC5/Segments.c ****                 if(dp != 0u)
2416:Generated_Source\PSoC5/Segments.c ****                 {
2417:Generated_Source\PSoC5/Segments.c ****                     #if(Segments_SEG_DRIVE == Segments_HIGH)
2418:Generated_Source\PSoC5/Segments.c ****                         Segments_segHBuffer[relPosition] |= value;
2419:Generated_Source\PSoC5/Segments.c ****                     #else
2420:Generated_Source\PSoC5/Segments.c ****                         Segments_segHBuffer[relPosition] &= value;
2421:Generated_Source\PSoC5/Segments.c ****                     #endif /* (Segments_SEG_DRIVE == Segments_HIGH) */
2422:Generated_Source\PSoC5/Segments.c ****                 }
2423:Generated_Source\PSoC5/Segments.c ****                 else
2424:Generated_Source\PSoC5/Segments.c ****                 {
2425:Generated_Source\PSoC5/Segments.c ****                     #if(Segments_SEG_DRIVE == Segments_HIGH)
2426:Generated_Source\PSoC5/Segments.c ****                         Segments_segHBuffer[relPosition] &= ((uint8)(~(uint8)value));
2427:Generated_Source\PSoC5/Segments.c ****                     #else
2428:Generated_Source\PSoC5/Segments.c ****                         Segments_segHBuffer[relPosition] |= ((uint8)(~(uint8)value));
2429:Generated_Source\PSoC5/Segments.c ****                     #endif /* (Segments_SEG_DRIVE == Segments_HIGH) */
2430:Generated_Source\PSoC5/Segments.c ****                 }
2431:Generated_Source\PSoC5/Segments.c ****             }
2432:Generated_Source\PSoC5/Segments.c ****         #endif /* (Segments_NUM_SEG > 16u) */
2433:Generated_Source\PSoC5/Segments.c ****     }
2434:Generated_Source\PSoC5/Segments.c **** }
2435:Generated_Source\PSoC5/Segments.c **** 
2436:Generated_Source\PSoC5/Segments.c **** 
2437:Generated_Source\PSoC5/Segments.c **** /*******************************************************************************
ARM GAS  C:\Users\Esteban\AppData\Local\Temp\ccHxlO6N.s 			page 61


2438:Generated_Source\PSoC5/Segments.c **** * Function Name: Segments_GetDecimalPoint
2439:Generated_Source\PSoC5/Segments.c **** ********************************************************************************
2440:Generated_Source\PSoC5/Segments.c **** *
2441:Generated_Source\PSoC5/Segments.c **** * Summary:
2442:Generated_Source\PSoC5/Segments.c **** *  Returns zero if the decimal point is not set and one if the decimal point 
2443:Generated_Source\PSoC5/Segments.c **** *  is set.
2444:Generated_Source\PSoC5/Segments.c **** *
2445:Generated_Source\PSoC5/Segments.c **** * Parameters:
2446:Generated_Source\PSoC5/Segments.c **** *  uint8 position: The position in which to query the decimal point value.
2447:Generated_Source\PSoC5/Segments.c **** *
2448:Generated_Source\PSoC5/Segments.c **** * Return:
2449:Generated_Source\PSoC5/Segments.c **** *  Returns the current state of the decimal point (segment #7 on a 7-seg 
2450:Generated_Source\PSoC5/Segments.c **** *  display). '1' indicates the decimal point is on. '0' indicates the decimal 
2451:Generated_Source\PSoC5/Segments.c **** *  point is off.
2452:Generated_Source\PSoC5/Segments.c **** *
2453:Generated_Source\PSoC5/Segments.c **** * Side effects:
2454:Generated_Source\PSoC5/Segments.c **** *  None
2455:Generated_Source\PSoC5/Segments.c **** *
2456:Generated_Source\PSoC5/Segments.c **** *******************************************************************************/
2457:Generated_Source\PSoC5/Segments.c **** uint8 Segments_GetDecimalPoint(uint8 position) 
2458:Generated_Source\PSoC5/Segments.c **** {
 942              		.loc 1 2458 0
 943              		.cfi_startproc
 944              		@ args = 0, pretend = 0, frame = 0
 945              		@ frame_needed = 0, uses_anonymous_args = 0
 946              		@ link register save eliminated.
 947              	.LVL104:
2459:Generated_Source\PSoC5/Segments.c ****     uint8 value;
2460:Generated_Source\PSoC5/Segments.c ****     uint8 relPosition;
2461:Generated_Source\PSoC5/Segments.c ****     uint8 decPointVal = 0u;
2462:Generated_Source\PSoC5/Segments.c ****     
2463:Generated_Source\PSoC5/Segments.c ****     if(position < Segments_NUM_COM)
 948              		.loc 1 2463 0
 949 0000 0328     		cmp	r0, #3
 950 0002 03D8     		bhi	.L95
 951              	.LVL105:
2464:Generated_Source\PSoC5/Segments.c ****     {
2465:Generated_Source\PSoC5/Segments.c ****         relPosition = position;
2466:Generated_Source\PSoC5/Segments.c ****         decPointVal = (uint8)((uint8)(Segments_segLBuffer[relPosition]) >> Segments_DEC_POINT);
 952              		.loc 1 2466 0
 953 0004 024B     		ldr	r3, .L96
 954 0006 185C     		ldrb	r0, [r3, r0]	@ zero_extendqisi2
 955              	.LVL106:
 956 0008 C009     		lsrs	r0, r0, #7
 957              	.LVL107:
 958 000a 7047     		bx	lr
 959              	.LVL108:
 960              	.L95:
2461:Generated_Source\PSoC5/Segments.c ****     
 961              		.loc 1 2461 0
 962 000c 0020     		movs	r0, #0
 963              	.LVL109:
2467:Generated_Source\PSoC5/Segments.c ****     } 
2468:Generated_Source\PSoC5/Segments.c ****     else if (position < Segments_TWO_NUM_COM)
2469:Generated_Source\PSoC5/Segments.c ****     {
2470:Generated_Source\PSoC5/Segments.c ****         #if (Segments_NUM_SEG > 8u) 
2471:Generated_Source\PSoC5/Segments.c ****             relPosition = position - Segments_NUM_COM;
ARM GAS  C:\Users\Esteban\AppData\Local\Temp\ccHxlO6N.s 			page 62


2472:Generated_Source\PSoC5/Segments.c ****             decPointVal = (uint8)((uint8)(Segments_segMBuffer[relPosition]) >> Segments_DEC_POINT);
2473:Generated_Source\PSoC5/Segments.c ****         #endif /* (Segments_NUM_SEG > 8u) */
2474:Generated_Source\PSoC5/Segments.c ****     }
2475:Generated_Source\PSoC5/Segments.c ****     else
2476:Generated_Source\PSoC5/Segments.c ****     {
2477:Generated_Source\PSoC5/Segments.c ****         #if (Segments_NUM_SEG > 16u)
2478:Generated_Source\PSoC5/Segments.c ****             relPosition = position - Segments_TWO_NUM_COM;
2479:Generated_Source\PSoC5/Segments.c ****             if(relPosition < Segments_NUM_COM)
2480:Generated_Source\PSoC5/Segments.c ****             {
2481:Generated_Source\PSoC5/Segments.c ****                 decPointVal = (uint8)((uint8)(Segments_segHBuffer[relPosition]) >> Segments_DEC_POI
2482:Generated_Source\PSoC5/Segments.c ****             }
2483:Generated_Source\PSoC5/Segments.c ****         #endif /* (Segments_NUM_SEG > 16u) */
2484:Generated_Source\PSoC5/Segments.c ****     }
2485:Generated_Source\PSoC5/Segments.c ****     
2486:Generated_Source\PSoC5/Segments.c ****     #if(Segments_SEG_DRIVE == Segments_HIGH)
2487:Generated_Source\PSoC5/Segments.c ****         value = (uint8)(decPointVal & Segments_DEC_POINT_MASK);
2488:Generated_Source\PSoC5/Segments.c ****     #else
2489:Generated_Source\PSoC5/Segments.c ****         value = (uint8)((uint8)((uint8)~decPointVal) & Segments_DEC_POINT_MASK);
2490:Generated_Source\PSoC5/Segments.c ****     #endif /* (Segments_SEG_DRIVE == Segments_HIGH) */
2491:Generated_Source\PSoC5/Segments.c ****     
2492:Generated_Source\PSoC5/Segments.c ****     return(value);
2493:Generated_Source\PSoC5/Segments.c **** }
 964              		.loc 1 2493 0
 965 000e 7047     		bx	lr
 966              	.L97:
 967              		.align	2
 968              	.L96:
 969 0010 00000000 		.word	Segments_segLBuffer
 970              		.cfi_endproc
 971              	.LFE33:
 972              		.size	Segments_GetDecimalPoint, .-Segments_GetDecimalPoint
 973              		.section	.text.Segments_EncodeNumber7Seg,"ax",%progbits
 974              		.align	2
 975              		.global	Segments_EncodeNumber7Seg
 976              		.thumb
 977              		.thumb_func
 978              		.type	Segments_EncodeNumber7Seg, %function
 979              	Segments_EncodeNumber7Seg:
 980              	.LFB34:
2494:Generated_Source\PSoC5/Segments.c **** 
2495:Generated_Source\PSoC5/Segments.c **** 
2496:Generated_Source\PSoC5/Segments.c **** /*******************************************************************************
2497:Generated_Source\PSoC5/Segments.c **** * Function Name: Segments_EncodeNumber7Seg
2498:Generated_Source\PSoC5/Segments.c **** ********************************************************************************
2499:Generated_Source\PSoC5/Segments.c **** *
2500:Generated_Source\PSoC5/Segments.c **** * Summary:
2501:Generated_Source\PSoC5/Segments.c **** *  Converts the lower 4 bits of the input into 7-segment data that will display 
2502:Generated_Source\PSoC5/Segments.c **** *  the number in hex on a display. The returned data can be written directly 
2503:Generated_Source\PSoC5/Segments.c **** *  into the display RAM to display the desired number. It is not necessary to 
2504:Generated_Source\PSoC5/Segments.c **** *  use this function since higher level API are provided to both decode the 
2505:Generated_Source\PSoC5/Segments.c **** *  value and write it to the display RAM.
2506:Generated_Source\PSoC5/Segments.c **** *
2507:Generated_Source\PSoC5/Segments.c **** * Parameters:
2508:Generated_Source\PSoC5/Segments.c **** *  uint8 number: A number between 0x0 and 0xF to be converted into segment data.
2509:Generated_Source\PSoC5/Segments.c **** *
2510:Generated_Source\PSoC5/Segments.c **** * Return:
2511:Generated_Source\PSoC5/Segments.c **** *  The value to be written into the display RAM for displaying the specific
ARM GAS  C:\Users\Esteban\AppData\Local\Temp\ccHxlO6N.s 			page 63


2512:Generated_Source\PSoC5/Segments.c **** *  number.
2513:Generated_Source\PSoC5/Segments.c **** *
2514:Generated_Source\PSoC5/Segments.c **** * Side effects:
2515:Generated_Source\PSoC5/Segments.c **** *  None
2516:Generated_Source\PSoC5/Segments.c **** *
2517:Generated_Source\PSoC5/Segments.c **** *******************************************************************************/
2518:Generated_Source\PSoC5/Segments.c **** uint8 Segments_EncodeNumber7Seg(uint8 number) 
2519:Generated_Source\PSoC5/Segments.c **** {
 981              		.loc 1 2519 0
 982              		.cfi_startproc
 983              		@ args = 0, pretend = 0, frame = 0
 984              		@ frame_needed = 0, uses_anonymous_args = 0
 985              		@ link register save eliminated.
 986              	.LVL110:
2520:Generated_Source\PSoC5/Segments.c ****     /* 7-segment numerical LUT */
2521:Generated_Source\PSoC5/Segments.c ****     #if(Segments_SEG_DRIVE == Segments_HIGH)
2522:Generated_Source\PSoC5/Segments.c ****         static const uint8 CYCODE Segments_7SegDigits[16] =
2523:Generated_Source\PSoC5/Segments.c ****               /*--------------------------------------------------------*/
2524:Generated_Source\PSoC5/Segments.c ****               /*  '0'    '1'    '2'    '3'    '4'    '5'    '6'    '7'  */
2525:Generated_Source\PSoC5/Segments.c ****               /*--------------------------------------------------------*/
2526:Generated_Source\PSoC5/Segments.c ****                 {0x3fu, 0x06u, 0x5bu, 0x4fu, 0x66u, 0x6du, 0x7du, 0x07u,
2527:Generated_Source\PSoC5/Segments.c ****               /*--------------------------------------------------------*/
2528:Generated_Source\PSoC5/Segments.c ****               /*  '8'    '9'    'A'    'B'    'C'    'D'    'E'    'F'  */
2529:Generated_Source\PSoC5/Segments.c ****               /*--------------------------------------------------------*/
2530:Generated_Source\PSoC5/Segments.c ****                  0x7fu, 0x6fu, 0x77u, 0x7cu, 0x39u, 0x5eu, 0x79u, 0x71u};
2531:Generated_Source\PSoC5/Segments.c ****     #else
2532:Generated_Source\PSoC5/Segments.c ****         static const uint8 CYCODE Segments_7SegDigits[16] =
2533:Generated_Source\PSoC5/Segments.c ****               /*--------------------------------------------------------*/
2534:Generated_Source\PSoC5/Segments.c ****               /*  '0'    '1'    '2'    '3'    '4'    '5'    '6'    '7'  */
2535:Generated_Source\PSoC5/Segments.c ****               /*--------------------------------------------------------*/
2536:Generated_Source\PSoC5/Segments.c ****                 {0xc0u, 0xf9u, 0xa4u, 0xb0u, 0x99u, 0x92u, 0x82u, 0xf8u,
2537:Generated_Source\PSoC5/Segments.c ****               /*--------------------------------------------------------*/
2538:Generated_Source\PSoC5/Segments.c ****               /*  '8'    '9'    'A'    'B'    'C'    'D'    'E'    'F'  */
2539:Generated_Source\PSoC5/Segments.c ****               /*--------------------------------------------------------*/
2540:Generated_Source\PSoC5/Segments.c ****                  0x80u, 0x90u, 0x88u, 0x83u, 0xc6u, 0xa1u, 0x86u, 0x8eu};
2541:Generated_Source\PSoC5/Segments.c ****     #endif /*  Segments_SEG_DRIVE */
2542:Generated_Source\PSoC5/Segments.c **** 
2543:Generated_Source\PSoC5/Segments.c ****     uint8 valNum;
2544:Generated_Source\PSoC5/Segments.c ****     uint8 valHex;
2545:Generated_Source\PSoC5/Segments.c ****     
2546:Generated_Source\PSoC5/Segments.c ****     valNum = (uint8)(number & Segments_NIBBLE_MASK);
 987              		.loc 1 2546 0
 988 0000 00F00F00 		and	r0, r0, #15
 989              	.LVL111:
2547:Generated_Source\PSoC5/Segments.c ****     
2548:Generated_Source\PSoC5/Segments.c ****     valHex = Segments_7SegDigits[valNum];
2549:Generated_Source\PSoC5/Segments.c ****     
2550:Generated_Source\PSoC5/Segments.c ****     return(valHex);
2551:Generated_Source\PSoC5/Segments.c **** }
 990              		.loc 1 2551 0
 991 0004 014B     		ldr	r3, .L99
 992 0006 185C     		ldrb	r0, [r3, r0]	@ zero_extendqisi2
 993              	.LVL112:
 994 0008 7047     		bx	lr
 995              	.L100:
 996 000a 00BF     		.align	2
 997              	.L99:
ARM GAS  C:\Users\Esteban\AppData\Local\Temp\ccHxlO6N.s 			page 64


 998 000c 00000000 		.word	.LANCHOR2
 999              		.cfi_endproc
 1000              	.LFE34:
 1001              		.size	Segments_EncodeNumber7Seg, .-Segments_EncodeNumber7Seg
 1002              		.section	.text.Segments_Write7SegNumberHex,"ax",%progbits
 1003              		.align	2
 1004              		.global	Segments_Write7SegNumberHex
 1005              		.thumb
 1006              		.thumb_func
 1007              		.type	Segments_Write7SegNumberHex, %function
 1008              	Segments_Write7SegNumberHex:
 1009              	.LFB15:
1122:Generated_Source\PSoC5/Segments.c ****     uint8 i;
 1010              		.loc 1 1122 0
 1011              		.cfi_startproc
 1012              		@ args = 0, pretend = 0, frame = 8
 1013              		@ frame_needed = 0, uses_anonymous_args = 0
 1014              	.LVL113:
 1015 0000 2DE9F043 		push	{r4, r5, r6, r7, r8, r9, lr}
 1016              		.cfi_def_cfa_offset 28
 1017              		.cfi_offset 4, -28
 1018              		.cfi_offset 5, -24
 1019              		.cfi_offset 6, -20
 1020              		.cfi_offset 7, -16
 1021              		.cfi_offset 8, -12
 1022              		.cfi_offset 9, -8
 1023              		.cfi_offset 14, -4
 1024 0004 83B0     		sub	sp, sp, #12
 1025              		.cfi_def_cfa_offset 40
 1026 0006 8146     		mov	r9, r0
 1027 0008 0E46     		mov	r6, r1
 1028 000a 1446     		mov	r4, r2
 1029 000c 9846     		mov	r8, r3
 1030              	.LVL114:
1128:Generated_Source\PSoC5/Segments.c ****     uint32 numberVal;
 1031              		.loc 1 1128 0
 1032 000e 0023     		movs	r3, #0
 1033              	.LVL115:
 1034 0010 0093     		str	r3, [sp]
 1035 0012 0193     		str	r3, [sp, #4]
 1036              	.LVL116:
1134:Generated_Source\PSoC5/Segments.c ****     {
 1037              		.loc 1 1134 0
 1038 0014 0329     		cmp	r1, #3
 1039 0016 0AD9     		bls	.L127
1139:Generated_Source\PSoC5/Segments.c ****     {
 1040              		.loc 1 1139 0
 1041 0018 0729     		cmp	r1, #7
 1042 001a 03D8     		bhi	.L103
 1043              	.LVL117:
1142:Generated_Source\PSoC5/Segments.c ****     }
 1044              		.loc 1 1142 0
 1045 001c 0E1F     		subs	r6, r1, #4
 1046 001e F6B2     		uxtb	r6, r6
 1047              	.LVL118:
1141:Generated_Source\PSoC5/Segments.c ****         relPosition = position - Segments_NUM_COM;
 1048              		.loc 1 1141 0
ARM GAS  C:\Users\Esteban\AppData\Local\Temp\ccHxlO6N.s 			page 65


 1049 0020 0127     		movs	r7, #1
 1050 0022 05E0     		b	.L102
 1051              	.LVL119:
 1052              	.L103:
1147:Generated_Source\PSoC5/Segments.c ****     }
 1053              		.loc 1 1147 0
 1054 0024 A1F10806 		sub	r6, r1, #8
 1055 0028 F6B2     		uxtb	r6, r6
 1056              	.LVL120:
1146:Generated_Source\PSoC5/Segments.c ****         relPosition = position - Segments_TWO_NUM_COM;
 1057              		.loc 1 1146 0
 1058 002a 0227     		movs	r7, #2
 1059 002c 00E0     		b	.L102
 1060              	.LVL121:
 1061              	.L127:
1136:Generated_Source\PSoC5/Segments.c ****         relPosition = position;
 1062              		.loc 1 1136 0
 1063 002e 0027     		movs	r7, #0
 1064              	.L102:
 1065              	.LVL122:
1151:Generated_Source\PSoC5/Segments.c ****     {
 1066              		.loc 1 1151 0
 1067 0030 2346     		mov	r3, r4
 1068 0032 0BE0     		b	.L104
 1069              	.LVL123:
 1070              	.L105:
1154:Generated_Source\PSoC5/Segments.c ****         numberVal = (uint32)((uint32)numberVal >> Segments_SHIFT_NIBBLE);
 1071              		.loc 1 1154 0 discriminator 3
 1072 0034 5D1E     		subs	r5, r3, #1
 1073 0036 09F00F00 		and	r0, r9, #15
 1074 003a FFF7FEFF 		bl	Segments_EncodeNumber7Seg
 1075              	.LVL124:
 1076 003e 02AB     		add	r3, sp, #8
 1077 0040 2B44     		add	r3, r3, r5
 1078 0042 03F8080C 		strb	r0, [r3, #-8]
1155:Generated_Source\PSoC5/Segments.c ****     }
 1079              		.loc 1 1155 0 discriminator 3
 1080 0046 4FEA1919 		lsr	r9, r9, #4
 1081              	.LVL125:
1151:Generated_Source\PSoC5/Segments.c ****     {
 1082              		.loc 1 1151 0 discriminator 3
 1083 004a EBB2     		uxtb	r3, r5
 1084              	.LVL126:
 1085              	.L104:
1151:Generated_Source\PSoC5/Segments.c ****     {
 1086              		.loc 1 1151 0 is_stmt 0 discriminator 1
 1087 004c 002B     		cmp	r3, #0
 1088 004e F1D1     		bne	.L105
1159:Generated_Source\PSoC5/Segments.c ****     {
 1089              		.loc 1 1159 0 is_stmt 1
 1090 0050 B8F1020F 		cmp	r8, #2
 1091 0054 14D1     		bne	.L128
 1092 0056 17E0     		b	.L107
 1093              	.LVL127:
 1094              	.L109:
1163:Generated_Source\PSoC5/Segments.c ****             {
 1095              		.loc 1 1163 0
ARM GAS  C:\Users\Esteban\AppData\Local\Temp\ccHxlO6N.s 			page 66


 1096 0058 1946     		mov	r1, r3
 1097 005a 02A8     		add	r0, sp, #8
 1098 005c 1844     		add	r0, r0, r3
 1099 005e 10F8080C 		ldrb	r0, [r0, #-8]	@ zero_extendqisi2
 1100 0062 3F28     		cmp	r0, #63
 1101 0064 10D1     		bne	.L107
1170:Generated_Source\PSoC5/Segments.c ****                 {
 1102              		.loc 1 1170 0
 1103 0066 601E     		subs	r0, r4, #1
 1104 0068 8242     		cmp	r2, r0
 1105 006a 06D0     		beq	.L108
1173:Generated_Source\PSoC5/Segments.c ****                     zeroCount++;
 1106              		.loc 1 1173 0
 1107 006c 02A8     		add	r0, sp, #8
 1108 006e 0144     		add	r1, r1, r0
 1109 0070 0020     		movs	r0, #0
 1110 0072 01F8080C 		strb	r0, [r1, #-8]
1174:Generated_Source\PSoC5/Segments.c ****                 }
 1111              		.loc 1 1174 0
 1112 0076 0132     		adds	r2, r2, #1
 1113              	.LVL128:
 1114 0078 D2B2     		uxtb	r2, r2
 1115              	.LVL129:
 1116              	.L108:
1161:Generated_Source\PSoC5/Segments.c ****         {
 1117              		.loc 1 1161 0 discriminator 2
 1118 007a 0133     		adds	r3, r3, #1
 1119              	.LVL130:
 1120 007c DBB2     		uxtb	r3, r3
 1121              	.LVL131:
 1122 007e 01E0     		b	.L106
 1123              	.LVL132:
 1124              	.L128:
 1125 0080 0022     		movs	r2, #0
 1126 0082 1346     		mov	r3, r2
 1127              	.LVL133:
 1128              	.L106:
1161:Generated_Source\PSoC5/Segments.c ****         {
 1129              		.loc 1 1161 0 is_stmt 0 discriminator 1
 1130 0084 A342     		cmp	r3, r4
 1131 0086 E7D3     		bcc	.L109
 1132              	.LVL134:
 1133              	.L107:
1181:Generated_Source\PSoC5/Segments.c ****     {
 1134              		.loc 1 1181 0 is_stmt 1
 1135 0088 B8F1010F 		cmp	r8, #1
 1136 008c 42D1     		bne	.L111
 1137 008e 14E0     		b	.L129
 1138              	.L116:
1185:Generated_Source\PSoC5/Segments.c ****             {
 1139              		.loc 1 1185 0
 1140 0090 02AA     		add	r2, sp, #8
 1141 0092 1A44     		add	r2, r2, r3
 1142 0094 12F8082C 		ldrb	r2, [r2, #-8]	@ zero_extendqisi2
 1143 0098 62B1     		cbz	r2, .L112
1187:Generated_Source\PSoC5/Segments.c ****                 {
 1144              		.loc 1 1187 0
ARM GAS  C:\Users\Esteban\AppData\Local\Temp\ccHxlO6N.s 			page 67


 1145 009a 032E     		cmp	r6, #3
 1146 009c 08D8     		bhi	.L113
1190:Generated_Source\PSoC5/Segments.c ****                     {
 1147              		.loc 1 1190 0
 1148 009e 17B1     		cbz	r7, .L115
 1149 00a0 022F     		cmp	r7, #2
 1150 00a2 03D8     		bhi	.L114
 1151 00a4 04E0     		b	.L113
 1152              	.L115:
1193:Generated_Source\PSoC5/Segments.c ****                             break;
 1153              		.loc 1 1193 0
 1154 00a6 1E49     		ldr	r1, .L131
 1155 00a8 8A55     		strb	r2, [r1, r6]
1194:Generated_Source\PSoC5/Segments.c ****                         case Segments_SEG_REG_MID :
 1156              		.loc 1 1194 0
 1157 00aa 01E0     		b	.L113
 1158              	.L114:
1206:Generated_Source\PSoC5/Segments.c ****                             break;
 1159              		.loc 1 1206 0
 1160 00ac 1C49     		ldr	r1, .L131
 1161 00ae 8A55     		strb	r2, [r1, r6]
 1162              	.L113:
1210:Generated_Source\PSoC5/Segments.c ****             }
 1163              		.loc 1 1210 0
 1164 00b0 0136     		adds	r6, r6, #1
 1165              	.LVL135:
 1166 00b2 F6B2     		uxtb	r6, r6
 1167              	.LVL136:
 1168              	.L112:
1183:Generated_Source\PSoC5/Segments.c ****         {
 1169              		.loc 1 1183 0 discriminator 2
 1170 00b4 0133     		adds	r3, r3, #1
 1171              	.LVL137:
 1172 00b6 DBB2     		uxtb	r3, r3
 1173              	.LVL138:
 1174 00b8 00E0     		b	.L110
 1175              	.L129:
 1176 00ba 0023     		movs	r3, #0
 1177              	.LVL139:
 1178              	.L110:
1183:Generated_Source\PSoC5/Segments.c ****         {
 1179              		.loc 1 1183 0 is_stmt 0 discriminator 1
 1180 00bc A342     		cmp	r3, r4
 1181 00be E7D3     		bcc	.L116
 1182 00c0 0CE0     		b	.L117
 1183              	.LVL140:
 1184              	.L121:
1216:Generated_Source\PSoC5/Segments.c ****             {
 1185              		.loc 1 1216 0 is_stmt 1
 1186 00c2 17B1     		cbz	r7, .L119
 1187 00c4 022F     		cmp	r7, #2
 1188 00c6 04D8     		bhi	.L118
 1189 00c8 06E0     		b	.L120
 1190              	.L119:
1219:Generated_Source\PSoC5/Segments.c ****                     break;
 1191              		.loc 1 1219 0
 1192 00ca 0022     		movs	r2, #0
ARM GAS  C:\Users\Esteban\AppData\Local\Temp\ccHxlO6N.s 			page 68


 1193 00cc 144B     		ldr	r3, .L131
 1194 00ce 9A55     		strb	r2, [r3, r6]
1220:Generated_Source\PSoC5/Segments.c ****                 case Segments_SEG_REG_MID :
 1195              		.loc 1 1220 0
 1196 00d0 02E0     		b	.L120
 1197              	.L118:
1232:Generated_Source\PSoC5/Segments.c ****                     break;
 1198              		.loc 1 1232 0
 1199 00d2 0022     		movs	r2, #0
 1200 00d4 124B     		ldr	r3, .L131
 1201 00d6 9A55     		strb	r2, [r3, r6]
 1202              	.L120:
1235:Generated_Source\PSoC5/Segments.c ****         }
 1203              		.loc 1 1235 0
 1204 00d8 0136     		adds	r6, r6, #1
 1205              	.LVL141:
 1206 00da F6B2     		uxtb	r6, r6
 1207              	.LVL142:
 1208              	.L117:
1214:Generated_Source\PSoC5/Segments.c ****         {
 1209              		.loc 1 1214 0
 1210 00dc A642     		cmp	r6, r4
 1211 00de F0D3     		bcc	.L121
 1212 00e0 1AE0     		b	.L101
 1213              	.LVL143:
 1214              	.L126:
1243:Generated_Source\PSoC5/Segments.c ****             {
 1215              		.loc 1 1243 0
 1216 00e2 A319     		adds	r3, r4, r6
 1217 00e4 013B     		subs	r3, r3, #1
 1218 00e6 032B     		cmp	r3, #3
 1219 00e8 12D8     		bhi	.L123
1246:Generated_Source\PSoC5/Segments.c ****                 {
 1220              		.loc 1 1246 0
 1221 00ea 17B1     		cbz	r7, .L125
 1222 00ec 022F     		cmp	r7, #2
 1223 00ee 08D8     		bhi	.L124
 1224 00f0 0EE0     		b	.L123
 1225              	.L125:
1249:Generated_Source\PSoC5/Segments.c ****                         break;
 1226              		.loc 1 1249 0
 1227 00f2 621E     		subs	r2, r4, #1
 1228 00f4 02A9     		add	r1, sp, #8
 1229 00f6 0A44     		add	r2, r2, r1
 1230 00f8 12F8081C 		ldrb	r1, [r2, #-8]	@ zero_extendqisi2
 1231 00fc 084A     		ldr	r2, .L131
 1232 00fe D154     		strb	r1, [r2, r3]
1250:Generated_Source\PSoC5/Segments.c ****                     case Segments_SEG_REG_MID :
 1233              		.loc 1 1250 0
 1234 0100 06E0     		b	.L123
 1235              	.L124:
1262:Generated_Source\PSoC5/Segments.c ****                         break;
 1236              		.loc 1 1262 0
 1237 0102 621E     		subs	r2, r4, #1
 1238 0104 02A9     		add	r1, sp, #8
 1239 0106 0A44     		add	r2, r2, r1
 1240 0108 12F8081C 		ldrb	r1, [r2, #-8]	@ zero_extendqisi2
ARM GAS  C:\Users\Esteban\AppData\Local\Temp\ccHxlO6N.s 			page 69


 1241 010c 044A     		ldr	r2, .L131
 1242 010e D154     		strb	r1, [r2, r3]
 1243              	.L123:
1241:Generated_Source\PSoC5/Segments.c ****         {
 1244              		.loc 1 1241 0 discriminator 2
 1245 0110 013C     		subs	r4, r4, #1
 1246              	.LVL144:
 1247 0112 E4B2     		uxtb	r4, r4
 1248              	.LVL145:
 1249              	.L111:
1241:Generated_Source\PSoC5/Segments.c ****         {
 1250              		.loc 1 1241 0 is_stmt 0 discriminator 1
 1251 0114 002C     		cmp	r4, #0
 1252 0116 E4D1     		bne	.L126
 1253              	.LVL146:
 1254              	.L101:
1268:Generated_Source\PSoC5/Segments.c **** 
 1255              		.loc 1 1268 0 is_stmt 1
 1256 0118 03B0     		add	sp, sp, #12
 1257              		.cfi_def_cfa_offset 28
 1258              		@ sp needed
 1259 011a BDE8F083 		pop	{r4, r5, r6, r7, r8, r9, pc}
 1260              	.LVL147:
 1261              	.L132:
 1262 011e 00BF     		.align	2
 1263              	.L131:
 1264 0120 00000000 		.word	Segments_segLBuffer
 1265              		.cfi_endproc
 1266              	.LFE15:
 1267              		.size	Segments_Write7SegNumberHex, .-Segments_Write7SegNumberHex
 1268              		.section	.text.Segments_Write7SegDigitDec,"ax",%progbits
 1269              		.align	2
 1270              		.global	Segments_Write7SegDigitDec
 1271              		.thumb
 1272              		.thumb_func
 1273              		.type	Segments_Write7SegDigitDec, %function
 1274              	Segments_Write7SegDigitDec:
 1275              	.LFB18:
1417:Generated_Source\PSoC5/Segments.c ****     uint8 relPosition;
 1276              		.loc 1 1417 0
 1277              		.cfi_startproc
 1278              		@ args = 0, pretend = 0, frame = 0
 1279              		@ frame_needed = 0, uses_anonymous_args = 0
 1280              	.LVL148:
1421:Generated_Source\PSoC5/Segments.c ****     {
 1281              		.loc 1 1421 0
 1282 0000 0928     		cmp	r0, #9
 1283 0002 08D8     		bhi	.L136
1423:Generated_Source\PSoC5/Segments.c ****         {
 1284              		.loc 1 1423 0
 1285 0004 0329     		cmp	r1, #3
 1286 0006 06D8     		bhi	.L136
1417:Generated_Source\PSoC5/Segments.c ****     uint8 relPosition;
 1287              		.loc 1 1417 0
 1288 0008 10B5     		push	{r4, lr}
 1289              		.cfi_def_cfa_offset 8
 1290              		.cfi_offset 4, -8
ARM GAS  C:\Users\Esteban\AppData\Local\Temp\ccHxlO6N.s 			page 70


 1291              		.cfi_offset 14, -4
 1292 000a 0C46     		mov	r4, r1
 1293              	.LVL149:
1426:Generated_Source\PSoC5/Segments.c ****         }    
 1294              		.loc 1 1426 0
 1295 000c FFF7FEFF 		bl	Segments_EncodeNumber7Seg
 1296              	.LVL150:
 1297 0010 014B     		ldr	r3, .L137
 1298 0012 1855     		strb	r0, [r3, r4]
 1299 0014 10BD     		pop	{r4, pc}
 1300              	.LVL151:
 1301              	.L136:
 1302              		.cfi_def_cfa_offset 0
 1303              		.cfi_restore 4
 1304              		.cfi_restore 14
 1305 0016 7047     		bx	lr
 1306              	.L138:
 1307              		.align	2
 1308              	.L137:
 1309 0018 00000000 		.word	Segments_segLBuffer
 1310              		.cfi_endproc
 1311              	.LFE18:
 1312              		.size	Segments_Write7SegDigitDec, .-Segments_Write7SegDigitDec
 1313              		.section	.text.Segments_Write7SegDigitHex,"ax",%progbits
 1314              		.align	2
 1315              		.global	Segments_Write7SegDigitHex
 1316              		.thumb
 1317              		.thumb_func
 1318              		.type	Segments_Write7SegDigitHex, %function
 1319              	Segments_Write7SegDigitHex:
 1320              	.LFB19:
1470:Generated_Source\PSoC5/Segments.c ****     uint8 relPosition;
 1321              		.loc 1 1470 0
 1322              		.cfi_startproc
 1323              		@ args = 0, pretend = 0, frame = 0
 1324              		@ frame_needed = 0, uses_anonymous_args = 0
 1325              	.LVL152:
1473:Generated_Source\PSoC5/Segments.c ****     {
 1326              		.loc 1 1473 0
 1327 0000 0329     		cmp	r1, #3
 1328 0002 06D8     		bhi	.L142
1470:Generated_Source\PSoC5/Segments.c ****     uint8 relPosition;
 1329              		.loc 1 1470 0
 1330 0004 10B5     		push	{r4, lr}
 1331              		.cfi_def_cfa_offset 8
 1332              		.cfi_offset 4, -8
 1333              		.cfi_offset 14, -4
 1334 0006 0C46     		mov	r4, r1
 1335              	.LVL153:
1476:Generated_Source\PSoC5/Segments.c ****     }    
 1336              		.loc 1 1476 0
 1337 0008 FFF7FEFF 		bl	Segments_EncodeNumber7Seg
 1338              	.LVL154:
 1339 000c 014B     		ldr	r3, .L143
 1340 000e 1855     		strb	r0, [r3, r4]
 1341 0010 10BD     		pop	{r4, pc}
 1342              	.LVL155:
ARM GAS  C:\Users\Esteban\AppData\Local\Temp\ccHxlO6N.s 			page 71


 1343              	.L142:
 1344              		.cfi_def_cfa_offset 0
 1345              		.cfi_restore 4
 1346              		.cfi_restore 14
 1347 0012 7047     		bx	lr
 1348              	.L144:
 1349              		.align	2
 1350              	.L143:
 1351 0014 00000000 		.word	Segments_segLBuffer
 1352              		.cfi_endproc
 1353              	.LFE19:
 1354              		.size	Segments_Write7SegDigitHex, .-Segments_Write7SegDigitHex
 1355              		.section	.text.Segments_EncodeChar7Seg,"ax",%progbits
 1356              		.align	2
 1357              		.global	Segments_EncodeChar7Seg
 1358              		.thumb
 1359              		.thumb_func
 1360              		.type	Segments_EncodeChar7Seg, %function
 1361              	Segments_EncodeChar7Seg:
 1362              	.LFB35:
2552:Generated_Source\PSoC5/Segments.c **** 
2553:Generated_Source\PSoC5/Segments.c **** 
2554:Generated_Source\PSoC5/Segments.c **** /*******************************************************************************
2555:Generated_Source\PSoC5/Segments.c **** * Function Name: Segments_EncodeChar7Seg
2556:Generated_Source\PSoC5/Segments.c **** ********************************************************************************
2557:Generated_Source\PSoC5/Segments.c **** *
2558:Generated_Source\PSoC5/Segments.c **** * Summary:
2559:Generated_Source\PSoC5/Segments.c **** *  Converts the ASCII encoded alphabet character input into the 7-segment data
2560:Generated_Source\PSoC5/Segments.c **** *  that will display the alphabet character on a display. The returned data can
2561:Generated_Source\PSoC5/Segments.c **** *  be written directly into the display RAM to display the desired number. It is
2562:Generated_Source\PSoC5/Segments.c **** *  not necessary to use this function since higher level API are provided to 
2563:Generated_Source\PSoC5/Segments.c **** *  both decode the value and write it to the display RAM.
2564:Generated_Source\PSoC5/Segments.c **** *
2565:Generated_Source\PSoC5/Segments.c **** * Parameters:
2566:Generated_Source\PSoC5/Segments.c **** *  char8 input: An ASCII alphabet character to be converted into segment data.
2567:Generated_Source\PSoC5/Segments.c **** *
2568:Generated_Source\PSoC5/Segments.c **** * Return:
2569:Generated_Source\PSoC5/Segments.c **** *  The value to be written into the display RAM for displaying the specified
2570:Generated_Source\PSoC5/Segments.c **** *  character.
2571:Generated_Source\PSoC5/Segments.c **** *
2572:Generated_Source\PSoC5/Segments.c **** * Side effects:
2573:Generated_Source\PSoC5/Segments.c **** *  None
2574:Generated_Source\PSoC5/Segments.c **** *
2575:Generated_Source\PSoC5/Segments.c **** *******************************************************************************/
2576:Generated_Source\PSoC5/Segments.c **** uint8 Segments_EncodeChar7Seg(char8 input)  
2577:Generated_Source\PSoC5/Segments.c **** {
 1363              		.loc 1 2577 0
 1364              		.cfi_startproc
 1365              		@ args = 0, pretend = 0, frame = 0
 1366              		@ frame_needed = 0, uses_anonymous_args = 0
 1367              		@ link register save eliminated.
 1368              	.LVL156:
2578:Generated_Source\PSoC5/Segments.c ****     /* 7-segment ASCII LUT */
2579:Generated_Source\PSoC5/Segments.c ****     #if(Segments_SEG_DRIVE == Segments_HIGH)
2580:Generated_Source\PSoC5/Segments.c ****         static const uint8 CYCODE Segments_7SegASCII[6][16] =
2581:Generated_Source\PSoC5/Segments.c ****               {
2582:Generated_Source\PSoC5/Segments.c ****               /*--------------------------------------------------------*/
ARM GAS  C:\Users\Esteban\AppData\Local\Temp\ccHxlO6N.s 			page 72


2583:Generated_Source\PSoC5/Segments.c ****               /* 'Space' '!'    '"'    '#'    '$'    '%'    '&'    '''  */
2584:Generated_Source\PSoC5/Segments.c ****               /*--------------------------------------------------------*/
2585:Generated_Source\PSoC5/Segments.c ****                 {0x00u, 0x00u, 0x00u, 0x00u, 0x00u, 0x00u, 0x00u, 0x00u,
2586:Generated_Source\PSoC5/Segments.c ****               /*--------------------------------------------------------*/
2587:Generated_Source\PSoC5/Segments.c ****               /*  '('    ')'    '*'    '+'    ','    '-'    '.'    '/'  */
2588:Generated_Source\PSoC5/Segments.c ****               /*--------------------------------------------------------*/
2589:Generated_Source\PSoC5/Segments.c ****                  0x00u, 0x00u, 0x00u, 0x00u, 0x00u, 0x40u, 0x80u, 0x00u},
2590:Generated_Source\PSoC5/Segments.c ****               /*--------------------------------------------------------*/   
2591:Generated_Source\PSoC5/Segments.c ****               /*  '0'    '1'    '2'    '3'    '4'    '5'    '6'    '7'  */
2592:Generated_Source\PSoC5/Segments.c ****               /*--------------------------------------------------------*/
2593:Generated_Source\PSoC5/Segments.c ****                 {0x3fu, 0x06u, 0x5bu, 0x4fu, 0x66u, 0x6du, 0x7du, 0x07u,
2594:Generated_Source\PSoC5/Segments.c ****               /*--------------------------------------------------------*/
2595:Generated_Source\PSoC5/Segments.c ****               /*  '8'    '9'    ':'    ';'    '<'    '='    '>'    '?'  */
2596:Generated_Source\PSoC5/Segments.c ****               /*--------------------------------------------------------*/
2597:Generated_Source\PSoC5/Segments.c ****                  0x7fu, 0x6fu, 0x00u, 0x00u, 0x00u, 0x48u, 0x00u, 0x00u},
2598:Generated_Source\PSoC5/Segments.c ****               /*--------------------------------------------------------*/
2599:Generated_Source\PSoC5/Segments.c ****               /*  '@'    'A'    'B'    'C'    'D'    'E'    'F'    'G'  */
2600:Generated_Source\PSoC5/Segments.c ****               /*--------------------------------------------------------*/
2601:Generated_Source\PSoC5/Segments.c ****                 {0x00u, 0x77u, 0x7cu, 0x58u, 0x5eu, 0x79u, 0x71u, 0x3du,
2602:Generated_Source\PSoC5/Segments.c ****               /*--------------------------------------------------------*/
2603:Generated_Source\PSoC5/Segments.c ****               /*  'H'    'I'    'J'    'K'    'L'    'M'    'N'    'O'  */
2604:Generated_Source\PSoC5/Segments.c ****               /*--------------------------------------------------------*/
2605:Generated_Source\PSoC5/Segments.c ****                  0x74u, 0x10u, 0x1Eu, 0x76u, 0x38u, 0x55u, 0x54u, 0x5cu},
2606:Generated_Source\PSoC5/Segments.c ****               /*--------------------------------------------------------*/
2607:Generated_Source\PSoC5/Segments.c ****               /*  'P'    'Q'    'R'    'S'    'T'    'U'    'V'    'W'  */
2608:Generated_Source\PSoC5/Segments.c ****               /*--------------------------------------------------------*/
2609:Generated_Source\PSoC5/Segments.c ****                 {0x73u, 0x67u, 0x50u, 0x6du, 0x78u, 0x1cu, 0x1cu, 0x1du,
2610:Generated_Source\PSoC5/Segments.c ****               /*--------------------------------------------------------*/
2611:Generated_Source\PSoC5/Segments.c ****               /*  'X'    'Y'    'Z'    '['    '\'    ']'    '^'    '_'  */
2612:Generated_Source\PSoC5/Segments.c ****               /*--------------------------------------------------------*/
2613:Generated_Source\PSoC5/Segments.c ****                  0x76u, 0x6eu, 0x5bu, 0x00u, 0x00u, 0x00u, 0x00u, 0x08u},
2614:Generated_Source\PSoC5/Segments.c ****               /*--------------------------------------------------------*/
2615:Generated_Source\PSoC5/Segments.c ****               /*  '`'    'a'    'b'    'c'    'd'    'e'    'f'    'g'  */
2616:Generated_Source\PSoC5/Segments.c ****               /*--------------------------------------------------------*/
2617:Generated_Source\PSoC5/Segments.c ****                 {0x00u, 0x77u, 0x7cu, 0x58u, 0x5eu, 0x79u, 0x71u, 0x3du,
2618:Generated_Source\PSoC5/Segments.c ****               /*--------------------------------------------------------*/
2619:Generated_Source\PSoC5/Segments.c ****               /*  'h'    'i'    'j'    'k'    'l'    'm'    'n'    'o'  */
2620:Generated_Source\PSoC5/Segments.c ****               /*--------------------------------------------------------*/
2621:Generated_Source\PSoC5/Segments.c ****                  0x74u, 0x10u, 0x1Eu, 0x76u, 0x38u, 0x55u, 0x54u, 0x5cu},
2622:Generated_Source\PSoC5/Segments.c ****               /*--------------------------------------------------------*/
2623:Generated_Source\PSoC5/Segments.c ****               /*  'p'    'q'    'r'    's'    't'    'u'    'v'    'w'  */
2624:Generated_Source\PSoC5/Segments.c ****               /*--------------------------------------------------------*/
2625:Generated_Source\PSoC5/Segments.c ****                 {0x73u, 0x67u, 0x50u, 0x6du, 0x78u, 0x1cu, 0x1cu, 0x1du,
2626:Generated_Source\PSoC5/Segments.c ****               /*--------------------------------------------------------*/
2627:Generated_Source\PSoC5/Segments.c ****               /*  'x'    'y'    'z'    '{'    '|'    '}'    '~'   'DEL' */
2628:Generated_Source\PSoC5/Segments.c ****               /*--------------------------------------------------------*/
2629:Generated_Source\PSoC5/Segments.c ****                  0x76u, 0x6eu, 0x5bu, 0x00u, 0x00u, 0x00u, 0x00u, 0x00u}
2630:Generated_Source\PSoC5/Segments.c ****               };
2631:Generated_Source\PSoC5/Segments.c ****     #else
2632:Generated_Source\PSoC5/Segments.c ****         static const uint8 CYCODE Segments_7SegASCII[6][16] =
2633:Generated_Source\PSoC5/Segments.c ****               {
2634:Generated_Source\PSoC5/Segments.c ****               /*--------------------------------------------------------*/
2635:Generated_Source\PSoC5/Segments.c ****               /* 'Space' '!'    '"'    '#'    '$'    '%'    '&'    '''  */
2636:Generated_Source\PSoC5/Segments.c ****               /*--------------------------------------------------------*/
2637:Generated_Source\PSoC5/Segments.c ****                 {0xffu, 0xffu, 0xffu, 0xffu, 0xffu, 0xffu, 0xffu, 0xffu,
2638:Generated_Source\PSoC5/Segments.c ****               /*--------------------------------------------------------*/
2639:Generated_Source\PSoC5/Segments.c ****               /*  '('    ')'    '*'    '+'    ','    '-'    '.'    '/'  */
ARM GAS  C:\Users\Esteban\AppData\Local\Temp\ccHxlO6N.s 			page 73


2640:Generated_Source\PSoC5/Segments.c ****               /*--------------------------------------------------------*/
2641:Generated_Source\PSoC5/Segments.c ****                  0xffu, 0xffu, 0xffu, 0xffu, 0xffu, 0xBfu, 0x7fu, 0xffu},
2642:Generated_Source\PSoC5/Segments.c ****               /*--------------------------------------------------------*/   
2643:Generated_Source\PSoC5/Segments.c ****               /*  '0'    '1'    '2'    '3'    '4'    '5'    '6'    '7'  */
2644:Generated_Source\PSoC5/Segments.c ****               /*--------------------------------------------------------*/
2645:Generated_Source\PSoC5/Segments.c ****                 {0xc0u, 0xf9u, 0xa4u, 0xb0u, 0x99u, 0x92u, 0x82u, 0xf8u,
2646:Generated_Source\PSoC5/Segments.c ****               /*--------------------------------------------------------*/
2647:Generated_Source\PSoC5/Segments.c ****               /*  '8'    '9'    ':'    ';'    '<'    '='    '>'    '?'  */
2648:Generated_Source\PSoC5/Segments.c ****               /*--------------------------------------------------------*/
2649:Generated_Source\PSoC5/Segments.c ****                  0x80u, 0x90u, 0xffu, 0xffu, 0xffu, 0xb7u, 0xffu, 0xffu},
2650:Generated_Source\PSoC5/Segments.c ****               /*--------------------------------------------------------*/
2651:Generated_Source\PSoC5/Segments.c ****               /*  '@'    'A'    'B'    'C'    'D'    'E'    'F'    'G'  */
2652:Generated_Source\PSoC5/Segments.c ****               /*--------------------------------------------------------*/
2653:Generated_Source\PSoC5/Segments.c ****                 {0xffu, 0x88u, 0x83u, 0xa7u, 0xa1u, 0x86u, 0x8eu, 0xc2u,
2654:Generated_Source\PSoC5/Segments.c ****               /*--------------------------------------------------------*/
2655:Generated_Source\PSoC5/Segments.c ****               /*  'H'    'I'    'J'    'K'    'L'    'M'    'N'    'O'  */
2656:Generated_Source\PSoC5/Segments.c ****               /*--------------------------------------------------------*/
2657:Generated_Source\PSoC5/Segments.c ****                  0x8bu, 0xefu, 0xe1u, 0x89u, 0xc7u, 0xaau, 0xabu, 0xa3u},
2658:Generated_Source\PSoC5/Segments.c ****               /*--------------------------------------------------------*/
2659:Generated_Source\PSoC5/Segments.c ****               /*  'P'    'Q'    'R'    'S'    'T'    'U'    'V'    'W'  */
2660:Generated_Source\PSoC5/Segments.c ****               /*--------------------------------------------------------*/
2661:Generated_Source\PSoC5/Segments.c ****                 {0x8cu, 0x98u, 0xafu, 0x92u, 0x87u, 0xe3u, 0xe3u, 0xe2u,
2662:Generated_Source\PSoC5/Segments.c ****               /*--------------------------------------------------------*/
2663:Generated_Source\PSoC5/Segments.c ****               /*  'X'    'Y'    'Z'    '['    '\'    ']'    '^'    '_'  */
2664:Generated_Source\PSoC5/Segments.c ****               /*--------------------------------------------------------*/
2665:Generated_Source\PSoC5/Segments.c ****                  0x89u, 0x91u, 0xa4u, 0xffu, 0xffu, 0xffu, 0xffu, 0xf7u},
2666:Generated_Source\PSoC5/Segments.c ****               /*--------------------------------------------------------*/
2667:Generated_Source\PSoC5/Segments.c ****               /*  '`'    'a'    'b'    'c'    'd'    'e'    'f'    'g'  */
2668:Generated_Source\PSoC5/Segments.c ****               /*--------------------------------------------------------*/
2669:Generated_Source\PSoC5/Segments.c ****                 {0xffu, 0x88u, 0x83u, 0xa7u, 0xa1u, 0x86u, 0x8eu, 0xc2u,
2670:Generated_Source\PSoC5/Segments.c ****               /*--------------------------------------------------------*/
2671:Generated_Source\PSoC5/Segments.c ****               /*  'h'    'i'    'j'    'k'    'l'    'm'    'n'    'o'  */
2672:Generated_Source\PSoC5/Segments.c ****               /*--------------------------------------------------------*/
2673:Generated_Source\PSoC5/Segments.c ****                  0x8bu, 0xefu, 0xe1u, 0x89u, 0xc7u, 0xaau, 0xabu, 0xa3u},
2674:Generated_Source\PSoC5/Segments.c ****               /*--------------------------------------------------------*/
2675:Generated_Source\PSoC5/Segments.c ****               /*  'p'    'q'    'r'    's'    't'    'u'    'v'    'w'  */
2676:Generated_Source\PSoC5/Segments.c ****               /*--------------------------------------------------------*/
2677:Generated_Source\PSoC5/Segments.c ****                 {0x8cu, 0x98u, 0xafu, 0x92u, 0x87u, 0xe3u, 0xe3u, 0xe2u,
2678:Generated_Source\PSoC5/Segments.c ****               /*--------------------------------------------------------*/
2679:Generated_Source\PSoC5/Segments.c ****               /*  'x'    'y'    'z'    '{'    '|'    '}'    '~'   'DEL' */
2680:Generated_Source\PSoC5/Segments.c ****               /*--------------------------------------------------------*/
2681:Generated_Source\PSoC5/Segments.c ****                  0x89u, 0x91u, 0xa4u, 0xffu, 0xffu, 0xffu, 0xffu, 0xffu}
2682:Generated_Source\PSoC5/Segments.c ****               };
2683:Generated_Source\PSoC5/Segments.c ****     #endif /*  Segments_SEG_DRIVE */
2684:Generated_Source\PSoC5/Segments.c ****     
2685:Generated_Source\PSoC5/Segments.c ****     uint8 valLow;
2686:Generated_Source\PSoC5/Segments.c ****     uint8 valHigh;
2687:Generated_Source\PSoC5/Segments.c ****     uint8 valHex;
2688:Generated_Source\PSoC5/Segments.c ****     
2689:Generated_Source\PSoC5/Segments.c ****     valLow = (uint8)((uint8)input & Segments_NIBBLE_MASK);
 1369              		.loc 1 2689 0
 1370 0000 00F00F03 		and	r3, r0, #15
 1371              	.LVL157:
2690:Generated_Source\PSoC5/Segments.c ****     
2691:Generated_Source\PSoC5/Segments.c ****     /* valHigh used to access the row of LUT */
2692:Generated_Source\PSoC5/Segments.c ****     valHigh = (uint8)((uint8)input >> Segments_SHIFT_NIBBLE);
 1372              		.loc 1 2692 0
ARM GAS  C:\Users\Esteban\AppData\Local\Temp\ccHxlO6N.s 			page 74


 1373 0004 0009     		lsrs	r0, r0, #4
 1374              	.LVL158:
2693:Generated_Source\PSoC5/Segments.c ****     
2694:Generated_Source\PSoC5/Segments.c ****     /* Check if the high nibble is within valid ASCII range */
2695:Generated_Source\PSoC5/Segments.c ****     if ((valHigh > Segments_SEG_ASCII_LIM_LO) && (valHigh < Segments_SEG_ASCII_LIM_HI))
 1375              		.loc 1 2695 0
 1376 0006 0238     		subs	r0, r0, #2
 1377              	.LVL159:
 1378 0008 C0B2     		uxtb	r0, r0
 1379              	.LVL160:
 1380 000a 0528     		cmp	r0, #5
 1381 000c 05D8     		bhi	.L147
 1382              	.LVL161:
2696:Generated_Source\PSoC5/Segments.c ****     {
2697:Generated_Source\PSoC5/Segments.c ****         valHigh = valHigh - Segments_SEG_ASCII_OFFSET;
2698:Generated_Source\PSoC5/Segments.c ****         valHex = Segments_7SegASCII[valHigh][valLow];
 1383              		.loc 1 2698 0
 1384 000e 044A     		ldr	r2, .L148
 1385 0010 02EB0010 		add	r0, r2, r0, lsl #4
 1386              	.LVL162:
 1387 0014 0344     		add	r3, r3, r0
 1388              	.LVL163:
 1389 0016 187C     		ldrb	r0, [r3, #16]	@ zero_extendqisi2
 1390              	.LVL164:
 1391 0018 7047     		bx	lr
 1392              	.LVL165:
 1393              	.L147:
2699:Generated_Source\PSoC5/Segments.c ****     }
2700:Generated_Source\PSoC5/Segments.c ****     else
2701:Generated_Source\PSoC5/Segments.c ****     {
2702:Generated_Source\PSoC5/Segments.c ****         valHex = Segments_CLEAR;
 1394              		.loc 1 2702 0
 1395 001a 0020     		movs	r0, #0
 1396              	.LVL166:
2703:Generated_Source\PSoC5/Segments.c ****     }
2704:Generated_Source\PSoC5/Segments.c ****     
2705:Generated_Source\PSoC5/Segments.c ****     return(valHex);
2706:Generated_Source\PSoC5/Segments.c **** }
 1397              		.loc 1 2706 0
 1398 001c 7047     		bx	lr
 1399              	.L149:
 1400 001e 00BF     		.align	2
 1401              	.L148:
 1402 0020 00000000 		.word	.LANCHOR2
 1403              		.cfi_endproc
 1404              	.LFE35:
 1405              		.size	Segments_EncodeChar7Seg, .-Segments_EncodeChar7Seg
 1406              		.section	.text.Segments_Write7SegNumberDec,"ax",%progbits
 1407              		.align	2
 1408              		.global	Segments_Write7SegNumberDec
 1409              		.thumb
 1410              		.thumb_func
 1411              		.type	Segments_Write7SegNumberDec, %function
 1412              	Segments_Write7SegNumberDec:
 1413              	.LFB14:
 903:Generated_Source\PSoC5/Segments.c ****     uint8 i;
 1414              		.loc 1 903 0
ARM GAS  C:\Users\Esteban\AppData\Local\Temp\ccHxlO6N.s 			page 75


 1415              		.cfi_startproc
 1416              		@ args = 0, pretend = 0, frame = 8
 1417              		@ frame_needed = 0, uses_anonymous_args = 0
 1418              	.LVL167:
 1419 0000 2DE9F047 		push	{r4, r5, r6, r7, r8, r9, r10, lr}
 1420              		.cfi_def_cfa_offset 32
 1421              		.cfi_offset 4, -32
 1422              		.cfi_offset 5, -28
 1423              		.cfi_offset 6, -24
 1424              		.cfi_offset 7, -20
 1425              		.cfi_offset 8, -16
 1426              		.cfi_offset 9, -12
 1427              		.cfi_offset 10, -8
 1428              		.cfi_offset 14, -4
 1429 0004 82B0     		sub	sp, sp, #8
 1430              		.cfi_def_cfa_offset 40
 1431 0006 0D46     		mov	r5, r1
 1432 0008 1446     		mov	r4, r2
 1433 000a 1F46     		mov	r7, r3
 1434              	.LVL168:
 910:Generated_Source\PSoC5/Segments.c ****     uint32 numberVal;
 1435              		.loc 1 910 0
 1436 000c 0023     		movs	r3, #0
 1437              	.LVL169:
 1438 000e 0093     		str	r3, [sp]
 1439 0010 0193     		str	r3, [sp, #4]
 914:Generated_Source\PSoC5/Segments.c ****     {
 1440              		.loc 1 914 0
 1441 0012 0329     		cmp	r1, #3
 1442 0014 0AD9     		bls	.L180
 919:Generated_Source\PSoC5/Segments.c ****     {
 1443              		.loc 1 919 0
 1444 0016 0729     		cmp	r1, #7
 1445 0018 03D8     		bhi	.L152
 1446              	.LVL170:
 922:Generated_Source\PSoC5/Segments.c ****     }
 1447              		.loc 1 922 0
 1448 001a 0D1F     		subs	r5, r1, #4
 1449 001c EDB2     		uxtb	r5, r5
 1450              	.LVL171:
 921:Generated_Source\PSoC5/Segments.c ****         relPosition = position - Segments_NUM_COM;
 1451              		.loc 1 921 0
 1452 001e 0126     		movs	r6, #1
 1453 0020 05E0     		b	.L151
 1454              	.LVL172:
 1455              	.L152:
 927:Generated_Source\PSoC5/Segments.c ****     }
 1456              		.loc 1 927 0
 1457 0022 A1F10805 		sub	r5, r1, #8
 1458 0026 EDB2     		uxtb	r5, r5
 1459              	.LVL173:
 926:Generated_Source\PSoC5/Segments.c ****         relPosition = position - Segments_TWO_NUM_COM;
 1460              		.loc 1 926 0
 1461 0028 0226     		movs	r6, #2
 1462 002a 00E0     		b	.L151
 1463              	.LVL174:
 1464              	.L180:
ARM GAS  C:\Users\Esteban\AppData\Local\Temp\ccHxlO6N.s 			page 76


 916:Generated_Source\PSoC5/Segments.c ****         relPosition = position;
 1465              		.loc 1 916 0
 1466 002c 0026     		movs	r6, #0
 1467              	.L151:
 1468              	.LVL175:
 931:Generated_Source\PSoC5/Segments.c ****     {
 1469              		.loc 1 931 0
 1470 002e 0028     		cmp	r0, #0
 1471 0030 03DB     		blt	.L153
 933:Generated_Source\PSoC5/Segments.c ****         numberSign = Segments_UNSIGNED;
 1472              		.loc 1 933 0
 1473 0032 0246     		mov	r2, r0
 1474              	.LVL176:
 934:Generated_Source\PSoC5/Segments.c ****     }
 1475              		.loc 1 934 0
 1476 0034 4FF00008 		mov	r8, #0
 1477 0038 02E0     		b	.L154
 1478              	.LVL177:
 1479              	.L153:
 938:Generated_Source\PSoC5/Segments.c ****         numberSign = Segments_SIGNED;
 1480              		.loc 1 938 0
 1481 003a 4242     		negs	r2, r0
 1482              	.LVL178:
 939:Generated_Source\PSoC5/Segments.c ****     }
 1483              		.loc 1 939 0
 1484 003c 4FF00108 		mov	r8, #1
 1485              	.LVL179:
 1486              	.L154:
 943:Generated_Source\PSoC5/Segments.c ****     {
 1487              		.loc 1 943 0
 1488 0040 2346     		mov	r3, r4
 1489 0042 14E0     		b	.L155
 1490              	.LVL180:
 1491              	.L156:
 945:Generated_Source\PSoC5/Segments.c ****         bufArray[i-1u] = Segments_EncodeNumber7Seg(selectVal);
 1492              		.loc 1 945 0 discriminator 3
 1493 0044 4C48     		ldr	r0, .L184
 1494 0046 A0FB0210 		umull	r1, r0, r0, r2
 1495 004a C008     		lsrs	r0, r0, #3
 1496 004c 8146     		mov	r9, r0
 1497 004e 00EB8000 		add	r0, r0, r0, lsl #2
 1498 0052 4100     		lsls	r1, r0, #1
 1499 0054 501A     		subs	r0, r2, r1
 1500              	.LVL181:
 946:Generated_Source\PSoC5/Segments.c ****         numberVal = numberVal / 10u;
 1501              		.loc 1 946 0 discriminator 3
 1502 0056 03F1FF3A 		add	r10, r3, #-1
 1503 005a C0B2     		uxtb	r0, r0
 1504 005c FFF7FEFF 		bl	Segments_EncodeNumber7Seg
 1505              	.LVL182:
 1506 0060 02AB     		add	r3, sp, #8
 1507 0062 5344     		add	r3, r3, r10
 1508 0064 03F8080C 		strb	r0, [r3, #-8]
 947:Generated_Source\PSoC5/Segments.c ****     }
 1509              		.loc 1 947 0 discriminator 3
 1510 0068 4A46     		mov	r2, r9
 1511              	.LVL183:
ARM GAS  C:\Users\Esteban\AppData\Local\Temp\ccHxlO6N.s 			page 77


 943:Generated_Source\PSoC5/Segments.c ****     {
 1512              		.loc 1 943 0 discriminator 3
 1513 006a 5FFA8AF3 		uxtb	r3, r10
 1514              	.LVL184:
 1515              	.L155:
 943:Generated_Source\PSoC5/Segments.c ****     {
 1516              		.loc 1 943 0 is_stmt 0 discriminator 1
 1517 006e 002B     		cmp	r3, #0
 1518 0070 E8D1     		bne	.L156
 951:Generated_Source\PSoC5/Segments.c ****     {
 1519              		.loc 1 951 0 is_stmt 1
 1520 0072 022F     		cmp	r7, #2
 1521 0074 32D1     		bne	.L181
 953:Generated_Source\PSoC5/Segments.c ****         {
 1522              		.loc 1 953 0
 1523 0076 B8F1000F 		cmp	r8, #0
 1524 007a 33D0     		beq	.L158
 956:Generated_Source\PSoC5/Segments.c ****         }
 1525              		.loc 1 956 0
 1526 007c 2D20     		movs	r0, #45
 1527 007e FFF7FEFF 		bl	Segments_EncodeChar7Seg
 1528              	.LVL185:
 1529 0082 8DF80000 		strb	r0, [sp]
 1530 0086 2DE0     		b	.L158
 1531              	.LVL186:
 1532              	.L162:
 963:Generated_Source\PSoC5/Segments.c ****             {
 1533              		.loc 1 963 0
 1534 0088 9946     		mov	r9, r3
 1535 008a 02A9     		add	r1, sp, #8
 1536 008c 1944     		add	r1, r1, r3
 1537 008e 11F8081C 		ldrb	r1, [r1, #-8]	@ zero_extendqisi2
 1538 0092 3F29     		cmp	r1, #63
 1539 0094 15D0     		beq	.L159
 965:Generated_Source\PSoC5/Segments.c ****                 {
 1540              		.loc 1 965 0
 1541 0096 B8F1000F 		cmp	r8, #0
 1542 009a 23D0     		beq	.L158
 967:Generated_Source\PSoC5/Segments.c ****                     {
 1543              		.loc 1 967 0
 1544 009c 3BB9     		cbnz	r3, .L160
 970:Generated_Source\PSoC5/Segments.c ****                     }
 1545              		.loc 1 970 0
 1546 009e 2D20     		movs	r0, #45
 1547 00a0 FFF7FEFF 		bl	Segments_EncodeChar7Seg
 1548              	.LVL187:
 1549 00a4 02AB     		add	r3, sp, #8
 1550 00a6 9944     		add	r9, r9, r3
 1551 00a8 09F8080C 		strb	r0, [r9, #-8]
 1552 00ac 1AE0     		b	.L158
 1553              	.LVL188:
 1554              	.L160:
 975:Generated_Source\PSoC5/Segments.c ****                     }
 1555              		.loc 1 975 0
 1556 00ae 03F1FF38 		add	r8, r3, #-1
 1557              	.LVL189:
 1558 00b2 2D20     		movs	r0, #45
ARM GAS  C:\Users\Esteban\AppData\Local\Temp\ccHxlO6N.s 			page 78


 1559 00b4 FFF7FEFF 		bl	Segments_EncodeChar7Seg
 1560              	.LVL190:
 1561 00b8 02AB     		add	r3, sp, #8
 1562 00ba 4344     		add	r3, r3, r8
 1563 00bc 03F8080C 		strb	r0, [r3, #-8]
 1564 00c0 10E0     		b	.L158
 1565              	.LVL191:
 1566              	.L159:
 983:Generated_Source\PSoC5/Segments.c ****                 {
 1567              		.loc 1 983 0
 1568 00c2 611E     		subs	r1, r4, #1
 1569 00c4 8A42     		cmp	r2, r1
 1570 00c6 06D0     		beq	.L161
 986:Generated_Source\PSoC5/Segments.c ****                     zeroCount++;
 1571              		.loc 1 986 0
 1572 00c8 02A9     		add	r1, sp, #8
 1573 00ca 8944     		add	r9, r9, r1
 1574 00cc 0021     		movs	r1, #0
 1575 00ce 09F8081C 		strb	r1, [r9, #-8]
 987:Generated_Source\PSoC5/Segments.c ****                 }
 1576              		.loc 1 987 0
 1577 00d2 0132     		adds	r2, r2, #1
 1578              	.LVL192:
 1579 00d4 D2B2     		uxtb	r2, r2
 1580              	.LVL193:
 1581              	.L161:
 961:Generated_Source\PSoC5/Segments.c ****         {
 1582              		.loc 1 961 0 discriminator 2
 1583 00d6 0133     		adds	r3, r3, #1
 1584              	.LVL194:
 1585 00d8 DBB2     		uxtb	r3, r3
 1586              	.LVL195:
 1587 00da 01E0     		b	.L157
 1588              	.LVL196:
 1589              	.L181:
 1590 00dc 0022     		movs	r2, #0
 1591              	.LVL197:
 1592 00de 1346     		mov	r3, r2
 1593              	.LVL198:
 1594              	.L157:
 961:Generated_Source\PSoC5/Segments.c ****         {
 1595              		.loc 1 961 0 is_stmt 0 discriminator 1
 1596 00e0 A342     		cmp	r3, r4
 1597 00e2 D1D3     		bcc	.L162
 1598              	.LVL199:
 1599              	.L158:
 994:Generated_Source\PSoC5/Segments.c ****     {
 1600              		.loc 1 994 0 is_stmt 1
 1601 00e4 012F     		cmp	r7, #1
 1602 00e6 42D1     		bne	.L164
 1603 00e8 14E0     		b	.L182
 1604              	.LVL200:
 1605              	.L169:
 998:Generated_Source\PSoC5/Segments.c ****             {
 1606              		.loc 1 998 0
 1607 00ea 02AA     		add	r2, sp, #8
 1608 00ec 1A44     		add	r2, r2, r3
ARM GAS  C:\Users\Esteban\AppData\Local\Temp\ccHxlO6N.s 			page 79


 1609 00ee 12F8082C 		ldrb	r2, [r2, #-8]	@ zero_extendqisi2
 1610 00f2 62B1     		cbz	r2, .L165
1000:Generated_Source\PSoC5/Segments.c ****                 {
 1611              		.loc 1 1000 0
 1612 00f4 032D     		cmp	r5, #3
 1613 00f6 08D8     		bhi	.L166
1003:Generated_Source\PSoC5/Segments.c ****                     {
 1614              		.loc 1 1003 0
 1615 00f8 16B1     		cbz	r6, .L168
 1616 00fa 022E     		cmp	r6, #2
 1617 00fc 03D8     		bhi	.L167
 1618 00fe 04E0     		b	.L166
 1619              	.L168:
1006:Generated_Source\PSoC5/Segments.c ****                             break;
 1620              		.loc 1 1006 0
 1621 0100 1E49     		ldr	r1, .L184+4
 1622 0102 4A55     		strb	r2, [r1, r5]
1007:Generated_Source\PSoC5/Segments.c ****                         case Segments_SEG_REG_MID :
 1623              		.loc 1 1007 0
 1624 0104 01E0     		b	.L166
 1625              	.L167:
1019:Generated_Source\PSoC5/Segments.c ****                             break;
 1626              		.loc 1 1019 0
 1627 0106 1D49     		ldr	r1, .L184+4
 1628 0108 4A55     		strb	r2, [r1, r5]
 1629              	.L166:
1023:Generated_Source\PSoC5/Segments.c ****             }
 1630              		.loc 1 1023 0
 1631 010a 0135     		adds	r5, r5, #1
 1632              	.LVL201:
 1633 010c EDB2     		uxtb	r5, r5
 1634              	.LVL202:
 1635              	.L165:
 996:Generated_Source\PSoC5/Segments.c ****         {
 1636              		.loc 1 996 0 discriminator 2
 1637 010e 0133     		adds	r3, r3, #1
 1638              	.LVL203:
 1639 0110 DBB2     		uxtb	r3, r3
 1640              	.LVL204:
 1641 0112 00E0     		b	.L163
 1642              	.LVL205:
 1643              	.L182:
 1644 0114 0023     		movs	r3, #0
 1645              	.L163:
 1646              	.LVL206:
 996:Generated_Source\PSoC5/Segments.c ****         {
 1647              		.loc 1 996 0 is_stmt 0 discriminator 1
 1648 0116 A342     		cmp	r3, r4
 1649 0118 E7D3     		bcc	.L169
 1650 011a 0CE0     		b	.L170
 1651              	.LVL207:
 1652              	.L174:
1029:Generated_Source\PSoC5/Segments.c ****             {
 1653              		.loc 1 1029 0 is_stmt 1
 1654 011c 16B1     		cbz	r6, .L172
 1655 011e 022E     		cmp	r6, #2
 1656 0120 04D8     		bhi	.L171
ARM GAS  C:\Users\Esteban\AppData\Local\Temp\ccHxlO6N.s 			page 80


 1657 0122 06E0     		b	.L173
 1658              	.L172:
1032:Generated_Source\PSoC5/Segments.c ****                     break;
 1659              		.loc 1 1032 0
 1660 0124 0022     		movs	r2, #0
 1661 0126 154B     		ldr	r3, .L184+4
 1662 0128 5A55     		strb	r2, [r3, r5]
1033:Generated_Source\PSoC5/Segments.c ****                 case Segments_SEG_REG_MID :
 1663              		.loc 1 1033 0
 1664 012a 02E0     		b	.L173
 1665              	.L171:
1045:Generated_Source\PSoC5/Segments.c ****                     break;
 1666              		.loc 1 1045 0
 1667 012c 0022     		movs	r2, #0
 1668 012e 134B     		ldr	r3, .L184+4
 1669 0130 5A55     		strb	r2, [r3, r5]
 1670              	.L173:
1048:Generated_Source\PSoC5/Segments.c ****         }
 1671              		.loc 1 1048 0
 1672 0132 0135     		adds	r5, r5, #1
 1673              	.LVL208:
 1674 0134 EDB2     		uxtb	r5, r5
 1675              	.LVL209:
 1676              	.L170:
1027:Generated_Source\PSoC5/Segments.c ****         {
 1677              		.loc 1 1027 0
 1678 0136 A542     		cmp	r5, r4
 1679 0138 F0D3     		bcc	.L174
 1680 013a 1AE0     		b	.L150
 1681              	.LVL210:
 1682              	.L179:
1056:Generated_Source\PSoC5/Segments.c ****             {
 1683              		.loc 1 1056 0
 1684 013c 6319     		adds	r3, r4, r5
 1685 013e 013B     		subs	r3, r3, #1
 1686 0140 032B     		cmp	r3, #3
 1687 0142 12D8     		bhi	.L176
1059:Generated_Source\PSoC5/Segments.c ****                 {
 1688              		.loc 1 1059 0
 1689 0144 16B1     		cbz	r6, .L178
 1690 0146 022E     		cmp	r6, #2
 1691 0148 08D8     		bhi	.L177
 1692 014a 0EE0     		b	.L176
 1693              	.L178:
1062:Generated_Source\PSoC5/Segments.c ****                         break;
 1694              		.loc 1 1062 0
 1695 014c 621E     		subs	r2, r4, #1
 1696 014e 02A9     		add	r1, sp, #8
 1697 0150 0A44     		add	r2, r2, r1
 1698 0152 12F8081C 		ldrb	r1, [r2, #-8]	@ zero_extendqisi2
 1699 0156 094A     		ldr	r2, .L184+4
 1700 0158 D154     		strb	r1, [r2, r3]
1063:Generated_Source\PSoC5/Segments.c ****                     case Segments_SEG_REG_MID :
 1701              		.loc 1 1063 0
 1702 015a 06E0     		b	.L176
 1703              	.L177:
1075:Generated_Source\PSoC5/Segments.c ****                         break;
ARM GAS  C:\Users\Esteban\AppData\Local\Temp\ccHxlO6N.s 			page 81


 1704              		.loc 1 1075 0
 1705 015c 621E     		subs	r2, r4, #1
 1706 015e 02A9     		add	r1, sp, #8
 1707 0160 0A44     		add	r2, r2, r1
 1708 0162 12F8081C 		ldrb	r1, [r2, #-8]	@ zero_extendqisi2
 1709 0166 054A     		ldr	r2, .L184+4
 1710 0168 D154     		strb	r1, [r2, r3]
 1711              	.L176:
1054:Generated_Source\PSoC5/Segments.c ****         {
 1712              		.loc 1 1054 0 discriminator 2
 1713 016a 013C     		subs	r4, r4, #1
 1714              	.LVL211:
 1715 016c E4B2     		uxtb	r4, r4
 1716              	.LVL212:
 1717              	.L164:
1054:Generated_Source\PSoC5/Segments.c ****         {
 1718              		.loc 1 1054 0 is_stmt 0 discriminator 1
 1719 016e 002C     		cmp	r4, #0
 1720 0170 E4D1     		bne	.L179
 1721              	.LVL213:
 1722              	.L150:
1081:Generated_Source\PSoC5/Segments.c **** 
 1723              		.loc 1 1081 0 is_stmt 1
 1724 0172 02B0     		add	sp, sp, #8
 1725              		.cfi_def_cfa_offset 32
 1726              		@ sp needed
 1727 0174 BDE8F087 		pop	{r4, r5, r6, r7, r8, r9, r10, pc}
 1728              	.LVL214:
 1729              	.L185:
 1730              		.align	2
 1731              	.L184:
 1732 0178 CDCCCCCC 		.word	-858993459
 1733 017c 00000000 		.word	Segments_segLBuffer
 1734              		.cfi_endproc
 1735              	.LFE14:
 1736              		.size	Segments_Write7SegNumberDec, .-Segments_Write7SegNumberDec
 1737              		.section	.text.Segments_WriteString7Seg,"ax",%progbits
 1738              		.align	2
 1739              		.global	Segments_WriteString7Seg
 1740              		.thumb
 1741              		.thumb_func
 1742              		.type	Segments_WriteString7Seg, %function
 1743              	Segments_WriteString7Seg:
 1744              	.LFB16:
1294:Generated_Source\PSoC5/Segments.c ****     uint8 relPosition;
 1745              		.loc 1 1294 0
 1746              		.cfi_startproc
 1747              		@ args = 0, pretend = 0, frame = 0
 1748              		@ frame_needed = 0, uses_anonymous_args = 0
 1749              	.LVL215:
1299:Generated_Source\PSoC5/Segments.c ****     {
 1750              		.loc 1 1299 0
 1751 0000 0329     		cmp	r1, #3
 1752 0002 16D8     		bhi	.L192
1294:Generated_Source\PSoC5/Segments.c ****     uint8 relPosition;
 1753              		.loc 1 1294 0
 1754 0004 F8B5     		push	{r3, r4, r5, r6, r7, lr}
ARM GAS  C:\Users\Esteban\AppData\Local\Temp\ccHxlO6N.s 			page 82


 1755              		.cfi_def_cfa_offset 24
 1756              		.cfi_offset 3, -24
 1757              		.cfi_offset 4, -20
 1758              		.cfi_offset 5, -16
 1759              		.cfi_offset 6, -12
 1760              		.cfi_offset 7, -8
 1761              		.cfi_offset 14, -4
 1762 0006 0746     		mov	r7, r0
 1763 0008 0C46     		mov	r4, r1
1301:Generated_Source\PSoC5/Segments.c ****         for(relPosition = position; relPosition < Segments_NUM_COM; relPosition++)
 1764              		.loc 1 1301 0
 1765 000a FFF7FEFF 		bl	strlen
 1766              	.LVL216:
 1767 000e 2044     		add	r0, r0, r4
 1768 0010 C6B2     		uxtb	r6, r0
 1769              	.LVL217:
1297:Generated_Source\PSoC5/Segments.c ****     
 1770              		.loc 1 1297 0
 1771 0012 0025     		movs	r5, #0
1302:Generated_Source\PSoC5/Segments.c ****         {
 1772              		.loc 1 1302 0
 1773 0014 0AE0     		b	.L188
 1774              	.LVL218:
 1775              	.L190:
1304:Generated_Source\PSoC5/Segments.c ****             {
 1776              		.loc 1 1304 0
 1777 0016 B442     		cmp	r4, r6
 1778 0018 06D2     		bcs	.L189
1306:Generated_Source\PSoC5/Segments.c ****                 i++;
 1779              		.loc 1 1306 0
 1780 001a 785D     		ldrb	r0, [r7, r5]	@ zero_extendqisi2
 1781 001c FFF7FEFF 		bl	Segments_EncodeChar7Seg
 1782              	.LVL219:
 1783 0020 044B     		ldr	r3, .L193
 1784 0022 1855     		strb	r0, [r3, r4]
1307:Generated_Source\PSoC5/Segments.c ****             }
 1785              		.loc 1 1307 0
 1786 0024 0135     		adds	r5, r5, #1
 1787              	.LVL220:
 1788 0026 EDB2     		uxtb	r5, r5
 1789              	.LVL221:
 1790              	.L189:
1302:Generated_Source\PSoC5/Segments.c ****         {
 1791              		.loc 1 1302 0 discriminator 2
 1792 0028 0134     		adds	r4, r4, #1
 1793              	.LVL222:
 1794 002a E4B2     		uxtb	r4, r4
 1795              	.LVL223:
 1796              	.L188:
1302:Generated_Source\PSoC5/Segments.c ****         {
 1797              		.loc 1 1302 0 is_stmt 0 discriminator 1
 1798 002c 032C     		cmp	r4, #3
 1799 002e F2D9     		bls	.L190
 1800 0030 F8BD     		pop	{r3, r4, r5, r6, r7, pc}
 1801              	.LVL224:
 1802              	.L192:
 1803              		.cfi_def_cfa_offset 0
ARM GAS  C:\Users\Esteban\AppData\Local\Temp\ccHxlO6N.s 			page 83


 1804              		.cfi_restore 3
 1805              		.cfi_restore 4
 1806              		.cfi_restore 5
 1807              		.cfi_restore 6
 1808              		.cfi_restore 7
 1809              		.cfi_restore 14
 1810 0032 7047     		bx	lr
 1811              	.L194:
 1812              		.align	2
 1813              	.L193:
 1814 0034 00000000 		.word	Segments_segLBuffer
 1815              		.cfi_endproc
 1816              	.LFE16:
 1817              		.size	Segments_WriteString7Seg, .-Segments_WriteString7Seg
 1818              		.section	.text.Segments_PutChar7Seg,"ax",%progbits
 1819              		.align	2
 1820              		.global	Segments_PutChar7Seg
 1821              		.thumb
 1822              		.thumb_func
 1823              		.type	Segments_PutChar7Seg, %function
 1824              	Segments_PutChar7Seg:
 1825              	.LFB17:
1368:Generated_Source\PSoC5/Segments.c ****     uint8 relPosition;
 1826              		.loc 1 1368 0 is_stmt 1
 1827              		.cfi_startproc
 1828              		@ args = 0, pretend = 0, frame = 0
 1829              		@ frame_needed = 0, uses_anonymous_args = 0
 1830              	.LVL225:
1371:Generated_Source\PSoC5/Segments.c ****     {
 1831              		.loc 1 1371 0
 1832 0000 0329     		cmp	r1, #3
 1833 0002 06D8     		bhi	.L198
1368:Generated_Source\PSoC5/Segments.c ****     uint8 relPosition;
 1834              		.loc 1 1368 0
 1835 0004 10B5     		push	{r4, lr}
 1836              		.cfi_def_cfa_offset 8
 1837              		.cfi_offset 4, -8
 1838              		.cfi_offset 14, -4
 1839 0006 0C46     		mov	r4, r1
 1840              	.LVL226:
1374:Generated_Source\PSoC5/Segments.c ****     }    
 1841              		.loc 1 1374 0
 1842 0008 FFF7FEFF 		bl	Segments_EncodeChar7Seg
 1843              	.LVL227:
 1844 000c 014B     		ldr	r3, .L199
 1845 000e 1855     		strb	r0, [r3, r4]
 1846 0010 10BD     		pop	{r4, pc}
 1847              	.LVL228:
 1848              	.L198:
 1849              		.cfi_def_cfa_offset 0
 1850              		.cfi_restore 4
 1851              		.cfi_restore 14
 1852 0012 7047     		bx	lr
 1853              	.L200:
 1854              		.align	2
 1855              	.L199:
 1856 0014 00000000 		.word	Segments_segLBuffer
ARM GAS  C:\Users\Esteban\AppData\Local\Temp\ccHxlO6N.s 			page 84


 1857              		.cfi_endproc
 1858              	.LFE17:
 1859              		.size	Segments_PutChar7Seg, .-Segments_PutChar7Seg
 1860              		.section	.text.Segments_EncodeNumber14Seg,"ax",%progbits
 1861              		.align	2
 1862              		.global	Segments_EncodeNumber14Seg
 1863              		.thumb
 1864              		.thumb_func
 1865              		.type	Segments_EncodeNumber14Seg, %function
 1866              	Segments_EncodeNumber14Seg:
 1867              	.LFB36:
2707:Generated_Source\PSoC5/Segments.c **** 
2708:Generated_Source\PSoC5/Segments.c **** 
2709:Generated_Source\PSoC5/Segments.c **** /*******************************************************************************
2710:Generated_Source\PSoC5/Segments.c **** * Function Name: Segments_EncodeNumber14Seg
2711:Generated_Source\PSoC5/Segments.c **** ********************************************************************************
2712:Generated_Source\PSoC5/Segments.c **** *
2713:Generated_Source\PSoC5/Segments.c **** * Summary:
2714:Generated_Source\PSoC5/Segments.c **** *  Converts the lower 4 bits of the input into 14-segment data that will 
2715:Generated_Source\PSoC5/Segments.c **** *  display the number in hex on a display. 14-segment display RAM is split into 
2716:Generated_Source\PSoC5/Segments.c **** *  two sections (one for the lower 8 segments, one for the top 6), so the 
2717:Generated_Source\PSoC5/Segments.c **** *  returned data must be separated into high and low bytes before being written
2718:Generated_Source\PSoC5/Segments.c **** *  directly into the display RAM to display the desired number. It is not 
2719:Generated_Source\PSoC5/Segments.c **** *  necessary to use this function since higher level API are provided to both 
2720:Generated_Source\PSoC5/Segments.c **** *  decode the value and write it to the display RAM.
2721:Generated_Source\PSoC5/Segments.c **** *
2722:Generated_Source\PSoC5/Segments.c **** * Parameters:
2723:Generated_Source\PSoC5/Segments.c **** *  uint8 number A number between 0x0 and 0xF to be converted into segment data.
2724:Generated_Source\PSoC5/Segments.c **** *
2725:Generated_Source\PSoC5/Segments.c **** * Return:
2726:Generated_Source\PSoC5/Segments.c **** *  The value to be written into the display RAM for displaying the specific
2727:Generated_Source\PSoC5/Segments.c **** *  number.
2728:Generated_Source\PSoC5/Segments.c **** *
2729:Generated_Source\PSoC5/Segments.c **** * Side effects:
2730:Generated_Source\PSoC5/Segments.c **** *  None
2731:Generated_Source\PSoC5/Segments.c **** *
2732:Generated_Source\PSoC5/Segments.c **** *******************************************************************************/
2733:Generated_Source\PSoC5/Segments.c **** uint16 Segments_EncodeNumber14Seg(uint8 number) 
2734:Generated_Source\PSoC5/Segments.c **** {
 1868              		.loc 1 2734 0
 1869              		.cfi_startproc
 1870              		@ args = 0, pretend = 0, frame = 0
 1871              		@ frame_needed = 0, uses_anonymous_args = 0
 1872              		@ link register save eliminated.
 1873              	.LVL229:
2735:Generated_Source\PSoC5/Segments.c ****     #if(Segments_SEG_DRIVE == Segments_HIGH)
2736:Generated_Source\PSoC5/Segments.c ****         /* 14-segment numerical LUT for low byte */
2737:Generated_Source\PSoC5/Segments.c ****         static const uint8 CYCODE Segments_14SegDigitsLow[16] =
2738:Generated_Source\PSoC5/Segments.c ****               /*--------------------------------------------------------*/
2739:Generated_Source\PSoC5/Segments.c ****               /*  '0'    '1'    '2'    '3'    '4'    '5'    '6'    '7'  */
2740:Generated_Source\PSoC5/Segments.c ****               /*--------------------------------------------------------*/
2741:Generated_Source\PSoC5/Segments.c ****                 {0x3fu, 0x06u, 0xdbu, 0xcfu, 0xe6u, 0xedu, 0xfdu, 0x07u,
2742:Generated_Source\PSoC5/Segments.c ****               /*--------------------------------------------------------*/
2743:Generated_Source\PSoC5/Segments.c ****               /*  '8'    '9'    'A'    'B'    'C'    'D'    'E'    'F'  */
2744:Generated_Source\PSoC5/Segments.c ****               /*--------------------------------------------------------*/
2745:Generated_Source\PSoC5/Segments.c ****                  0xffu, 0xefu, 0xf7u, 0x8fu, 0x39u, 0x0fu, 0xf9u, 0xf1u};
2746:Generated_Source\PSoC5/Segments.c **** 
ARM GAS  C:\Users\Esteban\AppData\Local\Temp\ccHxlO6N.s 			page 85


2747:Generated_Source\PSoC5/Segments.c ****         /* 14-segment numerical LUT for high byte */
2748:Generated_Source\PSoC5/Segments.c ****         static const uint8 CYCODE Segments_14SegDigitsHigh[16] =
2749:Generated_Source\PSoC5/Segments.c ****               /*--------------------------------------------------------*/
2750:Generated_Source\PSoC5/Segments.c ****               /*  '0'    '1'    '2'    '3'    '4'    '5'    '6'    '7'  */
2751:Generated_Source\PSoC5/Segments.c ****               /*--------------------------------------------------------*/
2752:Generated_Source\PSoC5/Segments.c ****                 {0x24u, 0x00u, 0x00u, 0x00u, 0x00u, 0x00u, 0x00u, 0x00u,
2753:Generated_Source\PSoC5/Segments.c ****               /*--------------------------------------------------------*/
2754:Generated_Source\PSoC5/Segments.c ****               /*  '8'    '9'    'A'    'B'    'C'    'D'    'E'    'F'  */
2755:Generated_Source\PSoC5/Segments.c ****               /*--------------------------------------------------------*/
2756:Generated_Source\PSoC5/Segments.c ****                  0x00u, 0x00u, 0x00u, 0x12u, 0x00u, 0x12u, 0x00u, 0x00u};
2757:Generated_Source\PSoC5/Segments.c ****     #else
2758:Generated_Source\PSoC5/Segments.c ****         /* 14-segment numerical LUT for low byte */
2759:Generated_Source\PSoC5/Segments.c ****         static const uint8 CYCODE Segments_14SegDigitsLow[16] =
2760:Generated_Source\PSoC5/Segments.c ****               /*--------------------------------------------------------*/
2761:Generated_Source\PSoC5/Segments.c ****               /*  '0'    '1'    '2'    '3'    '4'    '5'    '6'    '7'  */
2762:Generated_Source\PSoC5/Segments.c ****               /*--------------------------------------------------------*/
2763:Generated_Source\PSoC5/Segments.c ****                 {0xc0u, 0xf9u, 0x24u, 0x30u, 0x19u, 0x12u, 0x02u, 0xf8u,
2764:Generated_Source\PSoC5/Segments.c ****               /*--------------------------------------------------------*/
2765:Generated_Source\PSoC5/Segments.c ****               /*  '8'    '9'    'A'    'B'    'C'    'D'    'E'    'F'  */
2766:Generated_Source\PSoC5/Segments.c ****               /*--------------------------------------------------------*/
2767:Generated_Source\PSoC5/Segments.c ****                  0x00u, 0x10u, 0x08u, 0x70u, 0xc6u, 0xf0u, 0x06u, 0x0eu};
2768:Generated_Source\PSoC5/Segments.c **** 
2769:Generated_Source\PSoC5/Segments.c ****         /* 14-segment numerical LUT for high byte */
2770:Generated_Source\PSoC5/Segments.c ****         static const uint8 CYCODE Segments_14SegDigitsHigh[16] =
2771:Generated_Source\PSoC5/Segments.c ****               /*--------------------------------------------------------*/
2772:Generated_Source\PSoC5/Segments.c ****               /*  '0'    '1'    '2'    '3'    '4'    '5'    '6'    '7'  */
2773:Generated_Source\PSoC5/Segments.c ****               /*--------------------------------------------------------*/
2774:Generated_Source\PSoC5/Segments.c ****                 {0xdbu, 0xffu, 0xffu, 0xffu, 0xffu, 0xffu, 0xffu, 0xffu,
2775:Generated_Source\PSoC5/Segments.c ****               /*--------------------------------------------------------*/
2776:Generated_Source\PSoC5/Segments.c ****               /*  '8'    '9'    'A'    'B'    'C'    'D'    'E'    'F'  */
2777:Generated_Source\PSoC5/Segments.c ****               /*--------------------------------------------------------*/
2778:Generated_Source\PSoC5/Segments.c ****                  0xffu, 0xffu, 0xffu, 0xedu, 0xffu, 0xedu, 0xffu, 0xffu};
2779:Generated_Source\PSoC5/Segments.c ****     #endif /*  Segments_SEG_DRIVE */
2780:Generated_Source\PSoC5/Segments.c ****     
2781:Generated_Source\PSoC5/Segments.c ****     uint8 valNum;
2782:Generated_Source\PSoC5/Segments.c ****     uint16 valLow;
2783:Generated_Source\PSoC5/Segments.c ****     uint16 valHigh;
2784:Generated_Source\PSoC5/Segments.c ****     uint16 valHex;
2785:Generated_Source\PSoC5/Segments.c ****     
2786:Generated_Source\PSoC5/Segments.c ****     valNum = (uint8)(number & Segments_NIBBLE_MASK);
 1874              		.loc 1 2786 0
 1875 0000 00F00F00 		and	r0, r0, #15
 1876              	.LVL230:
2787:Generated_Source\PSoC5/Segments.c ****     
2788:Generated_Source\PSoC5/Segments.c ****     /* Get the 14-seg hex value from high and low byte LUTs */
2789:Generated_Source\PSoC5/Segments.c ****     valHigh = (uint16)((uint16)Segments_14SegDigitsHigh[valNum] << Segments_SHIFT_BYTE);
 1877              		.loc 1 2789 0
 1878 0004 044B     		ldr	r3, .L202
 1879 0006 0344     		add	r3, r3, r0
 1880 0008 93F87000 		ldrb	r0, [r3, #112]	@ zero_extendqisi2
 1881              	.LVL231:
2790:Generated_Source\PSoC5/Segments.c ****     valLow = (uint16)Segments_14SegDigitsLow[valNum];
 1882              		.loc 1 2790 0
 1883 000c 93F88030 		ldrb	r3, [r3, #128]	@ zero_extendqisi2
 1884              	.LVL232:
2791:Generated_Source\PSoC5/Segments.c ****     
2792:Generated_Source\PSoC5/Segments.c ****     valHex = valHigh | valLow;
ARM GAS  C:\Users\Esteban\AppData\Local\Temp\ccHxlO6N.s 			page 86


2793:Generated_Source\PSoC5/Segments.c ****     
2794:Generated_Source\PSoC5/Segments.c ****     return(valHex);
2795:Generated_Source\PSoC5/Segments.c **** }
 1885              		.loc 1 2795 0
 1886 0010 43EA0020 		orr	r0, r3, r0, lsl #8
 1887              	.LVL233:
 1888 0014 7047     		bx	lr
 1889              	.L203:
 1890 0016 00BF     		.align	2
 1891              	.L202:
 1892 0018 00000000 		.word	.LANCHOR2
 1893              		.cfi_endproc
 1894              	.LFE36:
 1895              		.size	Segments_EncodeNumber14Seg, .-Segments_EncodeNumber14Seg
 1896              		.section	.text.Segments_Write14SegNumberHex,"ax",%progbits
 1897              		.align	2
 1898              		.global	Segments_Write14SegNumberHex
 1899              		.thumb
 1900              		.thumb_func
 1901              		.type	Segments_Write14SegNumberHex, %function
 1902              	Segments_Write14SegNumberHex:
 1903              	.LFB21:
1691:Generated_Source\PSoC5/Segments.c ****     uint8 i;
 1904              		.loc 1 1691 0
 1905              		.cfi_startproc
 1906              		@ args = 0, pretend = 0, frame = 16
 1907              		@ frame_needed = 0, uses_anonymous_args = 0
 1908              	.LVL234:
 1909 0000 2DE9F041 		push	{r4, r5, r6, r7, r8, lr}
 1910              		.cfi_def_cfa_offset 24
 1911              		.cfi_offset 4, -24
 1912              		.cfi_offset 5, -20
 1913              		.cfi_offset 6, -16
 1914              		.cfi_offset 7, -12
 1915              		.cfi_offset 8, -8
 1916              		.cfi_offset 14, -4
 1917 0004 84B0     		sub	sp, sp, #16
 1918              		.cfi_def_cfa_offset 40
 1919 0006 0746     		mov	r7, r0
 1920 0008 0E46     		mov	r6, r1
 1921 000a 1446     		mov	r4, r2
 1922 000c 9846     		mov	r8, r3
1695:Generated_Source\PSoC5/Segments.c ****     uint32 numberVal;
 1923              		.loc 1 1695 0
 1924 000e 0023     		movs	r3, #0
 1925              	.LVL235:
 1926 0010 0093     		str	r3, [sp]
 1927 0012 0193     		str	r3, [sp, #4]
 1928 0014 0293     		str	r3, [sp, #8]
 1929 0016 0393     		str	r3, [sp, #12]
 1930              	.LVL236:
1701:Generated_Source\PSoC5/Segments.c ****     {
 1931              		.loc 1 1701 0
 1932 0018 1346     		mov	r3, r2
 1933 001a 0BE0     		b	.L205
 1934              	.LVL237:
 1935              	.L206:
ARM GAS  C:\Users\Esteban\AppData\Local\Temp\ccHxlO6N.s 			page 87


1704:Generated_Source\PSoC5/Segments.c ****         numberVal = (uint32)((uint32)numberVal >> Segments_SHIFT_NIBBLE);
 1936              		.loc 1 1704 0 discriminator 3
 1937 001c 5D1E     		subs	r5, r3, #1
 1938 001e 07F00F00 		and	r0, r7, #15
 1939 0022 FFF7FEFF 		bl	Segments_EncodeNumber14Seg
 1940              	.LVL238:
 1941 0026 04AB     		add	r3, sp, #16
 1942 0028 03EB4503 		add	r3, r3, r5, lsl #1
 1943 002c 23F8100C 		strh	r0, [r3, #-16]	@ movhi
1705:Generated_Source\PSoC5/Segments.c ****     }
 1944              		.loc 1 1705 0 discriminator 3
 1945 0030 3F09     		lsrs	r7, r7, #4
 1946              	.LVL239:
1701:Generated_Source\PSoC5/Segments.c ****     {
 1947              		.loc 1 1701 0 discriminator 3
 1948 0032 EBB2     		uxtb	r3, r5
 1949              	.LVL240:
 1950              	.L205:
1701:Generated_Source\PSoC5/Segments.c ****     {
 1951              		.loc 1 1701 0 is_stmt 0 discriminator 1
 1952 0034 002B     		cmp	r3, #0
 1953 0036 F1D1     		bne	.L206
 1954 0038 10E0     		b	.L207
 1955              	.L209:
1711:Generated_Source\PSoC5/Segments.c ****         {
 1956              		.loc 1 1711 0 is_stmt 1
 1957 003a 04AA     		add	r2, sp, #16
 1958 003c 02EB4302 		add	r2, r2, r3, lsl #1
 1959 0040 32F8101C 		ldrh	r1, [r2, #-16]
 1960 0044 42F23F42 		movw	r2, #9279
 1961 0048 9142     		cmp	r1, r2
 1962 004a 09D1     		bne	.L208
1719:Generated_Source\PSoC5/Segments.c ****         }    
 1963              		.loc 1 1719 0 discriminator 2
 1964 004c 04AA     		add	r2, sp, #16
 1965 004e 02EB4302 		add	r2, r2, r3, lsl #1
 1966 0052 0021     		movs	r1, #0
 1967 0054 22F8101C 		strh	r1, [r2, #-16]	@ movhi
1709:Generated_Source\PSoC5/Segments.c ****     {
 1968              		.loc 1 1709 0 discriminator 2
 1969 0058 0133     		adds	r3, r3, #1
 1970              	.LVL241:
 1971 005a DBB2     		uxtb	r3, r3
 1972              	.LVL242:
 1973              	.L207:
1709:Generated_Source\PSoC5/Segments.c ****     {
 1974              		.loc 1 1709 0 is_stmt 0 discriminator 1
 1975 005c A342     		cmp	r3, r4
 1976 005e ECD3     		bcc	.L209
 1977              	.L208:
 1978              	.LVL243:
1726:Generated_Source\PSoC5/Segments.c ****     {
 1979              		.loc 1 1726 0 is_stmt 1
 1980 0060 B8F1010F 		cmp	r8, #1
 1981 0064 29D1     		bne	.L211
 1982 0066 0EE0     		b	.L220
 1983              	.L214:
ARM GAS  C:\Users\Esteban\AppData\Local\Temp\ccHxlO6N.s 			page 88


1730:Generated_Source\PSoC5/Segments.c ****             {
 1984              		.loc 1 1730 0
 1985 0068 04AA     		add	r2, sp, #16
 1986 006a 02EB4302 		add	r2, r2, r3, lsl #1
 1987 006e 32F8102C 		ldrh	r2, [r2, #-16]
 1988 0072 2AB1     		cbz	r2, .L212
1732:Generated_Source\PSoC5/Segments.c ****                 {
 1989              		.loc 1 1732 0
 1990 0074 032E     		cmp	r6, #3
 1991 0076 01D8     		bhi	.L213
1735:Generated_Source\PSoC5/Segments.c ****                 #if (Segments_NUM_SEG > 8u)
 1992              		.loc 1 1735 0
 1993 0078 1249     		ldr	r1, .L222
 1994 007a 8A55     		strb	r2, [r1, r6]
 1995              	.L213:
1740:Generated_Source\PSoC5/Segments.c ****             }
 1996              		.loc 1 1740 0
 1997 007c 0136     		adds	r6, r6, #1
 1998              	.LVL244:
 1999 007e F6B2     		uxtb	r6, r6
 2000              	.LVL245:
 2001              	.L212:
1728:Generated_Source\PSoC5/Segments.c ****         {
 2002              		.loc 1 1728 0 discriminator 2
 2003 0080 0133     		adds	r3, r3, #1
 2004              	.LVL246:
 2005 0082 DBB2     		uxtb	r3, r3
 2006              	.LVL247:
 2007 0084 00E0     		b	.L210
 2008              	.L220:
 2009 0086 0023     		movs	r3, #0
 2010              	.LVL248:
 2011              	.L210:
1728:Generated_Source\PSoC5/Segments.c ****         {
 2012              		.loc 1 1728 0 is_stmt 0 discriminator 1
 2013 0088 A342     		cmp	r3, r4
 2014 008a EDD3     		bcc	.L214
 2015 008c 04E0     		b	.L215
 2016              	.LVL249:
 2017              	.L216:
1747:Generated_Source\PSoC5/Segments.c ****             #if (Segments_NUM_SEG > 8u)
 2018              		.loc 1 1747 0 is_stmt 1
 2019 008e 0022     		movs	r2, #0
 2020 0090 0C4B     		ldr	r3, .L222
 2021 0092 9A55     		strb	r2, [r3, r6]
1752:Generated_Source\PSoC5/Segments.c ****         }
 2022              		.loc 1 1752 0
 2023 0094 0136     		adds	r6, r6, #1
 2024              	.LVL250:
 2025 0096 F6B2     		uxtb	r6, r6
 2026              	.LVL251:
 2027              	.L215:
1744:Generated_Source\PSoC5/Segments.c ****         {
 2028              		.loc 1 1744 0
 2029 0098 A642     		cmp	r6, r4
 2030 009a F8D3     		bcc	.L216
 2031 009c 0FE0     		b	.L204
ARM GAS  C:\Users\Esteban\AppData\Local\Temp\ccHxlO6N.s 			page 89


 2032              	.LVL252:
 2033              	.L219:
1759:Generated_Source\PSoC5/Segments.c ****             {
 2034              		.loc 1 1759 0
 2035 009e A319     		adds	r3, r4, r6
 2036 00a0 013B     		subs	r3, r3, #1
 2037 00a2 032B     		cmp	r3, #3
 2038 00a4 07D8     		bhi	.L218
1761:Generated_Source\PSoC5/Segments.c ****             #if (Segments_NUM_SEG > 8u)
 2039              		.loc 1 1761 0
 2040 00a6 621E     		subs	r2, r4, #1
 2041 00a8 04A9     		add	r1, sp, #16
 2042 00aa 01EB4202 		add	r2, r1, r2, lsl #1
 2043 00ae 12F8101C 		ldrb	r1, [r2, #-16]	@ zero_extendqisi2
 2044 00b2 044A     		ldr	r2, .L222
 2045 00b4 D154     		strb	r1, [r2, r3]
 2046              	.L218:
1757:Generated_Source\PSoC5/Segments.c ****         {
 2047              		.loc 1 1757 0 discriminator 2
 2048 00b6 013C     		subs	r4, r4, #1
 2049              	.LVL253:
 2050 00b8 E4B2     		uxtb	r4, r4
 2051              	.LVL254:
 2052              	.L211:
1757:Generated_Source\PSoC5/Segments.c ****         {
 2053              		.loc 1 1757 0 is_stmt 0 discriminator 1
 2054 00ba 002C     		cmp	r4, #0
 2055 00bc EFD1     		bne	.L219
 2056              	.LVL255:
 2057              	.L204:
1768:Generated_Source\PSoC5/Segments.c **** 
 2058              		.loc 1 1768 0 is_stmt 1
 2059 00be 04B0     		add	sp, sp, #16
 2060              		.cfi_def_cfa_offset 24
 2061              		@ sp needed
 2062 00c0 BDE8F081 		pop	{r4, r5, r6, r7, r8, pc}
 2063              	.LVL256:
 2064              	.L223:
 2065              		.align	2
 2066              	.L222:
 2067 00c4 00000000 		.word	Segments_segLBuffer
 2068              		.cfi_endproc
 2069              	.LFE21:
 2070              		.size	Segments_Write14SegNumberHex, .-Segments_Write14SegNumberHex
 2071              		.section	.text.Segments_Write14SegDigitDec,"ax",%progbits
 2072              		.align	2
 2073              		.global	Segments_Write14SegDigitDec
 2074              		.thumb
 2075              		.thumb_func
 2076              		.type	Segments_Write14SegDigitDec, %function
 2077              	Segments_Write14SegDigitDec:
 2078              	.LFB24:
1874:Generated_Source\PSoC5/Segments.c ****     uint16 charDisplay;
 2079              		.loc 1 1874 0
 2080              		.cfi_startproc
 2081              		@ args = 0, pretend = 0, frame = 0
 2082              		@ frame_needed = 0, uses_anonymous_args = 0
ARM GAS  C:\Users\Esteban\AppData\Local\Temp\ccHxlO6N.s 			page 90


 2083              	.LVL257:
1877:Generated_Source\PSoC5/Segments.c ****     {
 2084              		.loc 1 1877 0
 2085 0000 0928     		cmp	r0, #9
 2086 0002 08D8     		bhi	.L227
1877:Generated_Source\PSoC5/Segments.c ****     {
 2087              		.loc 1 1877 0 is_stmt 0 discriminator 1
 2088 0004 0329     		cmp	r1, #3
 2089 0006 06D8     		bhi	.L227
1874:Generated_Source\PSoC5/Segments.c ****     uint16 charDisplay;
 2090              		.loc 1 1874 0 is_stmt 1
 2091 0008 10B5     		push	{r4, lr}
 2092              		.cfi_def_cfa_offset 8
 2093              		.cfi_offset 4, -8
 2094              		.cfi_offset 14, -4
 2095 000a 0C46     		mov	r4, r1
1879:Generated_Source\PSoC5/Segments.c ****         Segments_segLBuffer[position] = LO8(charDisplay);
 2096              		.loc 1 1879 0
 2097 000c FFF7FEFF 		bl	Segments_EncodeNumber14Seg
 2098              	.LVL258:
1880:Generated_Source\PSoC5/Segments.c ****     #if (Segments_NUM_SEG > 8u)
 2099              		.loc 1 1880 0
 2100 0010 014B     		ldr	r3, .L228
 2101 0012 1855     		strb	r0, [r3, r4]
 2102 0014 10BD     		pop	{r4, pc}
 2103              	.LVL259:
 2104              	.L227:
 2105              		.cfi_def_cfa_offset 0
 2106              		.cfi_restore 4
 2107              		.cfi_restore 14
 2108 0016 7047     		bx	lr
 2109              	.L229:
 2110              		.align	2
 2111              	.L228:
 2112 0018 00000000 		.word	Segments_segLBuffer
 2113              		.cfi_endproc
 2114              	.LFE24:
 2115              		.size	Segments_Write14SegDigitDec, .-Segments_Write14SegDigitDec
 2116              		.section	.text.Segments_Write14SegDigitHex,"ax",%progbits
 2117              		.align	2
 2118              		.global	Segments_Write14SegDigitHex
 2119              		.thumb
 2120              		.thumb_func
 2121              		.type	Segments_Write14SegDigitHex, %function
 2122              	Segments_Write14SegDigitHex:
 2123              	.LFB25:
1909:Generated_Source\PSoC5/Segments.c ****     uint16 charDisplay;
 2124              		.loc 1 1909 0
 2125              		.cfi_startproc
 2126              		@ args = 0, pretend = 0, frame = 0
 2127              		@ frame_needed = 0, uses_anonymous_args = 0
 2128              	.LVL260:
1912:Generated_Source\PSoC5/Segments.c ****     {
 2129              		.loc 1 1912 0
 2130 0000 0329     		cmp	r1, #3
 2131 0002 06D8     		bhi	.L233
1909:Generated_Source\PSoC5/Segments.c ****     uint16 charDisplay;
ARM GAS  C:\Users\Esteban\AppData\Local\Temp\ccHxlO6N.s 			page 91


 2132              		.loc 1 1909 0
 2133 0004 10B5     		push	{r4, lr}
 2134              		.cfi_def_cfa_offset 8
 2135              		.cfi_offset 4, -8
 2136              		.cfi_offset 14, -4
 2137 0006 0C46     		mov	r4, r1
1914:Generated_Source\PSoC5/Segments.c ****         Segments_segLBuffer[position] = LO8(charDisplay);
 2138              		.loc 1 1914 0
 2139 0008 FFF7FEFF 		bl	Segments_EncodeNumber14Seg
 2140              	.LVL261:
1915:Generated_Source\PSoC5/Segments.c ****     #if (Segments_NUM_SEG > 8u)
 2141              		.loc 1 1915 0
 2142 000c 014B     		ldr	r3, .L234
 2143 000e 1855     		strb	r0, [r3, r4]
 2144 0010 10BD     		pop	{r4, pc}
 2145              	.LVL262:
 2146              	.L233:
 2147              		.cfi_def_cfa_offset 0
 2148              		.cfi_restore 4
 2149              		.cfi_restore 14
 2150 0012 7047     		bx	lr
 2151              	.L235:
 2152              		.align	2
 2153              	.L234:
 2154 0014 00000000 		.word	Segments_segLBuffer
 2155              		.cfi_endproc
 2156              	.LFE25:
 2157              		.size	Segments_Write14SegDigitHex, .-Segments_Write14SegDigitHex
 2158              		.section	.text.Segments_EncodeChar14Seg,"ax",%progbits
 2159              		.align	2
 2160              		.global	Segments_EncodeChar14Seg
 2161              		.thumb
 2162              		.thumb_func
 2163              		.type	Segments_EncodeChar14Seg, %function
 2164              	Segments_EncodeChar14Seg:
 2165              	.LFB37:
2796:Generated_Source\PSoC5/Segments.c **** 
2797:Generated_Source\PSoC5/Segments.c **** 
2798:Generated_Source\PSoC5/Segments.c **** /*******************************************************************************
2799:Generated_Source\PSoC5/Segments.c **** * Function Name: Segments_EncodeChar14Seg
2800:Generated_Source\PSoC5/Segments.c **** ********************************************************************************
2801:Generated_Source\PSoC5/Segments.c **** *
2802:Generated_Source\PSoC5/Segments.c **** * Summary:
2803:Generated_Source\PSoC5/Segments.c **** *  Converts the ASCII encoded alphabet character input into the 14-segment
2804:Generated_Source\PSoC5/Segments.c **** *  data that will display the alphabet character on a display. 14-segment 
2805:Generated_Source\PSoC5/Segments.c **** *  display RAM is split into two sections (one for the lower 8 segments, one
2806:Generated_Source\PSoC5/Segments.c **** *  for the top 6), so the returned data must be separated into high and low 
2807:Generated_Source\PSoC5/Segments.c **** *  bytes before being written directly into the display RAM to display the 
2808:Generated_Source\PSoC5/Segments.c **** *  desired character. It is not necessary to use this function since higher 
2809:Generated_Source\PSoC5/Segments.c **** *  level API are provided to both decode the value and write it to the display
2810:Generated_Source\PSoC5/Segments.c **** *  RAM.
2811:Generated_Source\PSoC5/Segments.c **** *
2812:Generated_Source\PSoC5/Segments.c **** * Parameters:
2813:Generated_Source\PSoC5/Segments.c **** *  char8 input: An ASCII alphabet character to be converted into segment data.
2814:Generated_Source\PSoC5/Segments.c **** *
2815:Generated_Source\PSoC5/Segments.c **** * Return:
2816:Generated_Source\PSoC5/Segments.c **** *  The value to be written into the display RAM for displaying the specified
ARM GAS  C:\Users\Esteban\AppData\Local\Temp\ccHxlO6N.s 			page 92


2817:Generated_Source\PSoC5/Segments.c **** *  character.
2818:Generated_Source\PSoC5/Segments.c **** *
2819:Generated_Source\PSoC5/Segments.c **** * Side effects:
2820:Generated_Source\PSoC5/Segments.c **** *  None
2821:Generated_Source\PSoC5/Segments.c **** *
2822:Generated_Source\PSoC5/Segments.c **** *******************************************************************************/
2823:Generated_Source\PSoC5/Segments.c **** uint16 Segments_EncodeChar14Seg(char8 input) 
2824:Generated_Source\PSoC5/Segments.c **** {
 2166              		.loc 1 2824 0
 2167              		.cfi_startproc
 2168              		@ args = 0, pretend = 0, frame = 0
 2169              		@ frame_needed = 0, uses_anonymous_args = 0
 2170              		@ link register save eliminated.
 2171              	.LVL263:
2825:Generated_Source\PSoC5/Segments.c ****     #if(Segments_SEG_DRIVE == Segments_HIGH)
2826:Generated_Source\PSoC5/Segments.c ****         /* 14-segment ASCII LUT for low byte */
2827:Generated_Source\PSoC5/Segments.c ****         static const uint8 CYCODE Segments_14SegASCIILow[6][16] =
2828:Generated_Source\PSoC5/Segments.c ****               {
2829:Generated_Source\PSoC5/Segments.c ****               /*--------------------------------------------------------*/
2830:Generated_Source\PSoC5/Segments.c ****               /* 'Space' '!'    '"'    '#'    '$'    '%'    '&'    '''  */
2831:Generated_Source\PSoC5/Segments.c ****               /*--------------------------------------------------------*/
2832:Generated_Source\PSoC5/Segments.c ****                 {0x00u, 0x30u, 0x20u, 0x00u, 0x00u, 0x00u, 0x00u, 0x20u,
2833:Generated_Source\PSoC5/Segments.c ****               /*--------------------------------------------------------*/
2834:Generated_Source\PSoC5/Segments.c ****               /*  '('    ')'    '*'    '+'    ','    '-'    '.'    '/'  */
2835:Generated_Source\PSoC5/Segments.c ****               /*--------------------------------------------------------*/
2836:Generated_Source\PSoC5/Segments.c ****                  0x00u, 0x00u, 0xc0u, 0x00u, 0x00u, 0xc0u, 0x00u, 0x00u},
2837:Generated_Source\PSoC5/Segments.c ****               /*--------------------------------------------------------*/   
2838:Generated_Source\PSoC5/Segments.c ****               /*  '0'    '1'    '2'    '3'    '4'    '5'    '6'    '7'  */
2839:Generated_Source\PSoC5/Segments.c ****               /*--------------------------------------------------------*/
2840:Generated_Source\PSoC5/Segments.c ****                 {0x3fu, 0x06u, 0xdbu, 0xcfu, 0xe6u, 0xedu, 0xfdu, 0x07u,
2841:Generated_Source\PSoC5/Segments.c ****               /*--------------------------------------------------------*/
2842:Generated_Source\PSoC5/Segments.c ****               /*  '8'    '9'    ':'    ';'    '<'    '='    '>'    '?'  */
2843:Generated_Source\PSoC5/Segments.c ****               /*--------------------------------------------------------*/
2844:Generated_Source\PSoC5/Segments.c ****                  0xffu, 0xefu, 0x00u, 0x00u, 0x00u, 0xc8u, 0x00u, 0x83u},
2845:Generated_Source\PSoC5/Segments.c ****               /*--------------------------------------------------------*/
2846:Generated_Source\PSoC5/Segments.c ****               /*  '@'    'A'    'B'    'C'    'D'    'E'    'F'    'G'  */
2847:Generated_Source\PSoC5/Segments.c ****               /*--------------------------------------------------------*/
2848:Generated_Source\PSoC5/Segments.c ****                 {0x00u, 0xf7u, 0x8fu, 0x39u, 0x0fu, 0xf9u, 0xf1u, 0xbdu,
2849:Generated_Source\PSoC5/Segments.c ****               /*--------------------------------------------------------*/
2850:Generated_Source\PSoC5/Segments.c ****               /*  'H'    'I'    'J'    'K'    'L'    'M'    'N'    'O'  */
2851:Generated_Source\PSoC5/Segments.c ****               /*--------------------------------------------------------*/
2852:Generated_Source\PSoC5/Segments.c ****                  0xf6u, 0x09u, 0x1Eu, 0x70u, 0x38u, 0x36u, 0x36u, 0x3fu},
2853:Generated_Source\PSoC5/Segments.c ****               /*--------------------------------------------------------*/
2854:Generated_Source\PSoC5/Segments.c ****               /*  'P'    'Q'    'R'    'S'    'T'    'U'    'V'    'W'  */
2855:Generated_Source\PSoC5/Segments.c ****               /*--------------------------------------------------------*/
2856:Generated_Source\PSoC5/Segments.c ****                 {0xf3u, 0x3fu, 0xf3u, 0xedu, 0x01u, 0x3eu, 0x30u, 0x36u,
2857:Generated_Source\PSoC5/Segments.c ****               /*--------------------------------------------------------*/
2858:Generated_Source\PSoC5/Segments.c ****               /*  'X'    'Y'    'Z'    '['    '\'    ']'    '^'    '_'  */
2859:Generated_Source\PSoC5/Segments.c ****               /*--------------------------------------------------------*/
2860:Generated_Source\PSoC5/Segments.c ****                  0x00u, 0x00u, 0x09u, 0x00u, 0x00u, 0x00u, 0x00u, 0x08u},
2861:Generated_Source\PSoC5/Segments.c ****               /*--------------------------------------------------------*/
2862:Generated_Source\PSoC5/Segments.c ****               /*  '`'    'a'    'b'    'c'    'd'    'e'    'f'    'g'  */
2863:Generated_Source\PSoC5/Segments.c ****               /*--------------------------------------------------------*/
2864:Generated_Source\PSoC5/Segments.c ****                 {0x00u, 0xf7u, 0xfcu, 0xd8u, 0xdeu, 0xf9u, 0xf1u, 0xefu,
2865:Generated_Source\PSoC5/Segments.c ****               /*--------------------------------------------------------*/
2866:Generated_Source\PSoC5/Segments.c ****               /*  'h'    'i'    'j'    'k'    'l'    'm'    'n'    'o'  */
2867:Generated_Source\PSoC5/Segments.c ****               /*--------------------------------------------------------*/
ARM GAS  C:\Users\Esteban\AppData\Local\Temp\ccHxlO6N.s 			page 93


2868:Generated_Source\PSoC5/Segments.c ****                  0xf4u, 0x00u, 0x1Eu, 0x70u, 0x00u, 0xd4u, 0xd4u, 0xdcu},
2869:Generated_Source\PSoC5/Segments.c ****               /*--------------------------------------------------------*/
2870:Generated_Source\PSoC5/Segments.c ****               /*  'p'    'q'    'r'    's'    't'    'u'    'v'    'w'  */
2871:Generated_Source\PSoC5/Segments.c ****               /*--------------------------------------------------------*/
2872:Generated_Source\PSoC5/Segments.c ****                 {0xf3u, 0x3fu, 0xd0u, 0xedu, 0xc0u, 0x1cu, 0x10u, 0x1cu,
2873:Generated_Source\PSoC5/Segments.c ****               /*--------------------------------------------------------*/
2874:Generated_Source\PSoC5/Segments.c ****               /*  'x'    'y'    'z'    '{'    '|'    '}'    '~'   'DEL' */
2875:Generated_Source\PSoC5/Segments.c ****               /*--------------------------------------------------------*/
2876:Generated_Source\PSoC5/Segments.c ****                  0x00u, 0x00u, 0x09u, 0x00u, 0x00u, 0x00u, 0x00u, 0x00u}
2877:Generated_Source\PSoC5/Segments.c ****               };
2878:Generated_Source\PSoC5/Segments.c **** 
2879:Generated_Source\PSoC5/Segments.c ****         /* 14-segment ASCII LUT for high byte */
2880:Generated_Source\PSoC5/Segments.c ****         static const uint8 CYCODE Segments_14SegASCIIHigh[6][16] =
2881:Generated_Source\PSoC5/Segments.c ****               {
2882:Generated_Source\PSoC5/Segments.c ****               /*--------------------------------------------------------*/
2883:Generated_Source\PSoC5/Segments.c ****               /* 'Space' '!'    '"'    '#'    '$'    '%'    '&'    '''  */
2884:Generated_Source\PSoC5/Segments.c ****               /*--------------------------------------------------------*/
2885:Generated_Source\PSoC5/Segments.c ****                 {0x00u, 0x00u, 0x02u, 0x00u, 0x00u, 0x00u, 0x00u, 0x00u,
2886:Generated_Source\PSoC5/Segments.c ****               /*--------------------------------------------------------*/
2887:Generated_Source\PSoC5/Segments.c ****               /*  '('    ')'    '*'    '+'    ','    '-'    '.'    '/'  */
2888:Generated_Source\PSoC5/Segments.c ****               /*--------------------------------------------------------*/
2889:Generated_Source\PSoC5/Segments.c ****                  0x0cu, 0x21u, 0x3fu, 0x00u, 0x20u, 0x00u, 0x00u, 0x00u},
2890:Generated_Source\PSoC5/Segments.c ****               /*--------------------------------------------------------*/   
2891:Generated_Source\PSoC5/Segments.c ****               /*  '0'    '1'    '2'    '3'    '4'    '5'    '6'    '7'  */
2892:Generated_Source\PSoC5/Segments.c ****               /*--------------------------------------------------------*/
2893:Generated_Source\PSoC5/Segments.c ****                 {0x24u, 0x00u, 0x00u, 0x00u, 0x00u, 0x00u, 0x00u, 0x00u,
2894:Generated_Source\PSoC5/Segments.c ****               /*--------------------------------------------------------*/
2895:Generated_Source\PSoC5/Segments.c ****               /*  '8'    '9'    ':'    ';'    '<'    '='    '>'    '?'  */
2896:Generated_Source\PSoC5/Segments.c ****               /*--------------------------------------------------------*/
2897:Generated_Source\PSoC5/Segments.c ****                  0x00u, 0x00u, 0x00u, 0x00u, 0x00u, 0x00u, 0x00u, 0x10u},
2898:Generated_Source\PSoC5/Segments.c ****               /*--------------------------------------------------------*/
2899:Generated_Source\PSoC5/Segments.c ****               /*  '@'    'A'    'B'    'C'    'D'    'E'    'F'    'G'  */
2900:Generated_Source\PSoC5/Segments.c ****               /*--------------------------------------------------------*/
2901:Generated_Source\PSoC5/Segments.c ****                 {0x00u, 0x00u, 0x12u, 0x00u, 0x12u, 0x00u, 0x00u, 0x00u,
2902:Generated_Source\PSoC5/Segments.c ****               /*--------------------------------------------------------*/
2903:Generated_Source\PSoC5/Segments.c ****               /*  'H'    'I'    'J'    'K'    'L'    'M'    'N'    'O'  */
2904:Generated_Source\PSoC5/Segments.c ****               /*--------------------------------------------------------*/
2905:Generated_Source\PSoC5/Segments.c ****                  0x00u, 0x12u, 0x00u, 0x0cu, 0x00u, 0x05u, 0x09u, 0x00u},
2906:Generated_Source\PSoC5/Segments.c ****               /*--------------------------------------------------------*/
2907:Generated_Source\PSoC5/Segments.c ****               /*  'P'    'Q'    'R'    'S'    'T'    'U'    'V'    'W'  */
2908:Generated_Source\PSoC5/Segments.c ****               /*--------------------------------------------------------*/
2909:Generated_Source\PSoC5/Segments.c ****                 {0x00u, 0x08u, 0x08u, 0x00u, 0x12u, 0x00u, 0x24u, 0x28u,
2910:Generated_Source\PSoC5/Segments.c ****               /*--------------------------------------------------------*/
2911:Generated_Source\PSoC5/Segments.c ****               /*  'X'    'Y'    'Z'    '['    '\'    ']'    '^'    '_'  */
2912:Generated_Source\PSoC5/Segments.c ****               /*--------------------------------------------------------*/
2913:Generated_Source\PSoC5/Segments.c ****                  0x2du, 0x15u, 0x24u, 0x00u, 0x00u, 0x00u, 0x00u, 0x00u},
2914:Generated_Source\PSoC5/Segments.c ****               /*--------------------------------------------------------*/
2915:Generated_Source\PSoC5/Segments.c ****               /*  '`'    'a'    'b'    'c'    'd'    'e'    'f'    'g'  */
2916:Generated_Source\PSoC5/Segments.c ****               /*--------------------------------------------------------*/
2917:Generated_Source\PSoC5/Segments.c ****                 {0x00u, 0x00u, 0x00u, 0x00u, 0x00u, 0x00u, 0x00u, 0x00u,
2918:Generated_Source\PSoC5/Segments.c ****               /*--------------------------------------------------------*/
2919:Generated_Source\PSoC5/Segments.c ****               /*  'h'    'i'    'j'    'k'    'l'    'm'    'n'    'o'  */
2920:Generated_Source\PSoC5/Segments.c ****               /*--------------------------------------------------------*/
2921:Generated_Source\PSoC5/Segments.c ****                  0x00u, 0x10u, 0x00u, 0x0cu, 0x12u, 0x10u, 0x00u, 0x00u},
2922:Generated_Source\PSoC5/Segments.c ****               /*--------------------------------------------------------*/
2923:Generated_Source\PSoC5/Segments.c ****               /*  'p'    'q'    'r'    's'    't'    'u'    'v'    'w'  */
2924:Generated_Source\PSoC5/Segments.c ****               /*--------------------------------------------------------*/
ARM GAS  C:\Users\Esteban\AppData\Local\Temp\ccHxlO6N.s 			page 94


2925:Generated_Source\PSoC5/Segments.c ****                 {0x00u, 0x08u, 0x00u, 0x00u, 0x12u, 0x00u, 0x20u, 0x10u,
2926:Generated_Source\PSoC5/Segments.c ****               /*--------------------------------------------------------*/
2927:Generated_Source\PSoC5/Segments.c ****               /*  'x'    'y'    'z'    '{'    '|'    '}'    '~'   'DEL' */
2928:Generated_Source\PSoC5/Segments.c ****               /*--------------------------------------------------------*/
2929:Generated_Source\PSoC5/Segments.c ****                  0x2du, 0x15u, 0x24u, 0x00u, 0x00u, 0x00u, 0x00u, 0x00u}
2930:Generated_Source\PSoC5/Segments.c ****               };
2931:Generated_Source\PSoC5/Segments.c ****     #else
2932:Generated_Source\PSoC5/Segments.c ****         /* 14-segment ASCII LUT for low byte */
2933:Generated_Source\PSoC5/Segments.c ****         static const uint8 CYCODE Segments_14SegASCIILow[6][16] =
2934:Generated_Source\PSoC5/Segments.c ****               {
2935:Generated_Source\PSoC5/Segments.c ****               /*--------------------------------------------------------*/
2936:Generated_Source\PSoC5/Segments.c ****               /* 'Space' '!'    '"'    '#'    '$'    '%'    '&'    '''  */
2937:Generated_Source\PSoC5/Segments.c ****               /*--------------------------------------------------------*/
2938:Generated_Source\PSoC5/Segments.c ****                 {0xffu, 0xcfu, 0xdfu, 0xffu, 0xffu, 0xffu, 0xffu, 0xdfu,
2939:Generated_Source\PSoC5/Segments.c ****               /*--------------------------------------------------------*/
2940:Generated_Source\PSoC5/Segments.c ****               /*  '('    ')'    '*'    '+'    ','    '-'    '.'    '/'  */
2941:Generated_Source\PSoC5/Segments.c ****               /*--------------------------------------------------------*/
2942:Generated_Source\PSoC5/Segments.c ****                  0xffu, 0xffu, 0x3fu, 0xffu, 0xffu, 0x3fu, 0xffu, 0xffu},
2943:Generated_Source\PSoC5/Segments.c ****               /*--------------------------------------------------------*/   
2944:Generated_Source\PSoC5/Segments.c ****               /*  '0'    '1'    '2'    '3'    '4'    '5'    '6'    '7'  */
2945:Generated_Source\PSoC5/Segments.c ****               /*--------------------------------------------------------*/
2946:Generated_Source\PSoC5/Segments.c ****                 {0xc0u, 0xf9u, 0x24u, 0x30u, 0x19u, 0x12u, 0x02u, 0xf8u,
2947:Generated_Source\PSoC5/Segments.c ****               /*--------------------------------------------------------*/
2948:Generated_Source\PSoC5/Segments.c ****               /*  '8'    '9'    ':'    ';'    '<'    '='    '>'    '?'  */
2949:Generated_Source\PSoC5/Segments.c ****               /*--------------------------------------------------------*/
2950:Generated_Source\PSoC5/Segments.c ****                  0x00u, 0x10u, 0xffu, 0xffu, 0xffu, 0x37u, 0xffu, 0x7cu},
2951:Generated_Source\PSoC5/Segments.c ****               /*--------------------------------------------------------*/
2952:Generated_Source\PSoC5/Segments.c ****               /*  '@'    'A'    'B'    'C'    'D'    'E'    'F'    'G'  */
2953:Generated_Source\PSoC5/Segments.c ****               /*--------------------------------------------------------*/
2954:Generated_Source\PSoC5/Segments.c ****                 {0xffu, 0x08u, 0x70u, 0xc6u, 0xf0u, 0x06u, 0x0eu, 0x42u,
2955:Generated_Source\PSoC5/Segments.c ****               /*--------------------------------------------------------*/
2956:Generated_Source\PSoC5/Segments.c ****               /*  'H'    'I'    'J'    'K'    'L'    'M'    'N'    'O'  */
2957:Generated_Source\PSoC5/Segments.c ****               /*--------------------------------------------------------*/
2958:Generated_Source\PSoC5/Segments.c ****                  0x09u, 0xf6u, 0xe1u, 0x8fu, 0xc7u, 0xc9u, 0xc9u, 0xc0u},
2959:Generated_Source\PSoC5/Segments.c ****               /*--------------------------------------------------------*/
2960:Generated_Source\PSoC5/Segments.c ****               /*  'P'    'Q'    'R'    'S'    'T'    'U'    'V'    'W'  */
2961:Generated_Source\PSoC5/Segments.c ****               /*--------------------------------------------------------*/
2962:Generated_Source\PSoC5/Segments.c ****                 {0x0cu, 0xc0u, 0x0cu, 0x12u, 0xfeu, 0xc1u, 0xcfu, 0xc9u,
2963:Generated_Source\PSoC5/Segments.c ****               /*--------------------------------------------------------*/
2964:Generated_Source\PSoC5/Segments.c ****               /*  'X'    'Y'    'Z'    '['    '\'    ']'    '^'    '_'  */
2965:Generated_Source\PSoC5/Segments.c ****               /*--------------------------------------------------------*/
2966:Generated_Source\PSoC5/Segments.c ****                  0xffu, 0xffu, 0xf6u, 0xffu, 0xffu, 0xffu, 0xffu, 0xf7u},
2967:Generated_Source\PSoC5/Segments.c ****               /*--------------------------------------------------------*/
2968:Generated_Source\PSoC5/Segments.c ****               /*  '`'    'a'    'b'    'c'    'd'    'e'    'f'    'g'  */
2969:Generated_Source\PSoC5/Segments.c ****               /*--------------------------------------------------------*/
2970:Generated_Source\PSoC5/Segments.c ****                 {0xffu, 0x08u, 0x03u, 0x27u, 0x21u, 0x06u, 0x0eu, 0x10u,
2971:Generated_Source\PSoC5/Segments.c ****               /*--------------------------------------------------------*/
2972:Generated_Source\PSoC5/Segments.c ****               /*  'h'    'i'    'j'    'k'    'l'    'm'    'n'    'o'  */
2973:Generated_Source\PSoC5/Segments.c ****               /*--------------------------------------------------------*/
2974:Generated_Source\PSoC5/Segments.c ****                  0x0bu, 0xffu, 0xe1u, 0x8fu, 0xffu, 0x2bu, 0x2bu, 0x23u},
2975:Generated_Source\PSoC5/Segments.c ****               /*--------------------------------------------------------*/
2976:Generated_Source\PSoC5/Segments.c ****               /*  'p'    'q'    'r'    's'    't'    'u'    'v'    'w'  */
2977:Generated_Source\PSoC5/Segments.c ****               /*--------------------------------------------------------*/
2978:Generated_Source\PSoC5/Segments.c ****                 {0x0cu, 0xc0u, 0x2fu, 0x12u, 0x3fu, 0xe3u, 0xefu, 0xe3u,
2979:Generated_Source\PSoC5/Segments.c ****               /*--------------------------------------------------------*/
2980:Generated_Source\PSoC5/Segments.c ****               /*  'x'    'y'    'z'    '{'    '|'    '}'    '~'   'DEL' */
2981:Generated_Source\PSoC5/Segments.c ****               /*--------------------------------------------------------*/
ARM GAS  C:\Users\Esteban\AppData\Local\Temp\ccHxlO6N.s 			page 95


2982:Generated_Source\PSoC5/Segments.c ****                  0xffu, 0xffu, 0xf6u, 0xffu, 0xffu, 0xffu, 0xffu, 0xffu}
2983:Generated_Source\PSoC5/Segments.c ****               };
2984:Generated_Source\PSoC5/Segments.c **** 
2985:Generated_Source\PSoC5/Segments.c ****         /* 14-segment ASCII LUT for high byte */
2986:Generated_Source\PSoC5/Segments.c ****         static const uint8 CYCODE Segments_14SegASCIIHigh[6][16] =
2987:Generated_Source\PSoC5/Segments.c ****               {
2988:Generated_Source\PSoC5/Segments.c ****               /*--------------------------------------------------------*/
2989:Generated_Source\PSoC5/Segments.c ****               /* 'Space' '!'    '"'    '#'    '$'    '%'    '&'    '''  */
2990:Generated_Source\PSoC5/Segments.c ****               /*--------------------------------------------------------*/
2991:Generated_Source\PSoC5/Segments.c ****                 {0xffu, 0xffu, 0xfdu, 0xffu, 0xffu, 0xffu, 0xffu, 0xffu,
2992:Generated_Source\PSoC5/Segments.c ****               /*--------------------------------------------------------*/
2993:Generated_Source\PSoC5/Segments.c ****               /*  '('    ')'    '*'    '+'    ','    '-'    '.'    '/'  */
2994:Generated_Source\PSoC5/Segments.c ****               /*--------------------------------------------------------*/
2995:Generated_Source\PSoC5/Segments.c ****                  0xf3u, 0xdeu, 0xc0u, 0xffu, 0xdfu, 0xffu, 0xffu, 0xffu},
2996:Generated_Source\PSoC5/Segments.c ****               /*--------------------------------------------------------*/   
2997:Generated_Source\PSoC5/Segments.c ****               /*  '0'    '1'    '2'    '3'    '4'    '5'    '6'    '7'  */
2998:Generated_Source\PSoC5/Segments.c ****               /*--------------------------------------------------------*/
2999:Generated_Source\PSoC5/Segments.c ****                 {0xdbu, 0xffu, 0xffu, 0xffu, 0xffu, 0xffu, 0xffu, 0xffu,
3000:Generated_Source\PSoC5/Segments.c ****               /*--------------------------------------------------------*/
3001:Generated_Source\PSoC5/Segments.c ****               /*  '8'    '9'    ':'    ';'    '<'    '='    '>'    '?'  */
3002:Generated_Source\PSoC5/Segments.c ****               /*--------------------------------------------------------*/
3003:Generated_Source\PSoC5/Segments.c ****                  0xffu, 0xffu, 0xffu, 0xffu, 0xffu, 0xffu, 0xffu, 0xefu},
3004:Generated_Source\PSoC5/Segments.c ****               /*--------------------------------------------------------*/
3005:Generated_Source\PSoC5/Segments.c ****               /*  '@'    'A'    'B'    'C'    'D'    'E'    'F'    'G'  */
3006:Generated_Source\PSoC5/Segments.c ****               /*--------------------------------------------------------*/
3007:Generated_Source\PSoC5/Segments.c ****                 {0xffu, 0xffu, 0xedu, 0xffu, 0xedu, 0xffu, 0xffu, 0xffu,
3008:Generated_Source\PSoC5/Segments.c ****               /*--------------------------------------------------------*/
3009:Generated_Source\PSoC5/Segments.c ****               /*  'H'    'I'    'J'    'K'    'L'    'M'    'N'    'O'  */
3010:Generated_Source\PSoC5/Segments.c ****               /*--------------------------------------------------------*/
3011:Generated_Source\PSoC5/Segments.c ****                  0xffu, 0xedu, 0xffu, 0xf3u, 0xffu, 0xfau, 0xf6u, 0xffu},
3012:Generated_Source\PSoC5/Segments.c ****               /*--------------------------------------------------------*/
3013:Generated_Source\PSoC5/Segments.c ****               /*  'P'    'Q'    'R'    'S'    'T'    'U'    'V'    'W'  */
3014:Generated_Source\PSoC5/Segments.c ****               /*--------------------------------------------------------*/
3015:Generated_Source\PSoC5/Segments.c ****                 {0xffu, 0xf7u, 0xf7u, 0xffu, 0xedu, 0xffu, 0xdbu, 0xd7u,
3016:Generated_Source\PSoC5/Segments.c ****               /*--------------------------------------------------------*/
3017:Generated_Source\PSoC5/Segments.c ****               /*  'X'    'Y'    'Z'    '['    '\'    ']'    '^'    '_'  */
3018:Generated_Source\PSoC5/Segments.c ****               /*--------------------------------------------------------*/
3019:Generated_Source\PSoC5/Segments.c ****                  0xd2u, 0xeau, 0xdbu, 0xffu, 0xffu, 0xffu, 0xffu, 0xffu},
3020:Generated_Source\PSoC5/Segments.c ****               /*--------------------------------------------------------*/
3021:Generated_Source\PSoC5/Segments.c ****               /*  '`'    'a'    'b'    'c'    'd'    'e'    'f'    'g'  */
3022:Generated_Source\PSoC5/Segments.c ****               /*--------------------------------------------------------*/
3023:Generated_Source\PSoC5/Segments.c ****                 {0xffu, 0xffu, 0xffu, 0xffu, 0xffu, 0xffu, 0xffu, 0xffu,
3024:Generated_Source\PSoC5/Segments.c ****               /*--------------------------------------------------------*/
3025:Generated_Source\PSoC5/Segments.c ****               /*  'h'    'i'    'j'    'k'    'l'    'm'    'n'    'o'  */
3026:Generated_Source\PSoC5/Segments.c ****               /*--------------------------------------------------------*/
3027:Generated_Source\PSoC5/Segments.c ****                  0xffu, 0xefu, 0xffu, 0xf3u, 0xedu, 0xefu, 0xffu, 0xffu},
3028:Generated_Source\PSoC5/Segments.c ****               /*--------------------------------------------------------*/
3029:Generated_Source\PSoC5/Segments.c ****               /*  'p'    'q'    'r'    's'    't'    'u'    'v'    'w'  */
3030:Generated_Source\PSoC5/Segments.c ****               /*--------------------------------------------------------*/
3031:Generated_Source\PSoC5/Segments.c ****                 {0xffu, 0xf7u, 0xffu, 0xffu, 0xedu, 0xffu, 0xdfu, 0xefu,
3032:Generated_Source\PSoC5/Segments.c ****               /*--------------------------------------------------------*/
3033:Generated_Source\PSoC5/Segments.c ****               /*  'x'    'y'    'z'    '{'    '|'    '}'    '~'   'DEL' */
3034:Generated_Source\PSoC5/Segments.c ****               /*--------------------------------------------------------*/
3035:Generated_Source\PSoC5/Segments.c ****                  0xd2u, 0xeau, 0xdbu, 0xffu, 0xffu, 0xffu, 0xffu, 0xffu}
3036:Generated_Source\PSoC5/Segments.c ****               };
3037:Generated_Source\PSoC5/Segments.c ****     #endif /*  Segments_SEG_DRIVE */
3038:Generated_Source\PSoC5/Segments.c ****     
ARM GAS  C:\Users\Esteban\AppData\Local\Temp\ccHxlO6N.s 			page 96


3039:Generated_Source\PSoC5/Segments.c ****     uint8 valLow;
3040:Generated_Source\PSoC5/Segments.c ****     uint8 valHigh;
3041:Generated_Source\PSoC5/Segments.c ****     uint16 valHexLow;
3042:Generated_Source\PSoC5/Segments.c ****     uint16 valHexHigh;
3043:Generated_Source\PSoC5/Segments.c ****     uint16 valHex;
3044:Generated_Source\PSoC5/Segments.c ****     
3045:Generated_Source\PSoC5/Segments.c ****     valLow = (uint8)((uint8)input & Segments_NIBBLE_MASK);
 2172              		.loc 1 3045 0
 2173 0000 00F00F02 		and	r2, r0, #15
 2174              	.LVL264:
3046:Generated_Source\PSoC5/Segments.c ****     
3047:Generated_Source\PSoC5/Segments.c ****     /* valHigh used to access the row of LUT */
3048:Generated_Source\PSoC5/Segments.c ****     valHigh = (uint8)((uint8)input >> Segments_SHIFT_NIBBLE);
 2175              		.loc 1 3048 0
 2176 0004 0009     		lsrs	r0, r0, #4
 2177              	.LVL265:
3049:Generated_Source\PSoC5/Segments.c ****     
3050:Generated_Source\PSoC5/Segments.c ****     /* Check if the high nibble is within valid ASCII range */
3051:Generated_Source\PSoC5/Segments.c ****     if ((valHigh > Segments_SEG_ASCII_LIM_LO) && (valHigh < Segments_SEG_ASCII_LIM_HI))
 2178              		.loc 1 3051 0
 2179 0006 0238     		subs	r0, r0, #2
 2180              	.LVL266:
 2181 0008 C0B2     		uxtb	r0, r0
 2182              	.LVL267:
 2183 000a 0528     		cmp	r0, #5
 2184 000c 0AD8     		bhi	.L238
 2185              	.LVL268:
3052:Generated_Source\PSoC5/Segments.c ****     {
3053:Generated_Source\PSoC5/Segments.c ****         valHigh = valHigh - Segments_SEG_ASCII_OFFSET;
3054:Generated_Source\PSoC5/Segments.c ****         
3055:Generated_Source\PSoC5/Segments.c ****         /* Get the 14-seg hex value from high and low byte LUTs */
3056:Generated_Source\PSoC5/Segments.c ****         valHexHigh = (uint16)((uint16)Segments_14SegASCIIHigh[valHigh][valLow] << Segments_SHIFT_BY
 2186              		.loc 1 3056 0
 2187 000e 064B     		ldr	r3, .L239
 2188 0010 03EB0010 		add	r0, r3, r0, lsl #4
 2189              	.LVL269:
 2190 0014 8318     		adds	r3, r0, r2
 2191 0016 93F89000 		ldrb	r0, [r3, #144]	@ zero_extendqisi2
 2192              	.LVL270:
3057:Generated_Source\PSoC5/Segments.c ****         valHexLow = (uint16)Segments_14SegASCIILow[valHigh][valLow];
 2193              		.loc 1 3057 0
 2194 001a 93F8F030 		ldrb	r3, [r3, #240]	@ zero_extendqisi2
 2195              	.LVL271:
3058:Generated_Source\PSoC5/Segments.c ****         
3059:Generated_Source\PSoC5/Segments.c ****         valHex = valHexHigh | valHexLow;
 2196              		.loc 1 3059 0
 2197 001e 43EA0020 		orr	r0, r3, r0, lsl #8
 2198              	.LVL272:
 2199 0022 7047     		bx	lr
 2200              	.LVL273:
 2201              	.L238:
3060:Generated_Source\PSoC5/Segments.c ****     }
3061:Generated_Source\PSoC5/Segments.c ****     else
3062:Generated_Source\PSoC5/Segments.c ****     {
3063:Generated_Source\PSoC5/Segments.c ****         valHex = Segments_CLEAR_16;
 2202              		.loc 1 3063 0
 2203 0024 0020     		movs	r0, #0
ARM GAS  C:\Users\Esteban\AppData\Local\Temp\ccHxlO6N.s 			page 97


 2204              	.LVL274:
3064:Generated_Source\PSoC5/Segments.c ****     }
3065:Generated_Source\PSoC5/Segments.c ****         
3066:Generated_Source\PSoC5/Segments.c ****     return(valHex);
3067:Generated_Source\PSoC5/Segments.c **** }
 2205              		.loc 1 3067 0
 2206 0026 7047     		bx	lr
 2207              	.L240:
 2208              		.align	2
 2209              	.L239:
 2210 0028 00000000 		.word	.LANCHOR2
 2211              		.cfi_endproc
 2212              	.LFE37:
 2213              		.size	Segments_EncodeChar14Seg, .-Segments_EncodeChar14Seg
 2214              		.section	.text.Segments_Write14SegNumberDec,"ax",%progbits
 2215              		.align	2
 2216              		.global	Segments_Write14SegNumberDec
 2217              		.thumb
 2218              		.thumb_func
 2219              		.type	Segments_Write14SegNumberDec, %function
 2220              	Segments_Write14SegNumberDec:
 2221              	.LFB20:
1534:Generated_Source\PSoC5/Segments.c ****     uint8 i;
 2222              		.loc 1 1534 0
 2223              		.cfi_startproc
 2224              		@ args = 0, pretend = 0, frame = 16
 2225              		@ frame_needed = 0, uses_anonymous_args = 0
 2226              	.LVL275:
 2227 0000 2DE9F043 		push	{r4, r5, r6, r7, r8, r9, lr}
 2228              		.cfi_def_cfa_offset 28
 2229              		.cfi_offset 4, -28
 2230              		.cfi_offset 5, -24
 2231              		.cfi_offset 6, -20
 2232              		.cfi_offset 7, -16
 2233              		.cfi_offset 8, -12
 2234              		.cfi_offset 9, -8
 2235              		.cfi_offset 14, -4
 2236 0004 85B0     		sub	sp, sp, #20
 2237              		.cfi_def_cfa_offset 48
 2238 0006 0D46     		mov	r5, r1
 2239 0008 1446     		mov	r4, r2
 2240 000a 1E46     		mov	r6, r3
 2241              	.LVL276:
1540:Generated_Source\PSoC5/Segments.c ****     uint32 numberVal;
 2242              		.loc 1 1540 0
 2243 000c 0023     		movs	r3, #0
 2244              	.LVL277:
 2245 000e 0093     		str	r3, [sp]
 2246 0010 0193     		str	r3, [sp, #4]
 2247 0012 0293     		str	r3, [sp, #8]
 2248 0014 0393     		str	r3, [sp, #12]
1544:Generated_Source\PSoC5/Segments.c ****     {
 2249              		.loc 1 1544 0
 2250 0016 0028     		cmp	r0, #0
 2251 0018 02DB     		blt	.L242
1546:Generated_Source\PSoC5/Segments.c ****         numberSign = Segments_UNSIGNED;
 2252              		.loc 1 1546 0
ARM GAS  C:\Users\Esteban\AppData\Local\Temp\ccHxlO6N.s 			page 98


 2253 001a 0246     		mov	r2, r0
 2254              	.LVL278:
1547:Generated_Source\PSoC5/Segments.c ****     }
 2255              		.loc 1 1547 0
 2256 001c 1F46     		mov	r7, r3
 2257 001e 01E0     		b	.L243
 2258              	.LVL279:
 2259              	.L242:
1551:Generated_Source\PSoC5/Segments.c ****         numberSign = Segments_SIGNED;
 2260              		.loc 1 1551 0
 2261 0020 4242     		negs	r2, r0
 2262              	.LVL280:
1552:Generated_Source\PSoC5/Segments.c ****     }
 2263              		.loc 1 1552 0
 2264 0022 0127     		movs	r7, #1
 2265              	.LVL281:
 2266              	.L243:
1556:Generated_Source\PSoC5/Segments.c ****     {
 2267              		.loc 1 1556 0
 2268 0024 2346     		mov	r3, r4
 2269 0026 15E0     		b	.L244
 2270              	.LVL282:
 2271              	.L245:
1558:Generated_Source\PSoC5/Segments.c ****         bufArray[i-1u] = Segments_EncodeNumber14Seg(selectVal);
 2272              		.loc 1 1558 0 discriminator 3
 2273 0028 4148     		ldr	r0, .L265
 2274 002a A0FB0210 		umull	r1, r0, r0, r2
 2275 002e C008     		lsrs	r0, r0, #3
 2276 0030 8046     		mov	r8, r0
 2277 0032 00EB8000 		add	r0, r0, r0, lsl #2
 2278 0036 4100     		lsls	r1, r0, #1
 2279 0038 501A     		subs	r0, r2, r1
 2280              	.LVL283:
1559:Generated_Source\PSoC5/Segments.c ****         numberVal = numberVal / 10u;
 2281              		.loc 1 1559 0 discriminator 3
 2282 003a 03F1FF39 		add	r9, r3, #-1
 2283 003e C0B2     		uxtb	r0, r0
 2284 0040 FFF7FEFF 		bl	Segments_EncodeNumber14Seg
 2285              	.LVL284:
 2286 0044 04AB     		add	r3, sp, #16
 2287 0046 03EB4903 		add	r3, r3, r9, lsl #1
 2288 004a 23F8100C 		strh	r0, [r3, #-16]	@ movhi
1560:Generated_Source\PSoC5/Segments.c ****     }
 2289              		.loc 1 1560 0 discriminator 3
 2290 004e 4246     		mov	r2, r8
 2291              	.LVL285:
1556:Generated_Source\PSoC5/Segments.c ****     {
 2292              		.loc 1 1556 0 discriminator 3
 2293 0050 5FFA89F3 		uxtb	r3, r9
 2294              	.LVL286:
 2295              	.L244:
1556:Generated_Source\PSoC5/Segments.c ****     {
 2296              		.loc 1 1556 0 is_stmt 0 discriminator 1
 2297 0054 002B     		cmp	r3, #0
 2298 0056 E7D1     		bne	.L245
1564:Generated_Source\PSoC5/Segments.c ****     {
 2299              		.loc 1 1564 0 is_stmt 1
ARM GAS  C:\Users\Esteban\AppData\Local\Temp\ccHxlO6N.s 			page 99


 2300 0058 022E     		cmp	r6, #2
 2301 005a 33D1     		bne	.L262
1566:Generated_Source\PSoC5/Segments.c ****         {
 2302              		.loc 1 1566 0
 2303 005c B7B3     		cbz	r7, .L247
1569:Generated_Source\PSoC5/Segments.c ****         }
 2304              		.loc 1 1569 0
 2305 005e 2D20     		movs	r0, #45
 2306 0060 FFF7FEFF 		bl	Segments_EncodeChar14Seg
 2307              	.LVL287:
 2308 0064 ADF80000 		strh	r0, [sp]	@ movhi
 2309 0068 30E0     		b	.L247
 2310              	.LVL288:
 2311              	.L251:
1576:Generated_Source\PSoC5/Segments.c ****             {
 2312              		.loc 1 1576 0
 2313 006a 9846     		mov	r8, r3
 2314 006c 04A9     		add	r1, sp, #16
 2315 006e 01EB4301 		add	r1, r1, r3, lsl #1
 2316 0072 31F8100C 		ldrh	r0, [r1, #-16]
 2317 0076 42F23F41 		movw	r1, #9279
 2318 007a 8842     		cmp	r0, r1
 2319 007c 14D0     		beq	.L248
1578:Generated_Source\PSoC5/Segments.c ****                 {
 2320              		.loc 1 1578 0
 2321 007e 2FB3     		cbz	r7, .L247
1580:Generated_Source\PSoC5/Segments.c ****                     {
 2322              		.loc 1 1580 0
 2323 0080 43B9     		cbnz	r3, .L249
1583:Generated_Source\PSoC5/Segments.c ****                     }
 2324              		.loc 1 1583 0
 2325 0082 2D20     		movs	r0, #45
 2326 0084 FFF7FEFF 		bl	Segments_EncodeChar14Seg
 2327              	.LVL289:
 2328 0088 04AB     		add	r3, sp, #16
 2329 008a 03EB4808 		add	r8, r3, r8, lsl #1
 2330 008e 28F8100C 		strh	r0, [r8, #-16]	@ movhi
 2331 0092 1BE0     		b	.L247
 2332              	.LVL290:
 2333              	.L249:
1588:Generated_Source\PSoC5/Segments.c ****                     }
 2334              		.loc 1 1588 0
 2335 0094 5F1E     		subs	r7, r3, #1
 2336              	.LVL291:
 2337 0096 2D20     		movs	r0, #45
 2338 0098 FFF7FEFF 		bl	Segments_EncodeChar14Seg
 2339              	.LVL292:
 2340 009c 04AB     		add	r3, sp, #16
 2341 009e 03EB4703 		add	r3, r3, r7, lsl #1
 2342 00a2 23F8100C 		strh	r0, [r3, #-16]	@ movhi
 2343 00a6 11E0     		b	.L247
 2344              	.LVL293:
 2345              	.L248:
1596:Generated_Source\PSoC5/Segments.c ****                 {
 2346              		.loc 1 1596 0
 2347 00a8 611E     		subs	r1, r4, #1
 2348 00aa 8A42     		cmp	r2, r1
ARM GAS  C:\Users\Esteban\AppData\Local\Temp\ccHxlO6N.s 			page 100


 2349 00ac 07D0     		beq	.L250
1599:Generated_Source\PSoC5/Segments.c ****                     zeroCount++;
 2350              		.loc 1 1599 0
 2351 00ae 04A9     		add	r1, sp, #16
 2352 00b0 01EB4308 		add	r8, r1, r3, lsl #1
 2353 00b4 0021     		movs	r1, #0
 2354 00b6 28F8101C 		strh	r1, [r8, #-16]	@ movhi
1600:Generated_Source\PSoC5/Segments.c ****                 }
 2355              		.loc 1 1600 0
 2356 00ba 0132     		adds	r2, r2, #1
 2357              	.LVL294:
 2358 00bc D2B2     		uxtb	r2, r2
 2359              	.LVL295:
 2360              	.L250:
1574:Generated_Source\PSoC5/Segments.c ****         {
 2361              		.loc 1 1574 0 discriminator 2
 2362 00be 0133     		adds	r3, r3, #1
 2363              	.LVL296:
 2364 00c0 DBB2     		uxtb	r3, r3
 2365              	.LVL297:
 2366 00c2 01E0     		b	.L246
 2367              	.LVL298:
 2368              	.L262:
 2369 00c4 0022     		movs	r2, #0
 2370              	.LVL299:
 2371 00c6 1346     		mov	r3, r2
 2372              	.LVL300:
 2373              	.L246:
1574:Generated_Source\PSoC5/Segments.c ****         {
 2374              		.loc 1 1574 0 is_stmt 0 discriminator 1
 2375 00c8 A342     		cmp	r3, r4
 2376 00ca CED3     		bcc	.L251
 2377              	.LVL301:
 2378              	.L247:
1609:Generated_Source\PSoC5/Segments.c ****     {
 2379              		.loc 1 1609 0 is_stmt 1
 2380 00cc 012E     		cmp	r6, #1
 2381 00ce 29D1     		bne	.L253
 2382 00d0 0EE0     		b	.L263
 2383              	.LVL302:
 2384              	.L256:
1613:Generated_Source\PSoC5/Segments.c ****             {
 2385              		.loc 1 1613 0
 2386 00d2 04AA     		add	r2, sp, #16
 2387 00d4 02EB4302 		add	r2, r2, r3, lsl #1
 2388 00d8 32F8102C 		ldrh	r2, [r2, #-16]
 2389 00dc 2AB1     		cbz	r2, .L254
1615:Generated_Source\PSoC5/Segments.c ****                 {
 2390              		.loc 1 1615 0
 2391 00de 032D     		cmp	r5, #3
 2392 00e0 01D8     		bhi	.L255
1618:Generated_Source\PSoC5/Segments.c ****                 #if (Segments_NUM_SEG > 8u)
 2393              		.loc 1 1618 0
 2394 00e2 1449     		ldr	r1, .L265+4
 2395 00e4 4A55     		strb	r2, [r1, r5]
 2396              	.L255:
1623:Generated_Source\PSoC5/Segments.c ****             }
ARM GAS  C:\Users\Esteban\AppData\Local\Temp\ccHxlO6N.s 			page 101


 2397              		.loc 1 1623 0
 2398 00e6 0135     		adds	r5, r5, #1
 2399              	.LVL303:
 2400 00e8 EDB2     		uxtb	r5, r5
 2401              	.LVL304:
 2402              	.L254:
1611:Generated_Source\PSoC5/Segments.c ****         {
 2403              		.loc 1 1611 0 discriminator 2
 2404 00ea 0133     		adds	r3, r3, #1
 2405              	.LVL305:
 2406 00ec DBB2     		uxtb	r3, r3
 2407              	.LVL306:
 2408 00ee 00E0     		b	.L252
 2409              	.LVL307:
 2410              	.L263:
 2411 00f0 0023     		movs	r3, #0
 2412              	.L252:
 2413              	.LVL308:
1611:Generated_Source\PSoC5/Segments.c ****         {
 2414              		.loc 1 1611 0 is_stmt 0 discriminator 1
 2415 00f2 A342     		cmp	r3, r4
 2416 00f4 EDD3     		bcc	.L256
 2417 00f6 04E0     		b	.L257
 2418              	.LVL309:
 2419              	.L258:
1630:Generated_Source\PSoC5/Segments.c ****             #if (Segments_NUM_SEG > 8u)
 2420              		.loc 1 1630 0 is_stmt 1
 2421 00f8 0022     		movs	r2, #0
 2422 00fa 0E4B     		ldr	r3, .L265+4
 2423 00fc 5A55     		strb	r2, [r3, r5]
1635:Generated_Source\PSoC5/Segments.c ****         }
 2424              		.loc 1 1635 0
 2425 00fe 0135     		adds	r5, r5, #1
 2426              	.LVL310:
 2427 0100 EDB2     		uxtb	r5, r5
 2428              	.LVL311:
 2429              	.L257:
1627:Generated_Source\PSoC5/Segments.c ****         {
 2430              		.loc 1 1627 0
 2431 0102 A542     		cmp	r5, r4
 2432 0104 F8D3     		bcc	.L258
 2433 0106 0FE0     		b	.L241
 2434              	.LVL312:
 2435              	.L261:
1642:Generated_Source\PSoC5/Segments.c ****             {
 2436              		.loc 1 1642 0
 2437 0108 6319     		adds	r3, r4, r5
 2438 010a 013B     		subs	r3, r3, #1
 2439 010c 032B     		cmp	r3, #3
 2440 010e 07D8     		bhi	.L260
1644:Generated_Source\PSoC5/Segments.c ****             #if (Segments_NUM_SEG > 8u)
 2441              		.loc 1 1644 0
 2442 0110 621E     		subs	r2, r4, #1
 2443 0112 04A9     		add	r1, sp, #16
 2444 0114 01EB4202 		add	r2, r1, r2, lsl #1
 2445 0118 12F8101C 		ldrb	r1, [r2, #-16]	@ zero_extendqisi2
 2446 011c 054A     		ldr	r2, .L265+4
ARM GAS  C:\Users\Esteban\AppData\Local\Temp\ccHxlO6N.s 			page 102


 2447 011e D154     		strb	r1, [r2, r3]
 2448              	.L260:
1640:Generated_Source\PSoC5/Segments.c ****         {
 2449              		.loc 1 1640 0 discriminator 2
 2450 0120 013C     		subs	r4, r4, #1
 2451              	.LVL313:
 2452 0122 E4B2     		uxtb	r4, r4
 2453              	.LVL314:
 2454              	.L253:
1640:Generated_Source\PSoC5/Segments.c ****         {
 2455              		.loc 1 1640 0 is_stmt 0 discriminator 1
 2456 0124 002C     		cmp	r4, #0
 2457 0126 EFD1     		bne	.L261
 2458              	.LVL315:
 2459              	.L241:
1651:Generated_Source\PSoC5/Segments.c **** 
 2460              		.loc 1 1651 0 is_stmt 1
 2461 0128 05B0     		add	sp, sp, #20
 2462              		.cfi_def_cfa_offset 28
 2463              		@ sp needed
 2464 012a BDE8F083 		pop	{r4, r5, r6, r7, r8, r9, pc}
 2465              	.LVL316:
 2466              	.L266:
 2467 012e 00BF     		.align	2
 2468              	.L265:
 2469 0130 CDCCCCCC 		.word	-858993459
 2470 0134 00000000 		.word	Segments_segLBuffer
 2471              		.cfi_endproc
 2472              	.LFE20:
 2473              		.size	Segments_Write14SegNumberDec, .-Segments_Write14SegNumberDec
 2474              		.section	.text.Segments_WriteString14Seg,"ax",%progbits
 2475              		.align	2
 2476              		.global	Segments_WriteString14Seg
 2477              		.thumb
 2478              		.thumb_func
 2479              		.type	Segments_WriteString14Seg, %function
 2480              	Segments_WriteString14Seg:
 2481              	.LFB22:
1794:Generated_Source\PSoC5/Segments.c ****     uint8 currPosition;
 2482              		.loc 1 1794 0
 2483              		.cfi_startproc
 2484              		@ args = 0, pretend = 0, frame = 0
 2485              		@ frame_needed = 0, uses_anonymous_args = 0
 2486              	.LVL317:
 2487 0000 F8B5     		push	{r3, r4, r5, r6, r7, lr}
 2488              		.cfi_def_cfa_offset 24
 2489              		.cfi_offset 3, -24
 2490              		.cfi_offset 4, -20
 2491              		.cfi_offset 5, -16
 2492              		.cfi_offset 6, -12
 2493              		.cfi_offset 7, -8
 2494              		.cfi_offset 14, -4
 2495 0002 0746     		mov	r7, r0
 2496 0004 0C46     		mov	r4, r1
 2497              	.LVL318:
1800:Generated_Source\PSoC5/Segments.c ****     
 2498              		.loc 1 1800 0
ARM GAS  C:\Users\Esteban\AppData\Local\Temp\ccHxlO6N.s 			page 103


 2499 0006 FFF7FEFF 		bl	strlen
 2500              	.LVL319:
 2501 000a 2044     		add	r0, r0, r4
 2502 000c C6B2     		uxtb	r6, r0
 2503              	.LVL320:
1797:Generated_Source\PSoC5/Segments.c ****     uint16 charDisplay;
 2504              		.loc 1 1797 0
 2505 000e 0025     		movs	r5, #0
1802:Generated_Source\PSoC5/Segments.c ****     {
 2506              		.loc 1 1802 0
 2507 0010 0AE0     		b	.L268
 2508              	.LVL321:
 2509              	.L270:
1804:Generated_Source\PSoC5/Segments.c ****         {
 2510              		.loc 1 1804 0
 2511 0012 B442     		cmp	r4, r6
 2512 0014 06D2     		bcs	.L269
1806:Generated_Source\PSoC5/Segments.c ****             Segments_segLBuffer[currPosition] = LO8(charDisplay);
 2513              		.loc 1 1806 0
 2514 0016 785D     		ldrb	r0, [r7, r5]	@ zero_extendqisi2
 2515 0018 FFF7FEFF 		bl	Segments_EncodeChar14Seg
 2516              	.LVL322:
1807:Generated_Source\PSoC5/Segments.c ****             #if (Segments_NUM_SEG > 8u)
 2517              		.loc 1 1807 0
 2518 001c 044B     		ldr	r3, .L272
 2519 001e 1855     		strb	r0, [r3, r4]
1811:Generated_Source\PSoC5/Segments.c ****         }
 2520              		.loc 1 1811 0
 2521 0020 0135     		adds	r5, r5, #1
 2522              	.LVL323:
 2523 0022 EDB2     		uxtb	r5, r5
 2524              	.LVL324:
 2525              	.L269:
1802:Generated_Source\PSoC5/Segments.c ****     {
 2526              		.loc 1 1802 0 discriminator 2
 2527 0024 0134     		adds	r4, r4, #1
 2528              	.LVL325:
 2529 0026 E4B2     		uxtb	r4, r4
 2530              	.LVL326:
 2531              	.L268:
1802:Generated_Source\PSoC5/Segments.c ****     {
 2532              		.loc 1 1802 0 is_stmt 0 discriminator 1
 2533 0028 032C     		cmp	r4, #3
 2534 002a F2D9     		bls	.L270
1814:Generated_Source\PSoC5/Segments.c **** 
 2535              		.loc 1 1814 0 is_stmt 1
 2536 002c F8BD     		pop	{r3, r4, r5, r6, r7, pc}
 2537              	.LVL327:
 2538              	.L273:
 2539 002e 00BF     		.align	2
 2540              	.L272:
 2541 0030 00000000 		.word	Segments_segLBuffer
 2542              		.cfi_endproc
 2543              	.LFE22:
 2544              		.size	Segments_WriteString14Seg, .-Segments_WriteString14Seg
 2545              		.section	.text.Segments_PutChar14Seg,"ax",%progbits
 2546              		.align	2
ARM GAS  C:\Users\Esteban\AppData\Local\Temp\ccHxlO6N.s 			page 104


 2547              		.global	Segments_PutChar14Seg
 2548              		.thumb
 2549              		.thumb_func
 2550              		.type	Segments_PutChar14Seg, %function
 2551              	Segments_PutChar14Seg:
 2552              	.LFB23:
1839:Generated_Source\PSoC5/Segments.c ****     uint16 charDisplay;
 2553              		.loc 1 1839 0
 2554              		.cfi_startproc
 2555              		@ args = 0, pretend = 0, frame = 0
 2556              		@ frame_needed = 0, uses_anonymous_args = 0
 2557              	.LVL328:
1842:Generated_Source\PSoC5/Segments.c ****     {
 2558              		.loc 1 1842 0
 2559 0000 0329     		cmp	r1, #3
 2560 0002 06D8     		bhi	.L277
1839:Generated_Source\PSoC5/Segments.c ****     uint16 charDisplay;
 2561              		.loc 1 1839 0
 2562 0004 10B5     		push	{r4, lr}
 2563              		.cfi_def_cfa_offset 8
 2564              		.cfi_offset 4, -8
 2565              		.cfi_offset 14, -4
 2566 0006 0C46     		mov	r4, r1
1844:Generated_Source\PSoC5/Segments.c ****         Segments_segLBuffer[position] = LO8(charDisplay);
 2567              		.loc 1 1844 0
 2568 0008 FFF7FEFF 		bl	Segments_EncodeChar14Seg
 2569              	.LVL329:
1845:Generated_Source\PSoC5/Segments.c ****     #if (Segments_NUM_SEG > 8u)
 2570              		.loc 1 1845 0
 2571 000c 014B     		ldr	r3, .L278
 2572 000e 1855     		strb	r0, [r3, r4]
 2573 0010 10BD     		pop	{r4, pc}
 2574              	.LVL330:
 2575              	.L277:
 2576              		.cfi_def_cfa_offset 0
 2577              		.cfi_restore 4
 2578              		.cfi_restore 14
 2579 0012 7047     		bx	lr
 2580              	.L279:
 2581              		.align	2
 2582              	.L278:
 2583 0014 00000000 		.word	Segments_segLBuffer
 2584              		.cfi_endproc
 2585              	.LFE23:
 2586              		.size	Segments_PutChar14Seg, .-Segments_PutChar14Seg
 2587              		.section	.text.Segments_EncodeNumber16Seg,"ax",%progbits
 2588              		.align	2
 2589              		.global	Segments_EncodeNumber16Seg
 2590              		.thumb
 2591              		.thumb_func
 2592              		.type	Segments_EncodeNumber16Seg, %function
 2593              	Segments_EncodeNumber16Seg:
 2594              	.LFB38:
3068:Generated_Source\PSoC5/Segments.c **** 
3069:Generated_Source\PSoC5/Segments.c **** 
3070:Generated_Source\PSoC5/Segments.c **** /*******************************************************************************
3071:Generated_Source\PSoC5/Segments.c **** * Function Name: Segments_EncodeNumber16Seg
ARM GAS  C:\Users\Esteban\AppData\Local\Temp\ccHxlO6N.s 			page 105


3072:Generated_Source\PSoC5/Segments.c **** ********************************************************************************
3073:Generated_Source\PSoC5/Segments.c **** *
3074:Generated_Source\PSoC5/Segments.c **** * Summary:
3075:Generated_Source\PSoC5/Segments.c **** *  Converts the lower 4 bits of the input into 16-segment data that will 
3076:Generated_Source\PSoC5/Segments.c **** *  display the number in hex on a display. 16-segment display RAM is split into
3077:Generated_Source\PSoC5/Segments.c **** *  two sections for each of the eight segments, so the returned data must be 
3078:Generated_Source\PSoC5/Segments.c **** *  separated into high and low bytes before being written directly into the
3079:Generated_Source\PSoC5/Segments.c **** *  display RAM to display the desired number. It is not necessary to use this
3080:Generated_Source\PSoC5/Segments.c **** *  function since higher level API are provided to both decode the value and 
3081:Generated_Source\PSoC5/Segments.c **** *  write it to the display RAM.
3082:Generated_Source\PSoC5/Segments.c **** *
3083:Generated_Source\PSoC5/Segments.c **** * Parameters:
3084:Generated_Source\PSoC5/Segments.c **** *  uint8 number: A number between 0x0 and 0xF to be converted into segment data.
3085:Generated_Source\PSoC5/Segments.c **** *
3086:Generated_Source\PSoC5/Segments.c **** * Return:
3087:Generated_Source\PSoC5/Segments.c **** *  The value to be written into the display RAM for displaying the specified
3088:Generated_Source\PSoC5/Segments.c **** *  character.
3089:Generated_Source\PSoC5/Segments.c **** *
3090:Generated_Source\PSoC5/Segments.c **** * Side effects:
3091:Generated_Source\PSoC5/Segments.c **** *  None
3092:Generated_Source\PSoC5/Segments.c **** *
3093:Generated_Source\PSoC5/Segments.c **** *******************************************************************************/
3094:Generated_Source\PSoC5/Segments.c **** uint16 Segments_EncodeNumber16Seg(uint8 number) 
3095:Generated_Source\PSoC5/Segments.c **** {
 2595              		.loc 1 3095 0
 2596              		.cfi_startproc
 2597              		@ args = 0, pretend = 0, frame = 0
 2598              		@ frame_needed = 0, uses_anonymous_args = 0
 2599              		@ link register save eliminated.
 2600              	.LVL331:
3096:Generated_Source\PSoC5/Segments.c ****     #if(Segments_SEG_DRIVE == Segments_HIGH)
3097:Generated_Source\PSoC5/Segments.c ****         /* 16-segment numerical LUT for low byte */
3098:Generated_Source\PSoC5/Segments.c ****         static const uint8 CYCODE Segments_16SegDigitsLow[16] =
3099:Generated_Source\PSoC5/Segments.c ****               /*--------------------------------------------------------*/
3100:Generated_Source\PSoC5/Segments.c ****               /*  '0'    '1'    '2'    '3'    '4'    '5'    '6'    '7'  */
3101:Generated_Source\PSoC5/Segments.c ****               /*--------------------------------------------------------*/
3102:Generated_Source\PSoC5/Segments.c ****                 {0xffu, 0x0cu, 0x77u, 0x3fu, 0x8cu, 0xbbu, 0xfbu, 0x0fu,
3103:Generated_Source\PSoC5/Segments.c ****               /*--------------------------------------------------------*/
3104:Generated_Source\PSoC5/Segments.c ****               /*  '8'    '9'    'A'    'B'    'C'    'D'    'E'    'F'  */
3105:Generated_Source\PSoC5/Segments.c ****               /*--------------------------------------------------------*/
3106:Generated_Source\PSoC5/Segments.c ****                  0xffu, 0x8fu, 0xcfu, 0x3fu, 0xf3u, 0x3fu, 0xf3u, 0xc3u};
3107:Generated_Source\PSoC5/Segments.c **** 
3108:Generated_Source\PSoC5/Segments.c ****         /* 16-segment numerical LUT for high byte */
3109:Generated_Source\PSoC5/Segments.c ****         static const uint8 CYCODE Segments_16SegDigitsHigh[16] =
3110:Generated_Source\PSoC5/Segments.c ****               /*--------------------------------------------------------*/
3111:Generated_Source\PSoC5/Segments.c ****               /*  '0'    '1'    '2'    '3'    '4'    '5'    '6'    '7'  */
3112:Generated_Source\PSoC5/Segments.c ****               /*--------------------------------------------------------*/
3113:Generated_Source\PSoC5/Segments.c ****                 {0x90u, 0x00u, 0x03u, 0x03u, 0x03u, 0x03u, 0x03u, 0x00u,
3114:Generated_Source\PSoC5/Segments.c ****               /*--------------------------------------------------------*/
3115:Generated_Source\PSoC5/Segments.c ****               /*  '8'    '9'    'A'    'B'    'C'    'D'    'E'    'F'  */
3116:Generated_Source\PSoC5/Segments.c ****               /*--------------------------------------------------------*/
3117:Generated_Source\PSoC5/Segments.c ****                  0x03u, 0x03u, 0x03u, 0x4au, 0x00u, 0x48u, 0x03u, 0x03u};
3118:Generated_Source\PSoC5/Segments.c ****     #else
3119:Generated_Source\PSoC5/Segments.c ****         /* 16-segment numerical LUT for low byte */
3120:Generated_Source\PSoC5/Segments.c ****         static const uint8 CYCODE Segments_16SegDigitsLow[16] =
3121:Generated_Source\PSoC5/Segments.c ****               /*--------------------------------------------------------*/
3122:Generated_Source\PSoC5/Segments.c ****               /*  '0'    '1'    '2'    '3'    '4'    '5'    '6'    '7'  */
ARM GAS  C:\Users\Esteban\AppData\Local\Temp\ccHxlO6N.s 			page 106


3123:Generated_Source\PSoC5/Segments.c ****               /*--------------------------------------------------------*/
3124:Generated_Source\PSoC5/Segments.c ****                 {0x00u, 0xf3u, 0x88u, 0xc0u, 0x73u, 0x44u, 0x04u, 0xf0u,
3125:Generated_Source\PSoC5/Segments.c ****               /*--------------------------------------------------------*/
3126:Generated_Source\PSoC5/Segments.c ****               /*  '8'    '9'    'A'    'B'    'C'    'D'    'E'    'F'  */
3127:Generated_Source\PSoC5/Segments.c ****               /*--------------------------------------------------------*/
3128:Generated_Source\PSoC5/Segments.c ****                  0x00u, 0x70u, 0x30u, 0xc0u, 0x0cu, 0xc0u, 0x0cu, 0x3cu};
3129:Generated_Source\PSoC5/Segments.c **** 
3130:Generated_Source\PSoC5/Segments.c ****         /* 16-segment numerical LUT for high byte */
3131:Generated_Source\PSoC5/Segments.c ****         static const uint8 CYCODE Segments_16SegDigitsHigh[16] =
3132:Generated_Source\PSoC5/Segments.c ****               /*--------------------------------------------------------*/
3133:Generated_Source\PSoC5/Segments.c ****               /*  '0'    '1'    '2'    '3'    '4'    '5'    '6'    '7'  */
3134:Generated_Source\PSoC5/Segments.c ****               /*--------------------------------------------------------*/
3135:Generated_Source\PSoC5/Segments.c ****                 {0x6fu, 0xffu, 0xfcu, 0xfcu, 0xfcu, 0xfcu, 0xfcu, 0xffu,
3136:Generated_Source\PSoC5/Segments.c ****               /*--------------------------------------------------------*/
3137:Generated_Source\PSoC5/Segments.c ****               /*  '8'    '9'    'A'    'B'    'C'    'D'    'E'    'F'  */
3138:Generated_Source\PSoC5/Segments.c ****               /*--------------------------------------------------------*/
3139:Generated_Source\PSoC5/Segments.c ****                  0xfcu, 0xfcu, 0xfcu, 0xb5u, 0xffu, 0xb7u, 0xfcu, 0xfcu};
3140:Generated_Source\PSoC5/Segments.c ****     #endif /*  Segments_SEG_DRIVE */
3141:Generated_Source\PSoC5/Segments.c ****     
3142:Generated_Source\PSoC5/Segments.c ****     uint8 valNum;
3143:Generated_Source\PSoC5/Segments.c ****     uint16 valLow;
3144:Generated_Source\PSoC5/Segments.c ****     uint16 valHigh;
3145:Generated_Source\PSoC5/Segments.c ****     uint16 valHex;
3146:Generated_Source\PSoC5/Segments.c ****     
3147:Generated_Source\PSoC5/Segments.c ****     valNum = (uint8)(number & Segments_NIBBLE_MASK);
 2601              		.loc 1 3147 0
 2602 0000 00F00F00 		and	r0, r0, #15
 2603              	.LVL332:
3148:Generated_Source\PSoC5/Segments.c ****     
3149:Generated_Source\PSoC5/Segments.c ****     /* Get the 16-seg hex value from high and low byte LUTs */
3150:Generated_Source\PSoC5/Segments.c ****     valHigh = (uint16)((uint16)Segments_16SegDigitsHigh[valNum] << Segments_SHIFT_BYTE);
 2604              		.loc 1 3150 0
 2605 0004 044B     		ldr	r3, .L281
 2606 0006 0344     		add	r3, r3, r0
 2607 0008 93F85001 		ldrb	r0, [r3, #336]	@ zero_extendqisi2
 2608              	.LVL333:
3151:Generated_Source\PSoC5/Segments.c ****     valLow = (uint16)Segments_16SegDigitsLow[valNum];
 2609              		.loc 1 3151 0
 2610 000c 93F86031 		ldrb	r3, [r3, #352]	@ zero_extendqisi2
 2611              	.LVL334:
3152:Generated_Source\PSoC5/Segments.c ****     
3153:Generated_Source\PSoC5/Segments.c ****     valHex = valHigh | valLow;
3154:Generated_Source\PSoC5/Segments.c ****     
3155:Generated_Source\PSoC5/Segments.c ****     return(valHex);
3156:Generated_Source\PSoC5/Segments.c **** }
 2612              		.loc 1 3156 0
 2613 0010 43EA0020 		orr	r0, r3, r0, lsl #8
 2614              	.LVL335:
 2615 0014 7047     		bx	lr
 2616              	.L282:
 2617 0016 00BF     		.align	2
 2618              	.L281:
 2619 0018 00000000 		.word	.LANCHOR2
 2620              		.cfi_endproc
 2621              	.LFE38:
 2622              		.size	Segments_EncodeNumber16Seg, .-Segments_EncodeNumber16Seg
 2623              		.section	.text.Segments_Write16SegNumberHex,"ax",%progbits
ARM GAS  C:\Users\Esteban\AppData\Local\Temp\ccHxlO6N.s 			page 107


 2624              		.align	2
 2625              		.global	Segments_Write16SegNumberHex
 2626              		.thumb
 2627              		.thumb_func
 2628              		.type	Segments_Write16SegNumberHex, %function
 2629              	Segments_Write16SegNumberHex:
 2630              	.LFB27:
2113:Generated_Source\PSoC5/Segments.c ****     uint8 i;
 2631              		.loc 1 2113 0
 2632              		.cfi_startproc
 2633              		@ args = 0, pretend = 0, frame = 16
 2634              		@ frame_needed = 0, uses_anonymous_args = 0
 2635              	.LVL336:
 2636 0000 2DE9F041 		push	{r4, r5, r6, r7, r8, lr}
 2637              		.cfi_def_cfa_offset 24
 2638              		.cfi_offset 4, -24
 2639              		.cfi_offset 5, -20
 2640              		.cfi_offset 6, -16
 2641              		.cfi_offset 7, -12
 2642              		.cfi_offset 8, -8
 2643              		.cfi_offset 14, -4
 2644 0004 84B0     		sub	sp, sp, #16
 2645              		.cfi_def_cfa_offset 40
 2646 0006 0746     		mov	r7, r0
 2647 0008 0E46     		mov	r6, r1
 2648 000a 1446     		mov	r4, r2
 2649 000c 9846     		mov	r8, r3
2117:Generated_Source\PSoC5/Segments.c ****     uint32 numberVal;
 2650              		.loc 1 2117 0
 2651 000e 0023     		movs	r3, #0
 2652              	.LVL337:
 2653 0010 0093     		str	r3, [sp]
 2654 0012 0193     		str	r3, [sp, #4]
 2655 0014 0293     		str	r3, [sp, #8]
 2656 0016 0393     		str	r3, [sp, #12]
 2657              	.LVL338:
2123:Generated_Source\PSoC5/Segments.c ****     {
 2658              		.loc 1 2123 0
 2659 0018 1346     		mov	r3, r2
 2660 001a 0BE0     		b	.L284
 2661              	.LVL339:
 2662              	.L285:
2126:Generated_Source\PSoC5/Segments.c ****         numberVal = (uint32)((uint32)numberVal >> Segments_SHIFT_NIBBLE);
 2663              		.loc 1 2126 0 discriminator 3
 2664 001c 5D1E     		subs	r5, r3, #1
 2665 001e 07F00F00 		and	r0, r7, #15
 2666 0022 FFF7FEFF 		bl	Segments_EncodeNumber16Seg
 2667              	.LVL340:
 2668 0026 04AB     		add	r3, sp, #16
 2669 0028 03EB4503 		add	r3, r3, r5, lsl #1
 2670 002c 23F8100C 		strh	r0, [r3, #-16]	@ movhi
2127:Generated_Source\PSoC5/Segments.c ****     }
 2671              		.loc 1 2127 0 discriminator 3
 2672 0030 3F09     		lsrs	r7, r7, #4
 2673              	.LVL341:
2123:Generated_Source\PSoC5/Segments.c ****     {
 2674              		.loc 1 2123 0 discriminator 3
ARM GAS  C:\Users\Esteban\AppData\Local\Temp\ccHxlO6N.s 			page 108


 2675 0032 EBB2     		uxtb	r3, r5
 2676              	.LVL342:
 2677              	.L284:
2123:Generated_Source\PSoC5/Segments.c ****     {
 2678              		.loc 1 2123 0 is_stmt 0 discriminator 1
 2679 0034 002B     		cmp	r3, #0
 2680 0036 F1D1     		bne	.L285
 2681 0038 10E0     		b	.L286
 2682              	.L288:
2133:Generated_Source\PSoC5/Segments.c ****         {
 2683              		.loc 1 2133 0 is_stmt 1
 2684 003a 04AA     		add	r2, sp, #16
 2685 003c 02EB4302 		add	r2, r2, r3, lsl #1
 2686 0040 32F8101C 		ldrh	r1, [r2, #-16]
 2687 0044 49F2FF02 		movw	r2, #37119
 2688 0048 9142     		cmp	r1, r2
 2689 004a 09D1     		bne	.L287
2141:Generated_Source\PSoC5/Segments.c ****         }    
 2690              		.loc 1 2141 0 discriminator 2
 2691 004c 04AA     		add	r2, sp, #16
 2692 004e 02EB4302 		add	r2, r2, r3, lsl #1
 2693 0052 0021     		movs	r1, #0
 2694 0054 22F8101C 		strh	r1, [r2, #-16]	@ movhi
2131:Generated_Source\PSoC5/Segments.c ****     {
 2695              		.loc 1 2131 0 discriminator 2
 2696 0058 0133     		adds	r3, r3, #1
 2697              	.LVL343:
 2698 005a DBB2     		uxtb	r3, r3
 2699              	.LVL344:
 2700              	.L286:
2131:Generated_Source\PSoC5/Segments.c ****     {
 2701              		.loc 1 2131 0 is_stmt 0 discriminator 1
 2702 005c A342     		cmp	r3, r4
 2703 005e ECD3     		bcc	.L288
 2704              	.L287:
 2705              	.LVL345:
2148:Generated_Source\PSoC5/Segments.c ****     {
 2706              		.loc 1 2148 0 is_stmt 1
 2707 0060 B8F1010F 		cmp	r8, #1
 2708 0064 29D1     		bne	.L290
 2709 0066 0EE0     		b	.L299
 2710              	.L293:
2152:Generated_Source\PSoC5/Segments.c ****             {
 2711              		.loc 1 2152 0
 2712 0068 04AA     		add	r2, sp, #16
 2713 006a 02EB4302 		add	r2, r2, r3, lsl #1
 2714 006e 32F8102C 		ldrh	r2, [r2, #-16]
 2715 0072 2AB1     		cbz	r2, .L291
2154:Generated_Source\PSoC5/Segments.c ****                 {
 2716              		.loc 1 2154 0
 2717 0074 032E     		cmp	r6, #3
 2718 0076 01D8     		bhi	.L292
2157:Generated_Source\PSoC5/Segments.c ****                 #if (Segments_NUM_SEG > 8u)
 2719              		.loc 1 2157 0
 2720 0078 1249     		ldr	r1, .L301
 2721 007a 8A55     		strb	r2, [r1, r6]
 2722              	.L292:
ARM GAS  C:\Users\Esteban\AppData\Local\Temp\ccHxlO6N.s 			page 109


2162:Generated_Source\PSoC5/Segments.c ****             }
 2723              		.loc 1 2162 0
 2724 007c 0136     		adds	r6, r6, #1
 2725              	.LVL346:
 2726 007e F6B2     		uxtb	r6, r6
 2727              	.LVL347:
 2728              	.L291:
2150:Generated_Source\PSoC5/Segments.c ****         {
 2729              		.loc 1 2150 0 discriminator 2
 2730 0080 0133     		adds	r3, r3, #1
 2731              	.LVL348:
 2732 0082 DBB2     		uxtb	r3, r3
 2733              	.LVL349:
 2734 0084 00E0     		b	.L289
 2735              	.L299:
 2736 0086 0023     		movs	r3, #0
 2737              	.LVL350:
 2738              	.L289:
2150:Generated_Source\PSoC5/Segments.c ****         {
 2739              		.loc 1 2150 0 is_stmt 0 discriminator 1
 2740 0088 A342     		cmp	r3, r4
 2741 008a EDD3     		bcc	.L293
 2742 008c 04E0     		b	.L294
 2743              	.LVL351:
 2744              	.L295:
2169:Generated_Source\PSoC5/Segments.c ****             #if (Segments_NUM_SEG > 8u)
 2745              		.loc 1 2169 0 is_stmt 1
 2746 008e 0022     		movs	r2, #0
 2747 0090 0C4B     		ldr	r3, .L301
 2748 0092 9A55     		strb	r2, [r3, r6]
2174:Generated_Source\PSoC5/Segments.c ****         }
 2749              		.loc 1 2174 0
 2750 0094 0136     		adds	r6, r6, #1
 2751              	.LVL352:
 2752 0096 F6B2     		uxtb	r6, r6
 2753              	.LVL353:
 2754              	.L294:
2166:Generated_Source\PSoC5/Segments.c ****         {
 2755              		.loc 1 2166 0
 2756 0098 A642     		cmp	r6, r4
 2757 009a F8D3     		bcc	.L295
 2758 009c 0FE0     		b	.L283
 2759              	.LVL354:
 2760              	.L298:
2181:Generated_Source\PSoC5/Segments.c ****             {
 2761              		.loc 1 2181 0
 2762 009e A319     		adds	r3, r4, r6
 2763 00a0 013B     		subs	r3, r3, #1
 2764 00a2 032B     		cmp	r3, #3
 2765 00a4 07D8     		bhi	.L297
2183:Generated_Source\PSoC5/Segments.c ****             #if (Segments_NUM_SEG > 8u)
 2766              		.loc 1 2183 0
 2767 00a6 621E     		subs	r2, r4, #1
 2768 00a8 04A9     		add	r1, sp, #16
 2769 00aa 01EB4202 		add	r2, r1, r2, lsl #1
 2770 00ae 12F8101C 		ldrb	r1, [r2, #-16]	@ zero_extendqisi2
 2771 00b2 044A     		ldr	r2, .L301
ARM GAS  C:\Users\Esteban\AppData\Local\Temp\ccHxlO6N.s 			page 110


 2772 00b4 D154     		strb	r1, [r2, r3]
 2773              	.L297:
2179:Generated_Source\PSoC5/Segments.c ****         {
 2774              		.loc 1 2179 0 discriminator 2
 2775 00b6 013C     		subs	r4, r4, #1
 2776              	.LVL355:
 2777 00b8 E4B2     		uxtb	r4, r4
 2778              	.LVL356:
 2779              	.L290:
2179:Generated_Source\PSoC5/Segments.c ****         {
 2780              		.loc 1 2179 0 is_stmt 0 discriminator 1
 2781 00ba 002C     		cmp	r4, #0
 2782 00bc EFD1     		bne	.L298
 2783              	.LVL357:
 2784              	.L283:
2190:Generated_Source\PSoC5/Segments.c **** 
 2785              		.loc 1 2190 0 is_stmt 1
 2786 00be 04B0     		add	sp, sp, #16
 2787              		.cfi_def_cfa_offset 24
 2788              		@ sp needed
 2789 00c0 BDE8F081 		pop	{r4, r5, r6, r7, r8, pc}
 2790              	.LVL358:
 2791              	.L302:
 2792              		.align	2
 2793              	.L301:
 2794 00c4 00000000 		.word	Segments_segLBuffer
 2795              		.cfi_endproc
 2796              	.LFE27:
 2797              		.size	Segments_Write16SegNumberHex, .-Segments_Write16SegNumberHex
 2798              		.section	.text.Segments_Write16SegDigitDec,"ax",%progbits
 2799              		.align	2
 2800              		.global	Segments_Write16SegDigitDec
 2801              		.thumb
 2802              		.thumb_func
 2803              		.type	Segments_Write16SegDigitDec, %function
 2804              	Segments_Write16SegDigitDec:
 2805              	.LFB30:
2293:Generated_Source\PSoC5/Segments.c ****     uint16 charDisplay;
 2806              		.loc 1 2293 0
 2807              		.cfi_startproc
 2808              		@ args = 0, pretend = 0, frame = 0
 2809              		@ frame_needed = 0, uses_anonymous_args = 0
 2810              	.LVL359:
2296:Generated_Source\PSoC5/Segments.c ****     {
 2811              		.loc 1 2296 0
 2812 0000 0928     		cmp	r0, #9
 2813 0002 08D8     		bhi	.L306
2296:Generated_Source\PSoC5/Segments.c ****     {
 2814              		.loc 1 2296 0 is_stmt 0 discriminator 1
 2815 0004 0329     		cmp	r1, #3
 2816 0006 06D8     		bhi	.L306
2293:Generated_Source\PSoC5/Segments.c ****     uint16 charDisplay;
 2817              		.loc 1 2293 0 is_stmt 1
 2818 0008 10B5     		push	{r4, lr}
 2819              		.cfi_def_cfa_offset 8
 2820              		.cfi_offset 4, -8
 2821              		.cfi_offset 14, -4
ARM GAS  C:\Users\Esteban\AppData\Local\Temp\ccHxlO6N.s 			page 111


 2822 000a 0C46     		mov	r4, r1
2298:Generated_Source\PSoC5/Segments.c ****         Segments_segLBuffer[position] = LO8(charDisplay);
 2823              		.loc 1 2298 0
 2824 000c FFF7FEFF 		bl	Segments_EncodeNumber16Seg
 2825              	.LVL360:
2299:Generated_Source\PSoC5/Segments.c ****         #if (Segments_NUM_SEG > 8u)
 2826              		.loc 1 2299 0
 2827 0010 014B     		ldr	r3, .L307
 2828 0012 1855     		strb	r0, [r3, r4]
 2829 0014 10BD     		pop	{r4, pc}
 2830              	.LVL361:
 2831              	.L306:
 2832              		.cfi_def_cfa_offset 0
 2833              		.cfi_restore 4
 2834              		.cfi_restore 14
 2835 0016 7047     		bx	lr
 2836              	.L308:
 2837              		.align	2
 2838              	.L307:
 2839 0018 00000000 		.word	Segments_segLBuffer
 2840              		.cfi_endproc
 2841              	.LFE30:
 2842              		.size	Segments_Write16SegDigitDec, .-Segments_Write16SegDigitDec
 2843              		.section	.text.Segments_Write16SegDigitHex,"ax",%progbits
 2844              		.align	2
 2845              		.global	Segments_Write16SegDigitHex
 2846              		.thumb
 2847              		.thumb_func
 2848              		.type	Segments_Write16SegDigitHex, %function
 2849              	Segments_Write16SegDigitHex:
 2850              	.LFB31:
2327:Generated_Source\PSoC5/Segments.c ****     uint16 charDisplay;
 2851              		.loc 1 2327 0
 2852              		.cfi_startproc
 2853              		@ args = 0, pretend = 0, frame = 0
 2854              		@ frame_needed = 0, uses_anonymous_args = 0
 2855              	.LVL362:
2330:Generated_Source\PSoC5/Segments.c ****     {
 2856              		.loc 1 2330 0
 2857 0000 0329     		cmp	r1, #3
 2858 0002 06D8     		bhi	.L312
2327:Generated_Source\PSoC5/Segments.c ****     uint16 charDisplay;
 2859              		.loc 1 2327 0
 2860 0004 10B5     		push	{r4, lr}
 2861              		.cfi_def_cfa_offset 8
 2862              		.cfi_offset 4, -8
 2863              		.cfi_offset 14, -4
 2864 0006 0C46     		mov	r4, r1
2332:Generated_Source\PSoC5/Segments.c ****         Segments_segLBuffer[position] = LO8(charDisplay);
 2865              		.loc 1 2332 0
 2866 0008 FFF7FEFF 		bl	Segments_EncodeNumber16Seg
 2867              	.LVL363:
2333:Generated_Source\PSoC5/Segments.c ****         #if (Segments_NUM_SEG > 8u)
 2868              		.loc 1 2333 0
 2869 000c 014B     		ldr	r3, .L313
 2870 000e 1855     		strb	r0, [r3, r4]
 2871 0010 10BD     		pop	{r4, pc}
ARM GAS  C:\Users\Esteban\AppData\Local\Temp\ccHxlO6N.s 			page 112


 2872              	.LVL364:
 2873              	.L312:
 2874              		.cfi_def_cfa_offset 0
 2875              		.cfi_restore 4
 2876              		.cfi_restore 14
 2877 0012 7047     		bx	lr
 2878              	.L314:
 2879              		.align	2
 2880              	.L313:
 2881 0014 00000000 		.word	Segments_segLBuffer
 2882              		.cfi_endproc
 2883              	.LFE31:
 2884              		.size	Segments_Write16SegDigitHex, .-Segments_Write16SegDigitHex
 2885              		.section	.text.Segments_EncodeChar16Seg,"ax",%progbits
 2886              		.align	2
 2887              		.global	Segments_EncodeChar16Seg
 2888              		.thumb
 2889              		.thumb_func
 2890              		.type	Segments_EncodeChar16Seg, %function
 2891              	Segments_EncodeChar16Seg:
 2892              	.LFB39:
3157:Generated_Source\PSoC5/Segments.c **** 
3158:Generated_Source\PSoC5/Segments.c **** 
3159:Generated_Source\PSoC5/Segments.c **** /*******************************************************************************
3160:Generated_Source\PSoC5/Segments.c **** * Function Name: Segments_EncodeChar16Seg
3161:Generated_Source\PSoC5/Segments.c **** ********************************************************************************
3162:Generated_Source\PSoC5/Segments.c **** *
3163:Generated_Source\PSoC5/Segments.c **** * Summary:
3164:Generated_Source\PSoC5/Segments.c **** *  Converts the ASCII encoded alphabet character input into the 16-segment
3165:Generated_Source\PSoC5/Segments.c **** *  data that will display the alphabet character on a display. 16-segment 
3166:Generated_Source\PSoC5/Segments.c **** *  display RAM is split into two sections for each of the eight segments, so 
3167:Generated_Source\PSoC5/Segments.c **** *  the returned data must be separated into high and low bytes before being 
3168:Generated_Source\PSoC5/Segments.c **** *  written directly into the display RAM to display the desired character. It
3169:Generated_Source\PSoC5/Segments.c **** *  is not necessary to use this function since higher level API are provided 
3170:Generated_Source\PSoC5/Segments.c **** *  to both decode the value and write it to the display RAM.
3171:Generated_Source\PSoC5/Segments.c **** *
3172:Generated_Source\PSoC5/Segments.c **** * Parameters:
3173:Generated_Source\PSoC5/Segments.c **** *  char8 input: An ASCII alphabet character to be converted into segment data.
3174:Generated_Source\PSoC5/Segments.c **** *
3175:Generated_Source\PSoC5/Segments.c **** * Return:
3176:Generated_Source\PSoC5/Segments.c **** *  The value to be written into the display RAM for displaying the specified
3177:Generated_Source\PSoC5/Segments.c **** *  character.
3178:Generated_Source\PSoC5/Segments.c **** *
3179:Generated_Source\PSoC5/Segments.c **** * Side effects:
3180:Generated_Source\PSoC5/Segments.c **** *  None
3181:Generated_Source\PSoC5/Segments.c **** *
3182:Generated_Source\PSoC5/Segments.c **** *******************************************************************************/
3183:Generated_Source\PSoC5/Segments.c **** uint16 Segments_EncodeChar16Seg(char8 input) 
3184:Generated_Source\PSoC5/Segments.c **** {
 2893              		.loc 1 3184 0
 2894              		.cfi_startproc
 2895              		@ args = 0, pretend = 0, frame = 0
 2896              		@ frame_needed = 0, uses_anonymous_args = 0
 2897              		@ link register save eliminated.
 2898              	.LVL365:
3185:Generated_Source\PSoC5/Segments.c ****     #if(Segments_SEG_DRIVE == Segments_HIGH)
3186:Generated_Source\PSoC5/Segments.c ****         /* 16-segment ASCII LUT for low byte */
ARM GAS  C:\Users\Esteban\AppData\Local\Temp\ccHxlO6N.s 			page 113


3187:Generated_Source\PSoC5/Segments.c ****         static const uint8 CYCODE Segments_16SegASCIILow[6][16] =
3188:Generated_Source\PSoC5/Segments.c ****               {
3189:Generated_Source\PSoC5/Segments.c ****               /*--------------------------------------------------------*/
3190:Generated_Source\PSoC5/Segments.c ****               /* 'Space' '!'    '"'    '#'    '$'    '%'    '&'    '''  */
3191:Generated_Source\PSoC5/Segments.c ****               /*--------------------------------------------------------*/
3192:Generated_Source\PSoC5/Segments.c ****                 {0x00u, 0xc0u, 0x80u, 0x00u, 0x00u, 0x00u, 0x00u, 0x80u,
3193:Generated_Source\PSoC5/Segments.c ****               /*--------------------------------------------------------*/
3194:Generated_Source\PSoC5/Segments.c ****               /*  '('    ')'    '*'    '+'    ','    '-'    '.'    '/'  */
3195:Generated_Source\PSoC5/Segments.c ****               /*--------------------------------------------------------*/
3196:Generated_Source\PSoC5/Segments.c ****                  0x00u, 0x00u, 0x00u, 0x00u, 0x00u, 0x00u, 0x00u, 0x00u},
3197:Generated_Source\PSoC5/Segments.c ****               /*--------------------------------------------------------*/   
3198:Generated_Source\PSoC5/Segments.c ****               /*  '0'    '1'    '2'    '3'    '4'    '5'    '6'    '7'  */
3199:Generated_Source\PSoC5/Segments.c ****               /*--------------------------------------------------------*/
3200:Generated_Source\PSoC5/Segments.c ****                 {0xffu, 0x0cu, 0x77u, 0x3fu, 0x8cu, 0xbbu, 0xfbu, 0x0fu,
3201:Generated_Source\PSoC5/Segments.c ****               /*--------------------------------------------------------*/
3202:Generated_Source\PSoC5/Segments.c ****               /*  '8'    '9'    ':'    ';'    '<'    '='    '>'    '?'  */
3203:Generated_Source\PSoC5/Segments.c ****               /*--------------------------------------------------------*/
3204:Generated_Source\PSoC5/Segments.c ****                  0xffu, 0x8fu, 0x00u, 0x00u, 0x00u, 0x30u, 0x00u, 0x07u},
3205:Generated_Source\PSoC5/Segments.c ****               /*--------------------------------------------------------*/
3206:Generated_Source\PSoC5/Segments.c ****               /*  '@'    'A'    'B'    'C'    'D'    'E'    'F'    'G'  */
3207:Generated_Source\PSoC5/Segments.c ****               /*--------------------------------------------------------*/
3208:Generated_Source\PSoC5/Segments.c ****                 {0x00u, 0xcfu, 0x3fu, 0xf3u, 0x3fu, 0xf3u, 0xc3u, 0xfbu,
3209:Generated_Source\PSoC5/Segments.c ****               /*--------------------------------------------------------*/
3210:Generated_Source\PSoC5/Segments.c ****               /*  'H'    'I'    'J'    'K'    'L'    'M'    'N'    'O'  */
3211:Generated_Source\PSoC5/Segments.c ****               /*--------------------------------------------------------*/
3212:Generated_Source\PSoC5/Segments.c ****                  0xccu, 0x33u, 0x7cu, 0xc0u, 0xf0u, 0xccu, 0xccu, 0xffu},
3213:Generated_Source\PSoC5/Segments.c ****               /*--------------------------------------------------------*/
3214:Generated_Source\PSoC5/Segments.c ****               /*  'P'    'Q'    'R'    'S'    'T'    'U'    'V'    'W'  */
3215:Generated_Source\PSoC5/Segments.c ****               /*--------------------------------------------------------*/
3216:Generated_Source\PSoC5/Segments.c ****                 {0xc7u, 0xffu, 0xc7u, 0xbbu, 0x03u, 0xfcu, 0xc0u, 0xccu,
3217:Generated_Source\PSoC5/Segments.c ****               /*--------------------------------------------------------*/
3218:Generated_Source\PSoC5/Segments.c ****               /*  'X'    'Y'    'Z'    '['    '\'    ']'    '^'    '_'  */
3219:Generated_Source\PSoC5/Segments.c ****               /*--------------------------------------------------------*/
3220:Generated_Source\PSoC5/Segments.c ****                  0x00u, 0x00u, 0x33u, 0x00u, 0x00u, 0x00u, 0x00u, 0x30u},
3221:Generated_Source\PSoC5/Segments.c ****               /*--------------------------------------------------------*/
3222:Generated_Source\PSoC5/Segments.c ****               /*  '`'    'a'    'b'    'c'    'd'    'e'    'f'    'g'  */
3223:Generated_Source\PSoC5/Segments.c ****               /*--------------------------------------------------------*/
3224:Generated_Source\PSoC5/Segments.c ****                 {0x00u, 0x70u, 0xe0u, 0x60u, 0x60u, 0x60u, 0x02u, 0xa1u,
3225:Generated_Source\PSoC5/Segments.c ****               /*--------------------------------------------------------*/
3226:Generated_Source\PSoC5/Segments.c ****               /*  'h'    'i'    'j'    'k'    'l'    'm'    'n'    'o'  */
3227:Generated_Source\PSoC5/Segments.c ****               /*--------------------------------------------------------*/
3228:Generated_Source\PSoC5/Segments.c ****                  0xc0u, 0x00u, 0x20u, 0x00u, 0x00u, 0x48u, 0x08u, 0x60u},
3229:Generated_Source\PSoC5/Segments.c ****               /*--------------------------------------------------------*/
3230:Generated_Source\PSoC5/Segments.c ****               /*  'p'    'q'    'r'    's'    't'    'u'    'v'    'w'  */
3231:Generated_Source\PSoC5/Segments.c ****               /*--------------------------------------------------------*/
3232:Generated_Source\PSoC5/Segments.c ****                 {0xc1u, 0x91u, 0x00u, 0x10u, 0x00u, 0x70u, 0x40u, 0x78u,
3233:Generated_Source\PSoC5/Segments.c ****               /*--------------------------------------------------------*/
3234:Generated_Source\PSoC5/Segments.c ****               /*  'x'    'y'    'z'    '{'    '|'    '}'    '~'   'DEL' */
3235:Generated_Source\PSoC5/Segments.c ****               /*--------------------------------------------------------*/
3236:Generated_Source\PSoC5/Segments.c ****                  0x00u, 0xa0u, 0x20u, 0x00u, 0x00u, 0x00u, 0x00u, 0x00u}
3237:Generated_Source\PSoC5/Segments.c ****               };
3238:Generated_Source\PSoC5/Segments.c **** 
3239:Generated_Source\PSoC5/Segments.c ****         /* 16-segment ASCII LUT for high byte */
3240:Generated_Source\PSoC5/Segments.c ****         static const uint8 CYCODE Segments_16SegASCIIHigh[6][16] =
3241:Generated_Source\PSoC5/Segments.c ****               {
3242:Generated_Source\PSoC5/Segments.c ****               /*--------------------------------------------------------*/
3243:Generated_Source\PSoC5/Segments.c ****               /* 'Space' '!'    '"'    '#'    '$'    '%'    '&'    '''  */
ARM GAS  C:\Users\Esteban\AppData\Local\Temp\ccHxlO6N.s 			page 114


3244:Generated_Source\PSoC5/Segments.c ****               /*--------------------------------------------------------*/
3245:Generated_Source\PSoC5/Segments.c ****                 {0x00u, 0x00u, 0x08u, 0x00u, 0x00u, 0x00u, 0x00u, 0x00u,
3246:Generated_Source\PSoC5/Segments.c ****               /*--------------------------------------------------------*/
3247:Generated_Source\PSoC5/Segments.c ****               /*  '('    ')'    '*'    '+'    ','    '-'    '.'    '/'  */
3248:Generated_Source\PSoC5/Segments.c ****               /*--------------------------------------------------------*/
3249:Generated_Source\PSoC5/Segments.c ****                  0x30u, 0x84u, 0xffu, 0x00u, 0x80u, 0x03u, 0x00u, 0x00u},
3250:Generated_Source\PSoC5/Segments.c ****               /*--------------------------------------------------------*/   
3251:Generated_Source\PSoC5/Segments.c ****               /*  '0'    '1'    '2'    '3'    '4'    '5'    '6'    '7'  */
3252:Generated_Source\PSoC5/Segments.c ****               /*--------------------------------------------------------*/
3253:Generated_Source\PSoC5/Segments.c ****                 {0x90u, 0x00u, 0x03u, 0x03u, 0x03u, 0x03u, 0x03u, 0x00u,
3254:Generated_Source\PSoC5/Segments.c ****               /*--------------------------------------------------------*/
3255:Generated_Source\PSoC5/Segments.c ****               /*  '8'    '9'    ':'    ';'    '<'    '='    '>'    '?'  */
3256:Generated_Source\PSoC5/Segments.c ****               /*--------------------------------------------------------*/
3257:Generated_Source\PSoC5/Segments.c ****                  0x03u, 0x03u, 0x00u, 0x00u, 0x00u, 0x03u, 0x00u, 0x42u},
3258:Generated_Source\PSoC5/Segments.c ****               /*--------------------------------------------------------*/
3259:Generated_Source\PSoC5/Segments.c ****               /*  '@'    'A'    'B'    'C'    'D'    'E'    'F'    'G'  */
3260:Generated_Source\PSoC5/Segments.c ****               /*--------------------------------------------------------*/
3261:Generated_Source\PSoC5/Segments.c ****                 {0x00u, 0x03u, 0x4au, 0x00u, 0x48u, 0x03u, 0x03u, 0x02u,
3262:Generated_Source\PSoC5/Segments.c ****               /*--------------------------------------------------------*/
3263:Generated_Source\PSoC5/Segments.c ****               /*  'H'    'I'    'J'    'K'    'L'    'M'    'N'    'O'  */
3264:Generated_Source\PSoC5/Segments.c ****               /*--------------------------------------------------------*/
3265:Generated_Source\PSoC5/Segments.c ****                  0x03u, 0x48u, 0x00u, 0x31u, 0x00u, 0x14u, 0x24u, 0x00u},
3266:Generated_Source\PSoC5/Segments.c ****               /*--------------------------------------------------------*/
3267:Generated_Source\PSoC5/Segments.c ****               /*  'P'    'Q'    'R'    'S'    'T'    'U'    'V'    'W'  */
3268:Generated_Source\PSoC5/Segments.c ****               /*--------------------------------------------------------*/
3269:Generated_Source\PSoC5/Segments.c ****                 {0x03u, 0x20u, 0x23u, 0x03u, 0x48u, 0x00u, 0x90u, 0xa0u,
3270:Generated_Source\PSoC5/Segments.c ****               /*--------------------------------------------------------*/
3271:Generated_Source\PSoC5/Segments.c ****               /*  'X'    'Y'    'Z'    '['    '\'    ']'    '^'    '_'  */
3272:Generated_Source\PSoC5/Segments.c ****               /*--------------------------------------------------------*/
3273:Generated_Source\PSoC5/Segments.c ****                  0xb4u, 0x54u, 0x90u, 0x00u, 0x00u, 0x00u, 0x00u, 0x00u},
3274:Generated_Source\PSoC5/Segments.c ****               /*--------------------------------------------------------*/
3275:Generated_Source\PSoC5/Segments.c ****               /*  '`'    'a'    'b'    'c'    'd'    'e'    'f'    'g'  */
3276:Generated_Source\PSoC5/Segments.c ****               /*--------------------------------------------------------*/
3277:Generated_Source\PSoC5/Segments.c ****                 {0x00u, 0x41u, 0x41u, 0x01u, 0x49u, 0x81u, 0x4bu, 0x49u,
3278:Generated_Source\PSoC5/Segments.c ****               /*--------------------------------------------------------*/
3279:Generated_Source\PSoC5/Segments.c ****               /*  'h'    'i'    'j'    'k'    'l'    'm'    'n'    'o'  */
3280:Generated_Source\PSoC5/Segments.c ****               /*--------------------------------------------------------*/
3281:Generated_Source\PSoC5/Segments.c ****                  0x41u, 0x40u, 0x48u, 0x6au, 0x48u, 0x43u, 0x43u, 0x41u},
3282:Generated_Source\PSoC5/Segments.c ****               /*--------------------------------------------------------*/
3283:Generated_Source\PSoC5/Segments.c ****               /*  'p'    'q'    'r'    's'    't'    'u'    'v'    'w'  */
3284:Generated_Source\PSoC5/Segments.c ****               /*--------------------------------------------------------*/
3285:Generated_Source\PSoC5/Segments.c ****                 {0x09u, 0x49u, 0x42u, 0x22u, 0x4bu, 0x40u, 0x80u, 0x40u,
3286:Generated_Source\PSoC5/Segments.c ****               /*--------------------------------------------------------*/
3287:Generated_Source\PSoC5/Segments.c ****               /*  'x'    'y'    'z'    '{'    '|'    '}'    '~'   'DEL' */
3288:Generated_Source\PSoC5/Segments.c ****               /*--------------------------------------------------------*/
3289:Generated_Source\PSoC5/Segments.c ****                  0xb4u, 0x49u, 0x81u, 0x00u, 0x00u, 0x00u, 0x00u, 0x00u}
3290:Generated_Source\PSoC5/Segments.c ****               };
3291:Generated_Source\PSoC5/Segments.c ****     #else
3292:Generated_Source\PSoC5/Segments.c ****         /* 16-segment ASCII LUT for low byte */
3293:Generated_Source\PSoC5/Segments.c ****         static const uint8 CYCODE Segments_16SegASCIILow[6][16] =
3294:Generated_Source\PSoC5/Segments.c ****               {
3295:Generated_Source\PSoC5/Segments.c ****               /*--------------------------------------------------------*/
3296:Generated_Source\PSoC5/Segments.c ****               /* 'Space' '!'    '"'    '#'    '$'    '%'    '&'    '''  */
3297:Generated_Source\PSoC5/Segments.c ****               /*--------------------------------------------------------*/
3298:Generated_Source\PSoC5/Segments.c ****                 {0xffu, 0x3fu, 0x7fu, 0xffu, 0xffu, 0xffu, 0xffu, 0x7fu,
3299:Generated_Source\PSoC5/Segments.c ****               /*--------------------------------------------------------*/
3300:Generated_Source\PSoC5/Segments.c ****               /*  '('    ')'    '*'    '+'    ','    '-'    '.'    '/'  */
ARM GAS  C:\Users\Esteban\AppData\Local\Temp\ccHxlO6N.s 			page 115


3301:Generated_Source\PSoC5/Segments.c ****               /*--------------------------------------------------------*/
3302:Generated_Source\PSoC5/Segments.c ****                  0xffu, 0xffu, 0xffu, 0xffu, 0xffu, 0xffu, 0xffu, 0xffu},
3303:Generated_Source\PSoC5/Segments.c ****               /*--------------------------------------------------------*/   
3304:Generated_Source\PSoC5/Segments.c ****               /*  '0'    '1'    '2'    '3'    '4'    '5'    '6'    '7'  */
3305:Generated_Source\PSoC5/Segments.c ****               /*--------------------------------------------------------*/
3306:Generated_Source\PSoC5/Segments.c ****                 {0x00u, 0xf3u, 0x88u, 0xc0u, 0x73u, 0x44u, 0x04u, 0xf0u,
3307:Generated_Source\PSoC5/Segments.c ****               /*--------------------------------------------------------*/
3308:Generated_Source\PSoC5/Segments.c ****               /*  '8'    '9'    ':'    ';'    '<'    '='    '>'    '?'  */
3309:Generated_Source\PSoC5/Segments.c ****               /*--------------------------------------------------------*/
3310:Generated_Source\PSoC5/Segments.c ****                  0x00u, 0x70u, 0xffu, 0xffu, 0xffu, 0xcfu, 0xffu, 0xf8u},
3311:Generated_Source\PSoC5/Segments.c ****               /*--------------------------------------------------------*/
3312:Generated_Source\PSoC5/Segments.c ****               /*  '@'    'A'    'B'    'C'    'D'    'E'    'F'    'G'  */
3313:Generated_Source\PSoC5/Segments.c ****               /*--------------------------------------------------------*/
3314:Generated_Source\PSoC5/Segments.c ****                 {0xffu, 0x30u, 0xc0u, 0x0cu, 0xc0u, 0x0cu, 0x3cu, 0x04u,
3315:Generated_Source\PSoC5/Segments.c ****               /*--------------------------------------------------------*/
3316:Generated_Source\PSoC5/Segments.c ****               /*  'H'    'I'    'J'    'K'    'L'    'M'    'N'    'O'  */
3317:Generated_Source\PSoC5/Segments.c ****               /*--------------------------------------------------------*/
3318:Generated_Source\PSoC5/Segments.c ****                  0x33u, 0xccu, 0x83u, 0x3fu, 0x0fu, 0x33u, 0x33u, 0x00u},
3319:Generated_Source\PSoC5/Segments.c ****               /*--------------------------------------------------------*/
3320:Generated_Source\PSoC5/Segments.c ****               /*  'P'    'Q'    'R'    'S'    'T'    'U'    'V'    'W'  */
3321:Generated_Source\PSoC5/Segments.c ****               /*--------------------------------------------------------*/
3322:Generated_Source\PSoC5/Segments.c ****                 {0x38u, 0x00u, 0x38u, 0x44u, 0xfcu, 0x03u, 0x3fu, 0x33u,
3323:Generated_Source\PSoC5/Segments.c ****               /*--------------------------------------------------------*/
3324:Generated_Source\PSoC5/Segments.c ****               /*  'X'    'Y'    'Z'    '['    '\'    ']'    '^'    '_'  */
3325:Generated_Source\PSoC5/Segments.c ****               /*--------------------------------------------------------*/
3326:Generated_Source\PSoC5/Segments.c ****                  0xffu, 0xffu, 0xccu, 0xffu, 0xffu, 0xffu, 0xffu, 0xcfu},
3327:Generated_Source\PSoC5/Segments.c ****               /*--------------------------------------------------------*/
3328:Generated_Source\PSoC5/Segments.c ****               /*  '`'    'a'    'b'    'c'    'd'    'e'    'f'    'g'  */
3329:Generated_Source\PSoC5/Segments.c ****               /*--------------------------------------------------------*/
3330:Generated_Source\PSoC5/Segments.c ****                 {0xffu, 0x8fu, 0x1fu, 0x9fu, 0x9fu, 0x9fu, 0xfdu, 0x5eu,
3331:Generated_Source\PSoC5/Segments.c ****               /*--------------------------------------------------------*/
3332:Generated_Source\PSoC5/Segments.c ****               /*  'h'    'i'    'j'    'k'    'l'    'm'    'n'    'o'  */
3333:Generated_Source\PSoC5/Segments.c ****               /*--------------------------------------------------------*/
3334:Generated_Source\PSoC5/Segments.c ****                  0x3fu, 0xffu, 0xdfu, 0xffu, 0xffu, 0xb7u, 0xf7u, 0x9fu},
3335:Generated_Source\PSoC5/Segments.c ****               /*--------------------------------------------------------*/
3336:Generated_Source\PSoC5/Segments.c ****               /*  'p'    'q'    'r'    's'    't'    'u'    'v'    'w'  */
3337:Generated_Source\PSoC5/Segments.c ****               /*--------------------------------------------------------*/
3338:Generated_Source\PSoC5/Segments.c ****                 {0x3eu, 0x6eu, 0xffu, 0xefu, 0xffu, 0x8fu, 0xbfu, 0x87u,
3339:Generated_Source\PSoC5/Segments.c ****               /*--------------------------------------------------------*/
3340:Generated_Source\PSoC5/Segments.c ****               /*  'x'    'y'    'z'    '{'    '|'    '}'    '~'   'DEL' */
3341:Generated_Source\PSoC5/Segments.c ****               /*--------------------------------------------------------*/
3342:Generated_Source\PSoC5/Segments.c ****                  0xffu, 0x5fu, 0xdfu, 0xffu, 0xffu, 0xffu, 0xffu, 0xffu}
3343:Generated_Source\PSoC5/Segments.c ****               };
3344:Generated_Source\PSoC5/Segments.c **** 
3345:Generated_Source\PSoC5/Segments.c ****         /* 16-segment ASCII LUT for high byte */
3346:Generated_Source\PSoC5/Segments.c ****         static const uint8 CYCODE Segments_16SegASCIIHigh[6][16] =
3347:Generated_Source\PSoC5/Segments.c ****               {
3348:Generated_Source\PSoC5/Segments.c ****               /*--------------------------------------------------------*/
3349:Generated_Source\PSoC5/Segments.c ****               /* 'Space' '!'    '"'    '#'    '$'    '%'    '&'    '''  */
3350:Generated_Source\PSoC5/Segments.c ****               /*--------------------------------------------------------*/
3351:Generated_Source\PSoC5/Segments.c ****                 {0xffu, 0xffu, 0xf7u, 0xffu, 0xffu, 0xffu, 0xffu, 0xffu,
3352:Generated_Source\PSoC5/Segments.c ****               /*--------------------------------------------------------*/
3353:Generated_Source\PSoC5/Segments.c ****               /*  '('    ')'    '*'    '+'    ','    '-'    '.'    '/'  */
3354:Generated_Source\PSoC5/Segments.c ****               /*--------------------------------------------------------*/
3355:Generated_Source\PSoC5/Segments.c ****                  0xcfu, 0x7bu, 0x00u, 0xffu, 0x7fu, 0xfcu, 0xffu, 0xffu},
3356:Generated_Source\PSoC5/Segments.c ****               /*--------------------------------------------------------*/   
3357:Generated_Source\PSoC5/Segments.c ****               /*  '0'    '1'    '2'    '3'    '4'    '5'    '6'    '7'  */
ARM GAS  C:\Users\Esteban\AppData\Local\Temp\ccHxlO6N.s 			page 116


3358:Generated_Source\PSoC5/Segments.c ****               /*--------------------------------------------------------*/
3359:Generated_Source\PSoC5/Segments.c ****                 {0x6fu, 0xffu, 0xfcu, 0xfcu, 0xfcu, 0xfcu, 0xfcu, 0xffu,
3360:Generated_Source\PSoC5/Segments.c ****               /*--------------------------------------------------------*/
3361:Generated_Source\PSoC5/Segments.c ****               /*  '8'    '9'    ':'    ';'    '<'    '='    '>'    '?'  */
3362:Generated_Source\PSoC5/Segments.c ****               /*--------------------------------------------------------*/
3363:Generated_Source\PSoC5/Segments.c ****                  0xfcu, 0xfcu, 0xffu, 0xffu, 0xffu, 0xfcu, 0xffu, 0xbdu},
3364:Generated_Source\PSoC5/Segments.c ****               /*--------------------------------------------------------*/
3365:Generated_Source\PSoC5/Segments.c ****               /*  '@'    'A'    'B'    'C'    'D'    'E'    'F'    'G'  */
3366:Generated_Source\PSoC5/Segments.c ****               /*--------------------------------------------------------*/
3367:Generated_Source\PSoC5/Segments.c ****                 {0xffu, 0xfcu, 0xb5u, 0xffu, 0xb7u, 0xfcu, 0xfcu, 0xfdu,
3368:Generated_Source\PSoC5/Segments.c ****               /*--------------------------------------------------------*/
3369:Generated_Source\PSoC5/Segments.c ****               /*  'H'    'I'    'J'    'K'    'L'    'M'    'N'    'O'  */
3370:Generated_Source\PSoC5/Segments.c ****               /*--------------------------------------------------------*/
3371:Generated_Source\PSoC5/Segments.c ****                  0xfcu, 0xb7u, 0xffu, 0xceu, 0xffu, 0xebu, 0xdbu, 0xffu},
3372:Generated_Source\PSoC5/Segments.c ****               /*--------------------------------------------------------*/
3373:Generated_Source\PSoC5/Segments.c ****               /*  'P'    'Q'    'R'    'S'    'T'    'U'    'V'    'W'  */
3374:Generated_Source\PSoC5/Segments.c ****               /*--------------------------------------------------------*/
3375:Generated_Source\PSoC5/Segments.c ****                 {0xfcu, 0xdfu, 0xdcu, 0xfcu, 0xb7u, 0xffu, 0x6fu, 0x5fu,
3376:Generated_Source\PSoC5/Segments.c ****               /*--------------------------------------------------------*/
3377:Generated_Source\PSoC5/Segments.c ****               /*  'X'    'Y'    'Z'    '['    '\'    ']'    '^'    '_'  */
3378:Generated_Source\PSoC5/Segments.c ****               /*--------------------------------------------------------*/
3379:Generated_Source\PSoC5/Segments.c ****                  0x4bu, 0xabu, 0x6fu, 0xffu, 0xffu, 0xffu, 0xffu, 0xffu},
3380:Generated_Source\PSoC5/Segments.c ****               /*--------------------------------------------------------*/
3381:Generated_Source\PSoC5/Segments.c ****               /*  '`'    'a'    'b'    'c'    'd'    'e'    'f'    'g'  */
3382:Generated_Source\PSoC5/Segments.c ****               /*--------------------------------------------------------*/
3383:Generated_Source\PSoC5/Segments.c ****                 {0xffu, 0xbeu, 0xbeu, 0xfeu, 0xb6u, 0x7eu, 0xb4u, 0xb6u,
3384:Generated_Source\PSoC5/Segments.c ****               /*--------------------------------------------------------*/
3385:Generated_Source\PSoC5/Segments.c ****               /*  'h'    'i'    'j'    'k'    'l'    'm'    'n'    'o'  */
3386:Generated_Source\PSoC5/Segments.c ****               /*--------------------------------------------------------*/
3387:Generated_Source\PSoC5/Segments.c ****                  0xbeu, 0xbfu, 0xb7u, 0x95u, 0xb7u, 0xbcu, 0xbcu, 0xbeu},
3388:Generated_Source\PSoC5/Segments.c ****               /*--------------------------------------------------------*/
3389:Generated_Source\PSoC5/Segments.c ****               /*  'p'    'q'    'r'    's'    't'    'u'    'v'    'w'  */
3390:Generated_Source\PSoC5/Segments.c ****               /*--------------------------------------------------------*/
3391:Generated_Source\PSoC5/Segments.c ****                 {0xf6u, 0xb6u, 0xbdu, 0xddu, 0xb4u, 0xbfu, 0x7fu, 0xbfu,
3392:Generated_Source\PSoC5/Segments.c ****               /*--------------------------------------------------------*/
3393:Generated_Source\PSoC5/Segments.c ****               /*  'x'    'y'    'z'    '{'    '|'    '}'    '~'   'DEL' */
3394:Generated_Source\PSoC5/Segments.c ****               /*--------------------------------------------------------*/
3395:Generated_Source\PSoC5/Segments.c ****                  0x4bu, 0xb6u, 0x7eu, 0xffu, 0xffu, 0xffu, 0xffu, 0xffu}
3396:Generated_Source\PSoC5/Segments.c ****               };
3397:Generated_Source\PSoC5/Segments.c ****     #endif /*  Segments_SEG_DRIVE */
3398:Generated_Source\PSoC5/Segments.c ****     
3399:Generated_Source\PSoC5/Segments.c ****     uint8 valLow;
3400:Generated_Source\PSoC5/Segments.c ****     uint8 valHigh;
3401:Generated_Source\PSoC5/Segments.c ****     uint16 valHexLow;
3402:Generated_Source\PSoC5/Segments.c ****     uint16 valHexHigh;
3403:Generated_Source\PSoC5/Segments.c ****     uint16 valHex;
3404:Generated_Source\PSoC5/Segments.c ****     
3405:Generated_Source\PSoC5/Segments.c ****     valLow = (uint8)((uint8)input & Segments_NIBBLE_MASK);
 2899              		.loc 1 3405 0
 2900 0000 00F00F02 		and	r2, r0, #15
 2901              	.LVL366:
3406:Generated_Source\PSoC5/Segments.c ****     
3407:Generated_Source\PSoC5/Segments.c ****     /* valHigh used to access the row of LUT */
3408:Generated_Source\PSoC5/Segments.c ****     valHigh = (uint8)((uint8)input >> Segments_SHIFT_NIBBLE);
 2902              		.loc 1 3408 0
 2903 0004 0009     		lsrs	r0, r0, #4
 2904              	.LVL367:
ARM GAS  C:\Users\Esteban\AppData\Local\Temp\ccHxlO6N.s 			page 117


3409:Generated_Source\PSoC5/Segments.c ****     
3410:Generated_Source\PSoC5/Segments.c ****     /* Check if the high nibble is within valid ASCII range */
3411:Generated_Source\PSoC5/Segments.c ****     if ((valHigh > Segments_SEG_ASCII_LIM_LO) && (valHigh < Segments_SEG_ASCII_LIM_HI))
 2905              		.loc 1 3411 0
 2906 0006 0238     		subs	r0, r0, #2
 2907              	.LVL368:
 2908 0008 C0B2     		uxtb	r0, r0
 2909              	.LVL369:
 2910 000a 0528     		cmp	r0, #5
 2911 000c 0AD8     		bhi	.L317
 2912              	.LVL370:
3412:Generated_Source\PSoC5/Segments.c ****     {
3413:Generated_Source\PSoC5/Segments.c ****         valHigh = valHigh - Segments_SEG_ASCII_OFFSET;
3414:Generated_Source\PSoC5/Segments.c ****         
3415:Generated_Source\PSoC5/Segments.c ****         /* Get the 16-seg hex value from high and low byte LUTs */
3416:Generated_Source\PSoC5/Segments.c ****         valHexHigh = (uint16)((uint16)Segments_16SegASCIIHigh[valHigh][valLow] << Segments_SHIFT_BY
 2913              		.loc 1 3416 0
 2914 000e 064B     		ldr	r3, .L318
 2915 0010 03EB0010 		add	r0, r3, r0, lsl #4
 2916              	.LVL371:
 2917 0014 8318     		adds	r3, r0, r2
 2918 0016 93F87001 		ldrb	r0, [r3, #368]	@ zero_extendqisi2
 2919              	.LVL372:
3417:Generated_Source\PSoC5/Segments.c ****         valHexLow = (uint16)Segments_16SegASCIILow[valHigh][valLow];
 2920              		.loc 1 3417 0
 2921 001a 93F8D031 		ldrb	r3, [r3, #464]	@ zero_extendqisi2
 2922              	.LVL373:
3418:Generated_Source\PSoC5/Segments.c ****         
3419:Generated_Source\PSoC5/Segments.c ****         valHex = valHexHigh | valHexLow;
 2923              		.loc 1 3419 0
 2924 001e 43EA0020 		orr	r0, r3, r0, lsl #8
 2925              	.LVL374:
 2926 0022 7047     		bx	lr
 2927              	.LVL375:
 2928              	.L317:
3420:Generated_Source\PSoC5/Segments.c ****     }
3421:Generated_Source\PSoC5/Segments.c ****     else
3422:Generated_Source\PSoC5/Segments.c ****     {
3423:Generated_Source\PSoC5/Segments.c ****         valHex = Segments_CLEAR_16;
 2929              		.loc 1 3423 0
 2930 0024 0020     		movs	r0, #0
 2931              	.LVL376:
3424:Generated_Source\PSoC5/Segments.c ****     }
3425:Generated_Source\PSoC5/Segments.c ****         
3426:Generated_Source\PSoC5/Segments.c ****     return(valHex);
3427:Generated_Source\PSoC5/Segments.c **** }
 2932              		.loc 1 3427 0
 2933 0026 7047     		bx	lr
 2934              	.L319:
 2935              		.align	2
 2936              	.L318:
 2937 0028 00000000 		.word	.LANCHOR2
 2938              		.cfi_endproc
 2939              	.LFE39:
 2940              		.size	Segments_EncodeChar16Seg, .-Segments_EncodeChar16Seg
 2941              		.section	.text.Segments_Write16SegNumberDec,"ax",%progbits
 2942              		.align	2
ARM GAS  C:\Users\Esteban\AppData\Local\Temp\ccHxlO6N.s 			page 118


 2943              		.global	Segments_Write16SegNumberDec
 2944              		.thumb
 2945              		.thumb_func
 2946              		.type	Segments_Write16SegNumberDec, %function
 2947              	Segments_Write16SegNumberDec:
 2948              	.LFB26:
1959:Generated_Source\PSoC5/Segments.c ****     uint8 i;
 2949              		.loc 1 1959 0
 2950              		.cfi_startproc
 2951              		@ args = 0, pretend = 0, frame = 16
 2952              		@ frame_needed = 0, uses_anonymous_args = 0
 2953              	.LVL377:
 2954 0000 2DE9F043 		push	{r4, r5, r6, r7, r8, r9, lr}
 2955              		.cfi_def_cfa_offset 28
 2956              		.cfi_offset 4, -28
 2957              		.cfi_offset 5, -24
 2958              		.cfi_offset 6, -20
 2959              		.cfi_offset 7, -16
 2960              		.cfi_offset 8, -12
 2961              		.cfi_offset 9, -8
 2962              		.cfi_offset 14, -4
 2963 0004 85B0     		sub	sp, sp, #20
 2964              		.cfi_def_cfa_offset 48
 2965 0006 0D46     		mov	r5, r1
 2966 0008 1446     		mov	r4, r2
 2967 000a 1E46     		mov	r6, r3
 2968              	.LVL378:
1965:Generated_Source\PSoC5/Segments.c ****     uint32 numberVal;
 2969              		.loc 1 1965 0
 2970 000c 0023     		movs	r3, #0
 2971              	.LVL379:
 2972 000e 0093     		str	r3, [sp]
 2973 0010 0193     		str	r3, [sp, #4]
 2974 0012 0293     		str	r3, [sp, #8]
 2975 0014 0393     		str	r3, [sp, #12]
1969:Generated_Source\PSoC5/Segments.c ****     {
 2976              		.loc 1 1969 0
 2977 0016 0028     		cmp	r0, #0
 2978 0018 02DB     		blt	.L321
1971:Generated_Source\PSoC5/Segments.c ****         numberSign = Segments_UNSIGNED;
 2979              		.loc 1 1971 0
 2980 001a 0246     		mov	r2, r0
 2981              	.LVL380:
1972:Generated_Source\PSoC5/Segments.c ****     }
 2982              		.loc 1 1972 0
 2983 001c 1F46     		mov	r7, r3
 2984 001e 01E0     		b	.L322
 2985              	.LVL381:
 2986              	.L321:
1976:Generated_Source\PSoC5/Segments.c ****         numberSign = Segments_SIGNED;
 2987              		.loc 1 1976 0
 2988 0020 4242     		negs	r2, r0
 2989              	.LVL382:
1977:Generated_Source\PSoC5/Segments.c ****     }
 2990              		.loc 1 1977 0
 2991 0022 0127     		movs	r7, #1
 2992              	.LVL383:
ARM GAS  C:\Users\Esteban\AppData\Local\Temp\ccHxlO6N.s 			page 119


 2993              	.L322:
1981:Generated_Source\PSoC5/Segments.c ****     {
 2994              		.loc 1 1981 0
 2995 0024 2346     		mov	r3, r4
 2996 0026 15E0     		b	.L323
 2997              	.LVL384:
 2998              	.L324:
1983:Generated_Source\PSoC5/Segments.c ****         bufArray[i-1u] = Segments_EncodeNumber16Seg(selectVal);
 2999              		.loc 1 1983 0 discriminator 3
 3000 0028 4148     		ldr	r0, .L344
 3001 002a A0FB0210 		umull	r1, r0, r0, r2
 3002 002e C008     		lsrs	r0, r0, #3
 3003 0030 8046     		mov	r8, r0
 3004 0032 00EB8000 		add	r0, r0, r0, lsl #2
 3005 0036 4100     		lsls	r1, r0, #1
 3006 0038 501A     		subs	r0, r2, r1
 3007              	.LVL385:
1984:Generated_Source\PSoC5/Segments.c ****         numberVal = numberVal / 10u;
 3008              		.loc 1 1984 0 discriminator 3
 3009 003a 03F1FF39 		add	r9, r3, #-1
 3010 003e C0B2     		uxtb	r0, r0
 3011 0040 FFF7FEFF 		bl	Segments_EncodeNumber16Seg
 3012              	.LVL386:
 3013 0044 04AB     		add	r3, sp, #16
 3014 0046 03EB4903 		add	r3, r3, r9, lsl #1
 3015 004a 23F8100C 		strh	r0, [r3, #-16]	@ movhi
1985:Generated_Source\PSoC5/Segments.c ****     }
 3016              		.loc 1 1985 0 discriminator 3
 3017 004e 4246     		mov	r2, r8
 3018              	.LVL387:
1981:Generated_Source\PSoC5/Segments.c ****     {
 3019              		.loc 1 1981 0 discriminator 3
 3020 0050 5FFA89F3 		uxtb	r3, r9
 3021              	.LVL388:
 3022              	.L323:
1981:Generated_Source\PSoC5/Segments.c ****     {
 3023              		.loc 1 1981 0 is_stmt 0 discriminator 1
 3024 0054 002B     		cmp	r3, #0
 3025 0056 E7D1     		bne	.L324
1989:Generated_Source\PSoC5/Segments.c ****     {
 3026              		.loc 1 1989 0 is_stmt 1
 3027 0058 022E     		cmp	r6, #2
 3028 005a 33D1     		bne	.L341
1991:Generated_Source\PSoC5/Segments.c ****         {
 3029              		.loc 1 1991 0
 3030 005c B7B3     		cbz	r7, .L326
1994:Generated_Source\PSoC5/Segments.c ****         }
 3031              		.loc 1 1994 0
 3032 005e 2D20     		movs	r0, #45
 3033 0060 FFF7FEFF 		bl	Segments_EncodeChar16Seg
 3034              	.LVL389:
 3035 0064 ADF80000 		strh	r0, [sp]	@ movhi
 3036 0068 30E0     		b	.L326
 3037              	.LVL390:
 3038              	.L330:
2001:Generated_Source\PSoC5/Segments.c ****             {
 3039              		.loc 1 2001 0
ARM GAS  C:\Users\Esteban\AppData\Local\Temp\ccHxlO6N.s 			page 120


 3040 006a 9846     		mov	r8, r3
 3041 006c 04A9     		add	r1, sp, #16
 3042 006e 01EB4301 		add	r1, r1, r3, lsl #1
 3043 0072 31F8100C 		ldrh	r0, [r1, #-16]
 3044 0076 49F2FF01 		movw	r1, #37119
 3045 007a 8842     		cmp	r0, r1
 3046 007c 14D0     		beq	.L327
2003:Generated_Source\PSoC5/Segments.c ****                 {
 3047              		.loc 1 2003 0
 3048 007e 2FB3     		cbz	r7, .L326
2005:Generated_Source\PSoC5/Segments.c ****                     {
 3049              		.loc 1 2005 0
 3050 0080 43B9     		cbnz	r3, .L328
2008:Generated_Source\PSoC5/Segments.c ****                     }
 3051              		.loc 1 2008 0
 3052 0082 2D20     		movs	r0, #45
 3053 0084 FFF7FEFF 		bl	Segments_EncodeChar16Seg
 3054              	.LVL391:
 3055 0088 04AB     		add	r3, sp, #16
 3056 008a 03EB4808 		add	r8, r3, r8, lsl #1
 3057 008e 28F8100C 		strh	r0, [r8, #-16]	@ movhi
 3058 0092 1BE0     		b	.L326
 3059              	.LVL392:
 3060              	.L328:
2013:Generated_Source\PSoC5/Segments.c ****                     }
 3061              		.loc 1 2013 0
 3062 0094 5F1E     		subs	r7, r3, #1
 3063              	.LVL393:
 3064 0096 2D20     		movs	r0, #45
 3065 0098 FFF7FEFF 		bl	Segments_EncodeChar16Seg
 3066              	.LVL394:
 3067 009c 04AB     		add	r3, sp, #16
 3068 009e 03EB4703 		add	r3, r3, r7, lsl #1
 3069 00a2 23F8100C 		strh	r0, [r3, #-16]	@ movhi
 3070 00a6 11E0     		b	.L326
 3071              	.LVL395:
 3072              	.L327:
2021:Generated_Source\PSoC5/Segments.c ****                 {
 3073              		.loc 1 2021 0
 3074 00a8 611E     		subs	r1, r4, #1
 3075 00aa 8A42     		cmp	r2, r1
 3076 00ac 07D0     		beq	.L329
2024:Generated_Source\PSoC5/Segments.c ****                     zeroCount++;
 3077              		.loc 1 2024 0
 3078 00ae 04A9     		add	r1, sp, #16
 3079 00b0 01EB4308 		add	r8, r1, r3, lsl #1
 3080 00b4 0021     		movs	r1, #0
 3081 00b6 28F8101C 		strh	r1, [r8, #-16]	@ movhi
2025:Generated_Source\PSoC5/Segments.c ****                 }
 3082              		.loc 1 2025 0
 3083 00ba 0132     		adds	r2, r2, #1
 3084              	.LVL396:
 3085 00bc D2B2     		uxtb	r2, r2
 3086              	.LVL397:
 3087              	.L329:
1999:Generated_Source\PSoC5/Segments.c ****         {
 3088              		.loc 1 1999 0 discriminator 2
ARM GAS  C:\Users\Esteban\AppData\Local\Temp\ccHxlO6N.s 			page 121


 3089 00be 0133     		adds	r3, r3, #1
 3090              	.LVL398:
 3091 00c0 DBB2     		uxtb	r3, r3
 3092              	.LVL399:
 3093 00c2 01E0     		b	.L325
 3094              	.LVL400:
 3095              	.L341:
 3096 00c4 0022     		movs	r2, #0
 3097              	.LVL401:
 3098 00c6 1346     		mov	r3, r2
 3099              	.LVL402:
 3100              	.L325:
1999:Generated_Source\PSoC5/Segments.c ****         {
 3101              		.loc 1 1999 0 is_stmt 0 discriminator 1
 3102 00c8 A342     		cmp	r3, r4
 3103 00ca CED3     		bcc	.L330
 3104              	.LVL403:
 3105              	.L326:
2034:Generated_Source\PSoC5/Segments.c ****     {
 3106              		.loc 1 2034 0 is_stmt 1
 3107 00cc 012E     		cmp	r6, #1
 3108 00ce 29D1     		bne	.L332
 3109 00d0 0EE0     		b	.L342
 3110              	.LVL404:
 3111              	.L335:
2038:Generated_Source\PSoC5/Segments.c ****             {
 3112              		.loc 1 2038 0
 3113 00d2 04AA     		add	r2, sp, #16
 3114 00d4 02EB4302 		add	r2, r2, r3, lsl #1
 3115 00d8 32F8102C 		ldrh	r2, [r2, #-16]
 3116 00dc 2AB1     		cbz	r2, .L333
2040:Generated_Source\PSoC5/Segments.c ****                 {
 3117              		.loc 1 2040 0
 3118 00de 032D     		cmp	r5, #3
 3119 00e0 01D8     		bhi	.L334
2043:Generated_Source\PSoC5/Segments.c ****                 #if (Segments_NUM_SEG > 8u)
 3120              		.loc 1 2043 0
 3121 00e2 1449     		ldr	r1, .L344+4
 3122 00e4 4A55     		strb	r2, [r1, r5]
 3123              	.L334:
2048:Generated_Source\PSoC5/Segments.c ****             }
 3124              		.loc 1 2048 0
 3125 00e6 0135     		adds	r5, r5, #1
 3126              	.LVL405:
 3127 00e8 EDB2     		uxtb	r5, r5
 3128              	.LVL406:
 3129              	.L333:
2036:Generated_Source\PSoC5/Segments.c ****         {
 3130              		.loc 1 2036 0 discriminator 2
 3131 00ea 0133     		adds	r3, r3, #1
 3132              	.LVL407:
 3133 00ec DBB2     		uxtb	r3, r3
 3134              	.LVL408:
 3135 00ee 00E0     		b	.L331
 3136              	.LVL409:
 3137              	.L342:
 3138 00f0 0023     		movs	r3, #0
ARM GAS  C:\Users\Esteban\AppData\Local\Temp\ccHxlO6N.s 			page 122


 3139              	.L331:
 3140              	.LVL410:
2036:Generated_Source\PSoC5/Segments.c ****         {
 3141              		.loc 1 2036 0 is_stmt 0 discriminator 1
 3142 00f2 A342     		cmp	r3, r4
 3143 00f4 EDD3     		bcc	.L335
 3144 00f6 04E0     		b	.L336
 3145              	.LVL411:
 3146              	.L337:
2055:Generated_Source\PSoC5/Segments.c ****             #if (Segments_NUM_SEG > 8u)
 3147              		.loc 1 2055 0 is_stmt 1
 3148 00f8 0022     		movs	r2, #0
 3149 00fa 0E4B     		ldr	r3, .L344+4
 3150 00fc 5A55     		strb	r2, [r3, r5]
2060:Generated_Source\PSoC5/Segments.c ****         }
 3151              		.loc 1 2060 0
 3152 00fe 0135     		adds	r5, r5, #1
 3153              	.LVL412:
 3154 0100 EDB2     		uxtb	r5, r5
 3155              	.LVL413:
 3156              	.L336:
2052:Generated_Source\PSoC5/Segments.c ****         {
 3157              		.loc 1 2052 0
 3158 0102 A542     		cmp	r5, r4
 3159 0104 F8D3     		bcc	.L337
 3160 0106 0FE0     		b	.L320
 3161              	.LVL414:
 3162              	.L340:
2067:Generated_Source\PSoC5/Segments.c ****             {
 3163              		.loc 1 2067 0
 3164 0108 6319     		adds	r3, r4, r5
 3165 010a 013B     		subs	r3, r3, #1
 3166 010c 032B     		cmp	r3, #3
 3167 010e 07D8     		bhi	.L339
2069:Generated_Source\PSoC5/Segments.c ****             #if (Segments_NUM_SEG > 8u)
 3168              		.loc 1 2069 0
 3169 0110 621E     		subs	r2, r4, #1
 3170 0112 04A9     		add	r1, sp, #16
 3171 0114 01EB4202 		add	r2, r1, r2, lsl #1
 3172 0118 12F8101C 		ldrb	r1, [r2, #-16]	@ zero_extendqisi2
 3173 011c 054A     		ldr	r2, .L344+4
 3174 011e D154     		strb	r1, [r2, r3]
 3175              	.L339:
2065:Generated_Source\PSoC5/Segments.c ****         {
 3176              		.loc 1 2065 0 discriminator 2
 3177 0120 013C     		subs	r4, r4, #1
 3178              	.LVL415:
 3179 0122 E4B2     		uxtb	r4, r4
 3180              	.LVL416:
 3181              	.L332:
2065:Generated_Source\PSoC5/Segments.c ****         {
 3182              		.loc 1 2065 0 is_stmt 0 discriminator 1
 3183 0124 002C     		cmp	r4, #0
 3184 0126 EFD1     		bne	.L340
 3185              	.LVL417:
 3186              	.L320:
2076:Generated_Source\PSoC5/Segments.c **** 
ARM GAS  C:\Users\Esteban\AppData\Local\Temp\ccHxlO6N.s 			page 123


 3187              		.loc 1 2076 0 is_stmt 1
 3188 0128 05B0     		add	sp, sp, #20
 3189              		.cfi_def_cfa_offset 28
 3190              		@ sp needed
 3191 012a BDE8F083 		pop	{r4, r5, r6, r7, r8, r9, pc}
 3192              	.LVL418:
 3193              	.L345:
 3194 012e 00BF     		.align	2
 3195              	.L344:
 3196 0130 CDCCCCCC 		.word	-858993459
 3197 0134 00000000 		.word	Segments_segLBuffer
 3198              		.cfi_endproc
 3199              	.LFE26:
 3200              		.size	Segments_Write16SegNumberDec, .-Segments_Write16SegNumberDec
 3201              		.section	.text.Segments_WriteString16Seg,"ax",%progbits
 3202              		.align	2
 3203              		.global	Segments_WriteString16Seg
 3204              		.thumb
 3205              		.thumb_func
 3206              		.type	Segments_WriteString16Seg, %function
 3207              	Segments_WriteString16Seg:
 3208              	.LFB28:
2215:Generated_Source\PSoC5/Segments.c ****     uint8 currPosition;
 3209              		.loc 1 2215 0
 3210              		.cfi_startproc
 3211              		@ args = 0, pretend = 0, frame = 0
 3212              		@ frame_needed = 0, uses_anonymous_args = 0
 3213              	.LVL419:
 3214 0000 F8B5     		push	{r3, r4, r5, r6, r7, lr}
 3215              		.cfi_def_cfa_offset 24
 3216              		.cfi_offset 3, -24
 3217              		.cfi_offset 4, -20
 3218              		.cfi_offset 5, -16
 3219              		.cfi_offset 6, -12
 3220              		.cfi_offset 7, -8
 3221              		.cfi_offset 14, -4
 3222 0002 0746     		mov	r7, r0
 3223 0004 0C46     		mov	r4, r1
 3224              	.LVL420:
2221:Generated_Source\PSoC5/Segments.c ****     
 3225              		.loc 1 2221 0
 3226 0006 FFF7FEFF 		bl	strlen
 3227              	.LVL421:
 3228 000a 2044     		add	r0, r0, r4
 3229 000c C6B2     		uxtb	r6, r0
 3230              	.LVL422:
2218:Generated_Source\PSoC5/Segments.c ****     uint16 charDisplay;
 3231              		.loc 1 2218 0
 3232 000e 0025     		movs	r5, #0
2223:Generated_Source\PSoC5/Segments.c ****     {
 3233              		.loc 1 2223 0
 3234 0010 0AE0     		b	.L347
 3235              	.LVL423:
 3236              	.L349:
2225:Generated_Source\PSoC5/Segments.c ****         {
 3237              		.loc 1 2225 0
 3238 0012 B442     		cmp	r4, r6
ARM GAS  C:\Users\Esteban\AppData\Local\Temp\ccHxlO6N.s 			page 124


 3239 0014 06D2     		bcs	.L348
2227:Generated_Source\PSoC5/Segments.c ****             Segments_segLBuffer[currPosition] = LO8(charDisplay);
 3240              		.loc 1 2227 0
 3241 0016 785D     		ldrb	r0, [r7, r5]	@ zero_extendqisi2
 3242 0018 FFF7FEFF 		bl	Segments_EncodeChar16Seg
 3243              	.LVL424:
2228:Generated_Source\PSoC5/Segments.c ****             #if (Segments_NUM_SEG > 8u)
 3244              		.loc 1 2228 0
 3245 001c 044B     		ldr	r3, .L351
 3246 001e 1855     		strb	r0, [r3, r4]
2232:Generated_Source\PSoC5/Segments.c ****         }
 3247              		.loc 1 2232 0
 3248 0020 0135     		adds	r5, r5, #1
 3249              	.LVL425:
 3250 0022 EDB2     		uxtb	r5, r5
 3251              	.LVL426:
 3252              	.L348:
2223:Generated_Source\PSoC5/Segments.c ****     {
 3253              		.loc 1 2223 0 discriminator 2
 3254 0024 0134     		adds	r4, r4, #1
 3255              	.LVL427:
 3256 0026 E4B2     		uxtb	r4, r4
 3257              	.LVL428:
 3258              	.L347:
2223:Generated_Source\PSoC5/Segments.c ****     {
 3259              		.loc 1 2223 0 is_stmt 0 discriminator 1
 3260 0028 032C     		cmp	r4, #3
 3261 002a F2D9     		bls	.L349
2235:Generated_Source\PSoC5/Segments.c **** 
 3262              		.loc 1 2235 0 is_stmt 1
 3263 002c F8BD     		pop	{r3, r4, r5, r6, r7, pc}
 3264              	.LVL429:
 3265              	.L352:
 3266 002e 00BF     		.align	2
 3267              	.L351:
 3268 0030 00000000 		.word	Segments_segLBuffer
 3269              		.cfi_endproc
 3270              	.LFE28:
 3271              		.size	Segments_WriteString16Seg, .-Segments_WriteString16Seg
 3272              		.section	.text.Segments_PutChar16Seg,"ax",%progbits
 3273              		.align	2
 3274              		.global	Segments_PutChar16Seg
 3275              		.thumb
 3276              		.thumb_func
 3277              		.type	Segments_PutChar16Seg, %function
 3278              	Segments_PutChar16Seg:
 3279              	.LFB29:
2259:Generated_Source\PSoC5/Segments.c ****     uint16 charDisplay;
 3280              		.loc 1 2259 0
 3281              		.cfi_startproc
 3282              		@ args = 0, pretend = 0, frame = 0
 3283              		@ frame_needed = 0, uses_anonymous_args = 0
 3284              	.LVL430:
2262:Generated_Source\PSoC5/Segments.c ****     {
 3285              		.loc 1 2262 0
 3286 0000 0329     		cmp	r1, #3
 3287 0002 06D8     		bhi	.L356
ARM GAS  C:\Users\Esteban\AppData\Local\Temp\ccHxlO6N.s 			page 125


2259:Generated_Source\PSoC5/Segments.c ****     uint16 charDisplay;
 3288              		.loc 1 2259 0
 3289 0004 10B5     		push	{r4, lr}
 3290              		.cfi_def_cfa_offset 8
 3291              		.cfi_offset 4, -8
 3292              		.cfi_offset 14, -4
 3293 0006 0C46     		mov	r4, r1
2264:Generated_Source\PSoC5/Segments.c ****         Segments_segLBuffer[position] = LO8(charDisplay);
 3294              		.loc 1 2264 0
 3295 0008 FFF7FEFF 		bl	Segments_EncodeChar16Seg
 3296              	.LVL431:
2265:Generated_Source\PSoC5/Segments.c ****         #if (Segments_NUM_SEG > 8u)
 3297              		.loc 1 2265 0
 3298 000c 014B     		ldr	r3, .L357
 3299 000e 1855     		strb	r0, [r3, r4]
 3300 0010 10BD     		pop	{r4, pc}
 3301              	.LVL432:
 3302              	.L356:
 3303              		.cfi_def_cfa_offset 0
 3304              		.cfi_restore 4
 3305              		.cfi_restore 14
 3306 0012 7047     		bx	lr
 3307              	.L358:
 3308              		.align	2
 3309              	.L357:
 3310 0014 00000000 		.word	Segments_segLBuffer
 3311              		.cfi_endproc
 3312              	.LFE29:
 3313              		.size	Segments_PutChar16Seg, .-Segments_PutChar16Seg
 3314              		.section	.text.Segments_SetBrightness,"ax",%progbits
 3315              		.align	2
 3316              		.global	Segments_SetBrightness
 3317              		.thumb
 3318              		.thumb_func
 3319              		.type	Segments_SetBrightness, %function
 3320              	Segments_SetBrightness:
 3321              	.LFB40:
3428:Generated_Source\PSoC5/Segments.c **** 
3429:Generated_Source\PSoC5/Segments.c **** 
3430:Generated_Source\PSoC5/Segments.c **** #if (Segments_BRIGHTNESS_EN == Segments_ENABLED)
3431:Generated_Source\PSoC5/Segments.c **** 
3432:Generated_Source\PSoC5/Segments.c **** 
3433:Generated_Source\PSoC5/Segments.c **** /*******************************************************************************
3434:Generated_Source\PSoC5/Segments.c **** * Function Name: Segments_SetBrightness
3435:Generated_Source\PSoC5/Segments.c **** ********************************************************************************
3436:Generated_Source\PSoC5/Segments.c **** *
3437:Generated_Source\PSoC5/Segments.c **** * Summary:
3438:Generated_Source\PSoC5/Segments.c **** *  Sets the desired brightness value (0 = display off; 255 = display at full
3439:Generated_Source\PSoC5/Segments.c **** *  brightness) for the chosen display by applying a PWM duty cycle to that
3440:Generated_Source\PSoC5/Segments.c **** *  displays common when the display is active.
3441:Generated_Source\PSoC5/Segments.c **** *
3442:Generated_Source\PSoC5/Segments.c **** * Parameters:
3443:Generated_Source\PSoC5/Segments.c **** *  uint8 bright: The brightness value by duty cycle, between 1 and 255.
3444:Generated_Source\PSoC5/Segments.c **** *  uint8 position: The position in which to set the brightness.
3445:Generated_Source\PSoC5/Segments.c **** *
3446:Generated_Source\PSoC5/Segments.c **** * Return:
3447:Generated_Source\PSoC5/Segments.c **** *  None
ARM GAS  C:\Users\Esteban\AppData\Local\Temp\ccHxlO6N.s 			page 126


3448:Generated_Source\PSoC5/Segments.c **** *
3449:Generated_Source\PSoC5/Segments.c **** * Side effects:
3450:Generated_Source\PSoC5/Segments.c **** *  None
3451:Generated_Source\PSoC5/Segments.c **** *
3452:Generated_Source\PSoC5/Segments.c **** *******************************************************************************/
3453:Generated_Source\PSoC5/Segments.c **** void Segments_SetBrightness(uint8 bright, uint8 position)
3454:Generated_Source\PSoC5/Segments.c **** 
3455:Generated_Source\PSoC5/Segments.c **** {   
 3322              		.loc 1 3455 0
 3323              		.cfi_startproc
 3324              		@ args = 0, pretend = 0, frame = 0
 3325              		@ frame_needed = 0, uses_anonymous_args = 0
 3326              		@ link register save eliminated.
 3327              	.LVL433:
 3328 0000 10B4     		push	{r4}
 3329              		.cfi_def_cfa_offset 4
 3330              		.cfi_offset 4, -4
3456:Generated_Source\PSoC5/Segments.c ****     #if(Segments_COM_DRIVE == Segments_HIGH)
3457:Generated_Source\PSoC5/Segments.c ****         static const uint8 CYCODE Segments_tempCom[16] = {0x00u, 0x01u, 0x00u, 0x02u, 0x00u, 0x04u,
3458:Generated_Source\PSoC5/Segments.c ****                                                                   0x00u, 0x08u, 0x00u, 0x10u, 0x00u
3459:Generated_Source\PSoC5/Segments.c ****                                                                   0x00u, 0x40u, 0x00u, 0x80u};
3460:Generated_Source\PSoC5/Segments.c ****     #else
3461:Generated_Source\PSoC5/Segments.c ****         static const uint8 CYCODE Segments_tempCom[16] = {0xFFu, 0xFEu, 0xFFu, 0xFDu, 0xFFu, 0xFBu,
3462:Generated_Source\PSoC5/Segments.c ****                                                                   0xFFu, 0xF7u, 0xFFu, 0xEFu, 0xFFu
3463:Generated_Source\PSoC5/Segments.c ****                                                                   0xFFu, 0xBFu, 0xFFu, 0x7Fu};
3464:Generated_Source\PSoC5/Segments.c ****     #endif /* (Segments_COM_DRIVE == Segments_HIGH) */
3465:Generated_Source\PSoC5/Segments.c ****     
3466:Generated_Source\PSoC5/Segments.c ****     if(bright == 0u)
 3331              		.loc 1 3466 0
 3332 0002 0446     		mov	r4, r0
 3333 0004 28B9     		cbnz	r0, .L360
3467:Generated_Source\PSoC5/Segments.c ****     {
3468:Generated_Source\PSoC5/Segments.c ****         /* Turn off the commons */
3469:Generated_Source\PSoC5/Segments.c ****         Segments_comBuffer[(uint8)((uint8)position << 1u) + 1u] = Segments_CLEAR;
 3334              		.loc 1 3469 0
 3335 0006 4B00     		lsls	r3, r1, #1
 3336 0008 DBB2     		uxtb	r3, r3
 3337 000a 0133     		adds	r3, r3, #1
 3338 000c 084A     		ldr	r2, .L363
 3339 000e D054     		strb	r0, [r2, r3]
 3340 0010 08E0     		b	.L361
 3341              	.L360:
3470:Generated_Source\PSoC5/Segments.c ****     }
3471:Generated_Source\PSoC5/Segments.c ****     else
3472:Generated_Source\PSoC5/Segments.c ****     {
3473:Generated_Source\PSoC5/Segments.c ****         /* Restore the commons */
3474:Generated_Source\PSoC5/Segments.c ****         Segments_comBuffer[(uint8)((uint8)position << 1u) + 1u]
 3342              		.loc 1 3474 0
 3343 0012 4B00     		lsls	r3, r1, #1
 3344 0014 DBB2     		uxtb	r3, r3
3475:Generated_Source\PSoC5/Segments.c ****             = Segments_tempCom[(uint8)((uint8)position << 1u) + 1u];
 3345              		.loc 1 3475 0
 3346 0016 0133     		adds	r3, r3, #1
 3347 0018 064A     		ldr	r2, .L363+4
 3348 001a 1A44     		add	r2, r2, r3
 3349 001c 92F83002 		ldrb	r0, [r2, #560]	@ zero_extendqisi2
 3350              	.LVL434:
ARM GAS  C:\Users\Esteban\AppData\Local\Temp\ccHxlO6N.s 			page 127


 3351 0020 034A     		ldr	r2, .L363
 3352 0022 D054     		strb	r0, [r2, r3]
 3353              	.L361:
3476:Generated_Source\PSoC5/Segments.c ****     }
3477:Generated_Source\PSoC5/Segments.c ****     
3478:Generated_Source\PSoC5/Segments.c ****     /* Update the brightness register */
3479:Generated_Source\PSoC5/Segments.c ****     Segments_brightnessReg[position] = bright;
 3354              		.loc 1 3479 0
 3355 0024 044B     		ldr	r3, .L363+8
 3356 0026 1944     		add	r1, r1, r3
 3357              	.LVL435:
 3358 0028 0C76     		strb	r4, [r1, #24]
3480:Generated_Source\PSoC5/Segments.c **** }
 3359              		.loc 1 3480 0
 3360 002a 10BC     		pop	{r4}
 3361              		.cfi_restore 4
 3362              		.cfi_def_cfa_offset 0
 3363 002c 7047     		bx	lr
 3364              	.L364:
 3365 002e 00BF     		.align	2
 3366              	.L363:
 3367 0030 00000000 		.word	.LANCHOR1
 3368 0034 00000000 		.word	.LANCHOR2
 3369 0038 00000000 		.word	.LANCHOR0
 3370              		.cfi_endproc
 3371              	.LFE40:
 3372              		.size	Segments_SetBrightness, .-Segments_SetBrightness
 3373              		.section	.text.Segments_GetBrightness,"ax",%progbits
 3374              		.align	2
 3375              		.global	Segments_GetBrightness
 3376              		.thumb
 3377              		.thumb_func
 3378              		.type	Segments_GetBrightness, %function
 3379              	Segments_GetBrightness:
 3380              	.LFB41:
3481:Generated_Source\PSoC5/Segments.c **** 
3482:Generated_Source\PSoC5/Segments.c **** 
3483:Generated_Source\PSoC5/Segments.c **** /*******************************************************************************
3484:Generated_Source\PSoC5/Segments.c **** * Function Name: Segments_GetBrightness
3485:Generated_Source\PSoC5/Segments.c **** ********************************************************************************
3486:Generated_Source\PSoC5/Segments.c **** *
3487:Generated_Source\PSoC5/Segments.c **** * Summary:
3488:Generated_Source\PSoC5/Segments.c **** *  Returns the brightness value for the specific display location.
3489:Generated_Source\PSoC5/Segments.c **** *
3490:Generated_Source\PSoC5/Segments.c **** * Parameters:
3491:Generated_Source\PSoC5/Segments.c **** *  uint8 position: Position in which to return the brightness value.
3492:Generated_Source\PSoC5/Segments.c **** *
3493:Generated_Source\PSoC5/Segments.c **** * Return:
3494:Generated_Source\PSoC5/Segments.c **** *  None
3495:Generated_Source\PSoC5/Segments.c **** *
3496:Generated_Source\PSoC5/Segments.c **** * Side effects:
3497:Generated_Source\PSoC5/Segments.c **** *  None
3498:Generated_Source\PSoC5/Segments.c **** *
3499:Generated_Source\PSoC5/Segments.c **** *******************************************************************************/
3500:Generated_Source\PSoC5/Segments.c **** uint8 Segments_GetBrightness(uint8 position) 
3501:Generated_Source\PSoC5/Segments.c **** {
 3381              		.loc 1 3501 0
ARM GAS  C:\Users\Esteban\AppData\Local\Temp\ccHxlO6N.s 			page 128


 3382              		.cfi_startproc
 3383              		@ args = 0, pretend = 0, frame = 0
 3384              		@ frame_needed = 0, uses_anonymous_args = 0
 3385              		@ link register save eliminated.
 3386              	.LVL436:
3502:Generated_Source\PSoC5/Segments.c ****     return(Segments_brightnessReg[position]);
 3387              		.loc 1 3502 0
 3388 0000 014B     		ldr	r3, .L366
 3389 0002 1844     		add	r0, r0, r3
 3390              	.LVL437:
3503:Generated_Source\PSoC5/Segments.c **** }
 3391              		.loc 1 3503 0
 3392 0004 007E     		ldrb	r0, [r0, #24]	@ zero_extendqisi2
 3393 0006 7047     		bx	lr
 3394              	.L367:
 3395              		.align	2
 3396              	.L366:
 3397 0008 00000000 		.word	.LANCHOR0
 3398              		.cfi_endproc
 3399              	.LFE41:
 3400              		.size	Segments_GetBrightness, .-Segments_GetBrightness
 3401              		.global	Segments_enableVar
 3402              		.global	Segments_initVar
 3403              		.comm	Segments_segLBuffer,4,4
 3404              		.section	.rodata
 3405              		.align	2
 3406              		.set	.LANCHOR2,. + 0
 3407              		.type	Segments_7SegDigits.5603, %object
 3408              		.size	Segments_7SegDigits.5603, 16
 3409              	Segments_7SegDigits.5603:
 3410 0000 3F       		.byte	63
 3411 0001 06       		.byte	6
 3412 0002 5B       		.byte	91
 3413 0003 4F       		.byte	79
 3414 0004 66       		.byte	102
 3415 0005 6D       		.byte	109
 3416 0006 7D       		.byte	125
 3417 0007 07       		.byte	7
 3418 0008 7F       		.byte	127
 3419 0009 6F       		.byte	111
 3420 000a 77       		.byte	119
 3421 000b 7C       		.byte	124
 3422 000c 39       		.byte	57
 3423 000d 5E       		.byte	94
 3424 000e 79       		.byte	121
 3425 000f 71       		.byte	113
 3426              		.type	Segments_7SegASCII.5609, %object
 3427              		.size	Segments_7SegASCII.5609, 96
 3428              	Segments_7SegASCII.5609:
 3429 0010 00       		.byte	0
 3430 0011 00       		.byte	0
 3431 0012 00       		.byte	0
 3432 0013 00       		.byte	0
 3433 0014 00       		.byte	0
 3434 0015 00       		.byte	0
 3435 0016 00       		.byte	0
 3436 0017 00       		.byte	0
ARM GAS  C:\Users\Esteban\AppData\Local\Temp\ccHxlO6N.s 			page 129


 3437 0018 00       		.byte	0
 3438 0019 00       		.byte	0
 3439 001a 00       		.byte	0
 3440 001b 00       		.byte	0
 3441 001c 00       		.byte	0
 3442 001d 40       		.byte	64
 3443 001e 80       		.byte	-128
 3444 001f 00       		.byte	0
 3445 0020 3F       		.byte	63
 3446 0021 06       		.byte	6
 3447 0022 5B       		.byte	91
 3448 0023 4F       		.byte	79
 3449 0024 66       		.byte	102
 3450 0025 6D       		.byte	109
 3451 0026 7D       		.byte	125
 3452 0027 07       		.byte	7
 3453 0028 7F       		.byte	127
 3454 0029 6F       		.byte	111
 3455 002a 00       		.byte	0
 3456 002b 00       		.byte	0
 3457 002c 00       		.byte	0
 3458 002d 48       		.byte	72
 3459 002e 00       		.byte	0
 3460 002f 00       		.byte	0
 3461 0030 00       		.byte	0
 3462 0031 77       		.byte	119
 3463 0032 7C       		.byte	124
 3464 0033 58       		.byte	88
 3465 0034 5E       		.byte	94
 3466 0035 79       		.byte	121
 3467 0036 71       		.byte	113
 3468 0037 3D       		.byte	61
 3469 0038 74       		.byte	116
 3470 0039 10       		.byte	16
 3471 003a 1E       		.byte	30
 3472 003b 76       		.byte	118
 3473 003c 38       		.byte	56
 3474 003d 55       		.byte	85
 3475 003e 54       		.byte	84
 3476 003f 5C       		.byte	92
 3477 0040 73       		.byte	115
 3478 0041 67       		.byte	103
 3479 0042 50       		.byte	80
 3480 0043 6D       		.byte	109
 3481 0044 78       		.byte	120
 3482 0045 1C       		.byte	28
 3483 0046 1C       		.byte	28
 3484 0047 1D       		.byte	29
 3485 0048 76       		.byte	118
 3486 0049 6E       		.byte	110
 3487 004a 5B       		.byte	91
 3488 004b 00       		.byte	0
 3489 004c 00       		.byte	0
 3490 004d 00       		.byte	0
 3491 004e 00       		.byte	0
 3492 004f 08       		.byte	8
 3493 0050 00       		.byte	0
ARM GAS  C:\Users\Esteban\AppData\Local\Temp\ccHxlO6N.s 			page 130


 3494 0051 77       		.byte	119
 3495 0052 7C       		.byte	124
 3496 0053 58       		.byte	88
 3497 0054 5E       		.byte	94
 3498 0055 79       		.byte	121
 3499 0056 71       		.byte	113
 3500 0057 3D       		.byte	61
 3501 0058 74       		.byte	116
 3502 0059 10       		.byte	16
 3503 005a 1E       		.byte	30
 3504 005b 76       		.byte	118
 3505 005c 38       		.byte	56
 3506 005d 55       		.byte	85
 3507 005e 54       		.byte	84
 3508 005f 5C       		.byte	92
 3509 0060 73       		.byte	115
 3510 0061 67       		.byte	103
 3511 0062 50       		.byte	80
 3512 0063 6D       		.byte	109
 3513 0064 78       		.byte	120
 3514 0065 1C       		.byte	28
 3515 0066 1C       		.byte	28
 3516 0067 1D       		.byte	29
 3517 0068 76       		.byte	118
 3518 0069 6E       		.byte	110
 3519 006a 5B       		.byte	91
 3520 006b 00       		.byte	0
 3521 006c 00       		.byte	0
 3522 006d 00       		.byte	0
 3523 006e 00       		.byte	0
 3524 006f 00       		.byte	0
 3525              		.type	Segments_14SegDigitsHigh.5617, %object
 3526              		.size	Segments_14SegDigitsHigh.5617, 16
 3527              	Segments_14SegDigitsHigh.5617:
 3528 0070 24       		.byte	36
 3529 0071 00       		.byte	0
 3530 0072 00       		.byte	0
 3531 0073 00       		.byte	0
 3532 0074 00       		.byte	0
 3533 0075 00       		.byte	0
 3534 0076 00       		.byte	0
 3535 0077 00       		.byte	0
 3536 0078 00       		.byte	0
 3537 0079 00       		.byte	0
 3538 007a 00       		.byte	0
 3539 007b 12       		.byte	18
 3540 007c 00       		.byte	0
 3541 007d 12       		.byte	18
 3542 007e 00       		.byte	0
 3543 007f 00       		.byte	0
 3544              		.type	Segments_14SegDigitsLow.5616, %object
 3545              		.size	Segments_14SegDigitsLow.5616, 16
 3546              	Segments_14SegDigitsLow.5616:
 3547 0080 3F       		.byte	63
 3548 0081 06       		.byte	6
 3549 0082 DB       		.byte	-37
 3550 0083 CF       		.byte	-49
ARM GAS  C:\Users\Esteban\AppData\Local\Temp\ccHxlO6N.s 			page 131


 3551 0084 E6       		.byte	-26
 3552 0085 ED       		.byte	-19
 3553 0086 FD       		.byte	-3
 3554 0087 07       		.byte	7
 3555 0088 FF       		.byte	-1
 3556 0089 EF       		.byte	-17
 3557 008a F7       		.byte	-9
 3558 008b 8F       		.byte	-113
 3559 008c 39       		.byte	57
 3560 008d 0F       		.byte	15
 3561 008e F9       		.byte	-7
 3562 008f F1       		.byte	-15
 3563              		.type	Segments_14SegASCIIHigh.5626, %object
 3564              		.size	Segments_14SegASCIIHigh.5626, 96
 3565              	Segments_14SegASCIIHigh.5626:
 3566 0090 00       		.byte	0
 3567 0091 00       		.byte	0
 3568 0092 02       		.byte	2
 3569 0093 00       		.byte	0
 3570 0094 00       		.byte	0
 3571 0095 00       		.byte	0
 3572 0096 00       		.byte	0
 3573 0097 00       		.byte	0
 3574 0098 0C       		.byte	12
 3575 0099 21       		.byte	33
 3576 009a 3F       		.byte	63
 3577 009b 00       		.byte	0
 3578 009c 20       		.byte	32
 3579 009d 00       		.byte	0
 3580 009e 00       		.byte	0
 3581 009f 00       		.byte	0
 3582 00a0 24       		.byte	36
 3583 00a1 00       		.byte	0
 3584 00a2 00       		.byte	0
 3585 00a3 00       		.byte	0
 3586 00a4 00       		.byte	0
 3587 00a5 00       		.byte	0
 3588 00a6 00       		.byte	0
 3589 00a7 00       		.byte	0
 3590 00a8 00       		.byte	0
 3591 00a9 00       		.byte	0
 3592 00aa 00       		.byte	0
 3593 00ab 00       		.byte	0
 3594 00ac 00       		.byte	0
 3595 00ad 00       		.byte	0
 3596 00ae 00       		.byte	0
 3597 00af 10       		.byte	16
 3598 00b0 00       		.byte	0
 3599 00b1 00       		.byte	0
 3600 00b2 12       		.byte	18
 3601 00b3 00       		.byte	0
 3602 00b4 12       		.byte	18
 3603 00b5 00       		.byte	0
 3604 00b6 00       		.byte	0
 3605 00b7 00       		.byte	0
 3606 00b8 00       		.byte	0
 3607 00b9 12       		.byte	18
ARM GAS  C:\Users\Esteban\AppData\Local\Temp\ccHxlO6N.s 			page 132


 3608 00ba 00       		.byte	0
 3609 00bb 0C       		.byte	12
 3610 00bc 00       		.byte	0
 3611 00bd 05       		.byte	5
 3612 00be 09       		.byte	9
 3613 00bf 00       		.byte	0
 3614 00c0 00       		.byte	0
 3615 00c1 08       		.byte	8
 3616 00c2 08       		.byte	8
 3617 00c3 00       		.byte	0
 3618 00c4 12       		.byte	18
 3619 00c5 00       		.byte	0
 3620 00c6 24       		.byte	36
 3621 00c7 28       		.byte	40
 3622 00c8 2D       		.byte	45
 3623 00c9 15       		.byte	21
 3624 00ca 24       		.byte	36
 3625 00cb 00       		.byte	0
 3626 00cc 00       		.byte	0
 3627 00cd 00       		.byte	0
 3628 00ce 00       		.byte	0
 3629 00cf 00       		.byte	0
 3630 00d0 00       		.byte	0
 3631 00d1 00       		.byte	0
 3632 00d2 00       		.byte	0
 3633 00d3 00       		.byte	0
 3634 00d4 00       		.byte	0
 3635 00d5 00       		.byte	0
 3636 00d6 00       		.byte	0
 3637 00d7 00       		.byte	0
 3638 00d8 00       		.byte	0
 3639 00d9 10       		.byte	16
 3640 00da 00       		.byte	0
 3641 00db 0C       		.byte	12
 3642 00dc 12       		.byte	18
 3643 00dd 10       		.byte	16
 3644 00de 00       		.byte	0
 3645 00df 00       		.byte	0
 3646 00e0 00       		.byte	0
 3647 00e1 08       		.byte	8
 3648 00e2 00       		.byte	0
 3649 00e3 00       		.byte	0
 3650 00e4 12       		.byte	18
 3651 00e5 00       		.byte	0
 3652 00e6 20       		.byte	32
 3653 00e7 10       		.byte	16
 3654 00e8 2D       		.byte	45
 3655 00e9 15       		.byte	21
 3656 00ea 24       		.byte	36
 3657 00eb 00       		.byte	0
 3658 00ec 00       		.byte	0
 3659 00ed 00       		.byte	0
 3660 00ee 00       		.byte	0
 3661 00ef 00       		.byte	0
 3662              		.type	Segments_14SegASCIILow.5625, %object
 3663              		.size	Segments_14SegASCIILow.5625, 96
 3664              	Segments_14SegASCIILow.5625:
ARM GAS  C:\Users\Esteban\AppData\Local\Temp\ccHxlO6N.s 			page 133


 3665 00f0 00       		.byte	0
 3666 00f1 30       		.byte	48
 3667 00f2 20       		.byte	32
 3668 00f3 00       		.byte	0
 3669 00f4 00       		.byte	0
 3670 00f5 00       		.byte	0
 3671 00f6 00       		.byte	0
 3672 00f7 20       		.byte	32
 3673 00f8 00       		.byte	0
 3674 00f9 00       		.byte	0
 3675 00fa C0       		.byte	-64
 3676 00fb 00       		.byte	0
 3677 00fc 00       		.byte	0
 3678 00fd C0       		.byte	-64
 3679 00fe 00       		.byte	0
 3680 00ff 00       		.byte	0
 3681 0100 3F       		.byte	63
 3682 0101 06       		.byte	6
 3683 0102 DB       		.byte	-37
 3684 0103 CF       		.byte	-49
 3685 0104 E6       		.byte	-26
 3686 0105 ED       		.byte	-19
 3687 0106 FD       		.byte	-3
 3688 0107 07       		.byte	7
 3689 0108 FF       		.byte	-1
 3690 0109 EF       		.byte	-17
 3691 010a 00       		.byte	0
 3692 010b 00       		.byte	0
 3693 010c 00       		.byte	0
 3694 010d C8       		.byte	-56
 3695 010e 00       		.byte	0
 3696 010f 83       		.byte	-125
 3697 0110 00       		.byte	0
 3698 0111 F7       		.byte	-9
 3699 0112 8F       		.byte	-113
 3700 0113 39       		.byte	57
 3701 0114 0F       		.byte	15
 3702 0115 F9       		.byte	-7
 3703 0116 F1       		.byte	-15
 3704 0117 BD       		.byte	-67
 3705 0118 F6       		.byte	-10
 3706 0119 09       		.byte	9
 3707 011a 1E       		.byte	30
 3708 011b 70       		.byte	112
 3709 011c 38       		.byte	56
 3710 011d 36       		.byte	54
 3711 011e 36       		.byte	54
 3712 011f 3F       		.byte	63
 3713 0120 F3       		.byte	-13
 3714 0121 3F       		.byte	63
 3715 0122 F3       		.byte	-13
 3716 0123 ED       		.byte	-19
 3717 0124 01       		.byte	1
 3718 0125 3E       		.byte	62
 3719 0126 30       		.byte	48
 3720 0127 36       		.byte	54
 3721 0128 00       		.byte	0
ARM GAS  C:\Users\Esteban\AppData\Local\Temp\ccHxlO6N.s 			page 134


 3722 0129 00       		.byte	0
 3723 012a 09       		.byte	9
 3724 012b 00       		.byte	0
 3725 012c 00       		.byte	0
 3726 012d 00       		.byte	0
 3727 012e 00       		.byte	0
 3728 012f 08       		.byte	8
 3729 0130 00       		.byte	0
 3730 0131 F7       		.byte	-9
 3731 0132 FC       		.byte	-4
 3732 0133 D8       		.byte	-40
 3733 0134 DE       		.byte	-34
 3734 0135 F9       		.byte	-7
 3735 0136 F1       		.byte	-15
 3736 0137 EF       		.byte	-17
 3737 0138 F4       		.byte	-12
 3738 0139 00       		.byte	0
 3739 013a 1E       		.byte	30
 3740 013b 70       		.byte	112
 3741 013c 00       		.byte	0
 3742 013d D4       		.byte	-44
 3743 013e D4       		.byte	-44
 3744 013f DC       		.byte	-36
 3745 0140 F3       		.byte	-13
 3746 0141 3F       		.byte	63
 3747 0142 D0       		.byte	-48
 3748 0143 ED       		.byte	-19
 3749 0144 C0       		.byte	-64
 3750 0145 1C       		.byte	28
 3751 0146 10       		.byte	16
 3752 0147 1C       		.byte	28
 3753 0148 00       		.byte	0
 3754 0149 00       		.byte	0
 3755 014a 09       		.byte	9
 3756 014b 00       		.byte	0
 3757 014c 00       		.byte	0
 3758 014d 00       		.byte	0
 3759 014e 00       		.byte	0
 3760 014f 00       		.byte	0
 3761              		.type	Segments_16SegDigitsHigh.5636, %object
 3762              		.size	Segments_16SegDigitsHigh.5636, 16
 3763              	Segments_16SegDigitsHigh.5636:
 3764 0150 90       		.byte	-112
 3765 0151 00       		.byte	0
 3766 0152 03       		.byte	3
 3767 0153 03       		.byte	3
 3768 0154 03       		.byte	3
 3769 0155 03       		.byte	3
 3770 0156 03       		.byte	3
 3771 0157 00       		.byte	0
 3772 0158 03       		.byte	3
 3773 0159 03       		.byte	3
 3774 015a 03       		.byte	3
 3775 015b 4A       		.byte	74
 3776 015c 00       		.byte	0
 3777 015d 48       		.byte	72
 3778 015e 03       		.byte	3
ARM GAS  C:\Users\Esteban\AppData\Local\Temp\ccHxlO6N.s 			page 135


 3779 015f 03       		.byte	3
 3780              		.type	Segments_16SegDigitsLow.5635, %object
 3781              		.size	Segments_16SegDigitsLow.5635, 16
 3782              	Segments_16SegDigitsLow.5635:
 3783 0160 FF       		.byte	-1
 3784 0161 0C       		.byte	12
 3785 0162 77       		.byte	119
 3786 0163 3F       		.byte	63
 3787 0164 8C       		.byte	-116
 3788 0165 BB       		.byte	-69
 3789 0166 FB       		.byte	-5
 3790 0167 0F       		.byte	15
 3791 0168 FF       		.byte	-1
 3792 0169 8F       		.byte	-113
 3793 016a CF       		.byte	-49
 3794 016b 3F       		.byte	63
 3795 016c F3       		.byte	-13
 3796 016d 3F       		.byte	63
 3797 016e F3       		.byte	-13
 3798 016f C3       		.byte	-61
 3799              		.type	Segments_16SegASCIIHigh.5645, %object
 3800              		.size	Segments_16SegASCIIHigh.5645, 96
 3801              	Segments_16SegASCIIHigh.5645:
 3802 0170 00       		.byte	0
 3803 0171 00       		.byte	0
 3804 0172 08       		.byte	8
 3805 0173 00       		.byte	0
 3806 0174 00       		.byte	0
 3807 0175 00       		.byte	0
 3808 0176 00       		.byte	0
 3809 0177 00       		.byte	0
 3810 0178 30       		.byte	48
 3811 0179 84       		.byte	-124
 3812 017a FF       		.byte	-1
 3813 017b 00       		.byte	0
 3814 017c 80       		.byte	-128
 3815 017d 03       		.byte	3
 3816 017e 00       		.byte	0
 3817 017f 00       		.byte	0
 3818 0180 90       		.byte	-112
 3819 0181 00       		.byte	0
 3820 0182 03       		.byte	3
 3821 0183 03       		.byte	3
 3822 0184 03       		.byte	3
 3823 0185 03       		.byte	3
 3824 0186 03       		.byte	3
 3825 0187 00       		.byte	0
 3826 0188 03       		.byte	3
 3827 0189 03       		.byte	3
 3828 018a 00       		.byte	0
 3829 018b 00       		.byte	0
 3830 018c 00       		.byte	0
 3831 018d 03       		.byte	3
 3832 018e 00       		.byte	0
 3833 018f 42       		.byte	66
 3834 0190 00       		.byte	0
 3835 0191 03       		.byte	3
ARM GAS  C:\Users\Esteban\AppData\Local\Temp\ccHxlO6N.s 			page 136


 3836 0192 4A       		.byte	74
 3837 0193 00       		.byte	0
 3838 0194 48       		.byte	72
 3839 0195 03       		.byte	3
 3840 0196 03       		.byte	3
 3841 0197 02       		.byte	2
 3842 0198 03       		.byte	3
 3843 0199 48       		.byte	72
 3844 019a 00       		.byte	0
 3845 019b 31       		.byte	49
 3846 019c 00       		.byte	0
 3847 019d 14       		.byte	20
 3848 019e 24       		.byte	36
 3849 019f 00       		.byte	0
 3850 01a0 03       		.byte	3
 3851 01a1 20       		.byte	32
 3852 01a2 23       		.byte	35
 3853 01a3 03       		.byte	3
 3854 01a4 48       		.byte	72
 3855 01a5 00       		.byte	0
 3856 01a6 90       		.byte	-112
 3857 01a7 A0       		.byte	-96
 3858 01a8 B4       		.byte	-76
 3859 01a9 54       		.byte	84
 3860 01aa 90       		.byte	-112
 3861 01ab 00       		.byte	0
 3862 01ac 00       		.byte	0
 3863 01ad 00       		.byte	0
 3864 01ae 00       		.byte	0
 3865 01af 00       		.byte	0
 3866 01b0 00       		.byte	0
 3867 01b1 41       		.byte	65
 3868 01b2 41       		.byte	65
 3869 01b3 01       		.byte	1
 3870 01b4 49       		.byte	73
 3871 01b5 81       		.byte	-127
 3872 01b6 4B       		.byte	75
 3873 01b7 49       		.byte	73
 3874 01b8 41       		.byte	65
 3875 01b9 40       		.byte	64
 3876 01ba 48       		.byte	72
 3877 01bb 6A       		.byte	106
 3878 01bc 48       		.byte	72
 3879 01bd 43       		.byte	67
 3880 01be 43       		.byte	67
 3881 01bf 41       		.byte	65
 3882 01c0 09       		.byte	9
 3883 01c1 49       		.byte	73
 3884 01c2 42       		.byte	66
 3885 01c3 22       		.byte	34
 3886 01c4 4B       		.byte	75
 3887 01c5 40       		.byte	64
 3888 01c6 80       		.byte	-128
 3889 01c7 40       		.byte	64
 3890 01c8 B4       		.byte	-76
 3891 01c9 49       		.byte	73
 3892 01ca 81       		.byte	-127
ARM GAS  C:\Users\Esteban\AppData\Local\Temp\ccHxlO6N.s 			page 137


 3893 01cb 00       		.byte	0
 3894 01cc 00       		.byte	0
 3895 01cd 00       		.byte	0
 3896 01ce 00       		.byte	0
 3897 01cf 00       		.byte	0
 3898              		.type	Segments_16SegASCIILow.5644, %object
 3899              		.size	Segments_16SegASCIILow.5644, 96
 3900              	Segments_16SegASCIILow.5644:
 3901 01d0 00       		.byte	0
 3902 01d1 C0       		.byte	-64
 3903 01d2 80       		.byte	-128
 3904 01d3 00       		.byte	0
 3905 01d4 00       		.byte	0
 3906 01d5 00       		.byte	0
 3907 01d6 00       		.byte	0
 3908 01d7 80       		.byte	-128
 3909 01d8 00       		.byte	0
 3910 01d9 00       		.byte	0
 3911 01da 00       		.byte	0
 3912 01db 00       		.byte	0
 3913 01dc 00       		.byte	0
 3914 01dd 00       		.byte	0
 3915 01de 00       		.byte	0
 3916 01df 00       		.byte	0
 3917 01e0 FF       		.byte	-1
 3918 01e1 0C       		.byte	12
 3919 01e2 77       		.byte	119
 3920 01e3 3F       		.byte	63
 3921 01e4 8C       		.byte	-116
 3922 01e5 BB       		.byte	-69
 3923 01e6 FB       		.byte	-5
 3924 01e7 0F       		.byte	15
 3925 01e8 FF       		.byte	-1
 3926 01e9 8F       		.byte	-113
 3927 01ea 00       		.byte	0
 3928 01eb 00       		.byte	0
 3929 01ec 00       		.byte	0
 3930 01ed 30       		.byte	48
 3931 01ee 00       		.byte	0
 3932 01ef 07       		.byte	7
 3933 01f0 00       		.byte	0
 3934 01f1 CF       		.byte	-49
 3935 01f2 3F       		.byte	63
 3936 01f3 F3       		.byte	-13
 3937 01f4 3F       		.byte	63
 3938 01f5 F3       		.byte	-13
 3939 01f6 C3       		.byte	-61
 3940 01f7 FB       		.byte	-5
 3941 01f8 CC       		.byte	-52
 3942 01f9 33       		.byte	51
 3943 01fa 7C       		.byte	124
 3944 01fb C0       		.byte	-64
 3945 01fc F0       		.byte	-16
 3946 01fd CC       		.byte	-52
 3947 01fe CC       		.byte	-52
 3948 01ff FF       		.byte	-1
 3949 0200 C7       		.byte	-57
ARM GAS  C:\Users\Esteban\AppData\Local\Temp\ccHxlO6N.s 			page 138


 3950 0201 FF       		.byte	-1
 3951 0202 C7       		.byte	-57
 3952 0203 BB       		.byte	-69
 3953 0204 03       		.byte	3
 3954 0205 FC       		.byte	-4
 3955 0206 C0       		.byte	-64
 3956 0207 CC       		.byte	-52
 3957 0208 00       		.byte	0
 3958 0209 00       		.byte	0
 3959 020a 33       		.byte	51
 3960 020b 00       		.byte	0
 3961 020c 00       		.byte	0
 3962 020d 00       		.byte	0
 3963 020e 00       		.byte	0
 3964 020f 30       		.byte	48
 3965 0210 00       		.byte	0
 3966 0211 70       		.byte	112
 3967 0212 E0       		.byte	-32
 3968 0213 60       		.byte	96
 3969 0214 60       		.byte	96
 3970 0215 60       		.byte	96
 3971 0216 02       		.byte	2
 3972 0217 A1       		.byte	-95
 3973 0218 C0       		.byte	-64
 3974 0219 00       		.byte	0
 3975 021a 20       		.byte	32
 3976 021b 00       		.byte	0
 3977 021c 00       		.byte	0
 3978 021d 48       		.byte	72
 3979 021e 08       		.byte	8
 3980 021f 60       		.byte	96
 3981 0220 C1       		.byte	-63
 3982 0221 91       		.byte	-111
 3983 0222 00       		.byte	0
 3984 0223 10       		.byte	16
 3985 0224 00       		.byte	0
 3986 0225 70       		.byte	112
 3987 0226 40       		.byte	64
 3988 0227 78       		.byte	120
 3989 0228 00       		.byte	0
 3990 0229 A0       		.byte	-96
 3991 022a 20       		.byte	32
 3992 022b 00       		.byte	0
 3993 022c 00       		.byte	0
 3994 022d 00       		.byte	0
 3995 022e 00       		.byte	0
 3996 022f 00       		.byte	0
 3997              		.type	Segments_tempCom.5655, %object
 3998              		.size	Segments_tempCom.5655, 16
 3999              	Segments_tempCom.5655:
 4000 0230 00       		.byte	0
 4001 0231 01       		.byte	1
 4002 0232 00       		.byte	0
 4003 0233 02       		.byte	2
 4004 0234 00       		.byte	0
 4005 0235 04       		.byte	4
 4006 0236 00       		.byte	0
ARM GAS  C:\Users\Esteban\AppData\Local\Temp\ccHxlO6N.s 			page 139


 4007 0237 08       		.byte	8
 4008 0238 00       		.byte	0
 4009 0239 10       		.byte	16
 4010 023a 00       		.byte	0
 4011 023b 20       		.byte	32
 4012 023c 00       		.byte	0
 4013 023d 40       		.byte	64
 4014 023e 00       		.byte	0
 4015 023f 80       		.byte	-128
 4016              		.data
 4017              		.align	2
 4018              		.set	.LANCHOR1,. + 0
 4019              		.type	Segments_comBuffer, %object
 4020              		.size	Segments_comBuffer, 16
 4021              	Segments_comBuffer:
 4022 0000 00       		.byte	0
 4023 0001 01       		.byte	1
 4024 0002 00       		.byte	0
 4025 0003 02       		.byte	2
 4026 0004 00       		.byte	0
 4027 0005 04       		.byte	4
 4028 0006 00       		.byte	0
 4029 0007 08       		.byte	8
 4030 0008 00       		.byte	0
 4031 0009 10       		.byte	16
 4032 000a 00       		.byte	0
 4033 000b 20       		.byte	32
 4034 000c 00       		.byte	0
 4035 000d 40       		.byte	64
 4036 000e 00       		.byte	0
 4037 000f 80       		.byte	-128
 4038              		.bss
 4039              		.align	2
 4040              		.set	.LANCHOR0,. + 0
 4041              		.type	Segments_dmaComChannel, %object
 4042              		.size	Segments_dmaComChannel, 1
 4043              	Segments_dmaComChannel:
 4044 0000 00       		.space	1
 4045 0001 000000   		.space	3
 4046              		.type	Segments_dmaComTd, %object
 4047              		.size	Segments_dmaComTd, 8
 4048              	Segments_dmaComTd:
 4049 0004 00000000 		.space	8
 4049      00000000 
 4050              		.type	Segments_dmaSegChannel, %object
 4051              		.size	Segments_dmaSegChannel, 1
 4052              	Segments_dmaSegChannel:
 4053 000c 00       		.space	1
 4054 000d 000000   		.space	3
 4055              		.type	Segments_dmaSegLTd, %object
 4056              		.size	Segments_dmaSegLTd, 4
 4057              	Segments_dmaSegLTd:
 4058 0010 00000000 		.space	4
 4059              		.type	Segments_dmaBCChannel, %object
 4060              		.size	Segments_dmaBCChannel, 1
 4061              	Segments_dmaBCChannel:
 4062 0014 00       		.space	1
ARM GAS  C:\Users\Esteban\AppData\Local\Temp\ccHxlO6N.s 			page 140


 4063              		.type	Segments_dmaBCTd, %object
 4064              		.size	Segments_dmaBCTd, 1
 4065              	Segments_dmaBCTd:
 4066 0015 00       		.space	1
 4067 0016 0000     		.space	2
 4068              		.type	Segments_brightnessReg, %object
 4069              		.size	Segments_brightnessReg, 4
 4070              	Segments_brightnessReg:
 4071 0018 00000000 		.space	4
 4072              		.type	Segments_enableVar, %object
 4073              		.size	Segments_enableVar, 1
 4074              	Segments_enableVar:
 4075 001c 00       		.space	1
 4076              		.type	Segments_dmaInitDone.5263, %object
 4077              		.size	Segments_dmaInitDone.5263, 1
 4078              	Segments_dmaInitDone.5263:
 4079 001d 00       		.space	1
 4080              		.type	Segments_initVar, %object
 4081              		.size	Segments_initVar, 1
 4082              	Segments_initVar:
 4083 001e 00       		.space	1
 4084              		.text
 4085              	.Letext0:
 4086              		.file 2 "Generated_Source\\PSoC5/cytypes.h"
 4087              		.file 3 "Generated_Source\\PSoC5/CYDMAC.H"
 4088              		.file 4 "Generated_Source\\PSoC5/Segments_DMA_Com_dma.h"
 4089              		.file 5 "Generated_Source\\PSoC5/Segments_DMA_Seg_dma.h"
 4090              		.file 6 "Generated_Source\\PSoC5/Segments_DMA_BC_dma.h"
 4091              		.file 7 "Generated_Source\\PSoC5/Segments_Com_Driver.h"
 4092              		.file 8 "c:\\program files (x86)\\cypress\\psoc creator\\4.4\\psoc creator\\import\\gnu\\arm\\5.4.
 4093              		.section	.debug_info,"",%progbits
 4094              	.Ldebug_info0:
 4095 0000 8D160000 		.4byte	0x168d
 4096 0004 0400     		.2byte	0x4
 4097 0006 00000000 		.4byte	.Ldebug_abbrev0
 4098 000a 04       		.byte	0x4
 4099 000b 01       		.uleb128 0x1
 4100 000c F1020000 		.4byte	.LASF135
 4101 0010 0C       		.byte	0xc
 4102 0011 45090000 		.4byte	.LASF136
 4103 0015 6E060000 		.4byte	.LASF137
 4104 0019 00000000 		.4byte	.Ldebug_ranges0+0
 4105 001d 00000000 		.4byte	0
 4106 0021 00000000 		.4byte	.Ldebug_line0
 4107 0025 02       		.uleb128 0x2
 4108 0026 01       		.byte	0x1
 4109 0027 06       		.byte	0x6
 4110 0028 03090000 		.4byte	.LASF0
 4111 002c 02       		.uleb128 0x2
 4112 002d 01       		.byte	0x1
 4113 002e 08       		.byte	0x8
 4114 002f 46080000 		.4byte	.LASF1
 4115 0033 02       		.uleb128 0x2
 4116 0034 02       		.byte	0x2
 4117 0035 05       		.byte	0x5
 4118 0036 17070000 		.4byte	.LASF2
 4119 003a 02       		.uleb128 0x2
ARM GAS  C:\Users\Esteban\AppData\Local\Temp\ccHxlO6N.s 			page 141


 4120 003b 02       		.byte	0x2
 4121 003c 07       		.byte	0x7
 4122 003d 32090000 		.4byte	.LASF3
 4123 0041 02       		.uleb128 0x2
 4124 0042 04       		.byte	0x4
 4125 0043 05       		.byte	0x5
 4126 0044 3D070000 		.4byte	.LASF4
 4127 0048 02       		.uleb128 0x2
 4128 0049 04       		.byte	0x4
 4129 004a 07       		.byte	0x7
 4130 004b F0070000 		.4byte	.LASF5
 4131 004f 02       		.uleb128 0x2
 4132 0050 08       		.byte	0x8
 4133 0051 05       		.byte	0x5
 4134 0052 54050000 		.4byte	.LASF6
 4135 0056 02       		.uleb128 0x2
 4136 0057 08       		.byte	0x8
 4137 0058 07       		.byte	0x7
 4138 0059 7B020000 		.4byte	.LASF7
 4139 005d 03       		.uleb128 0x3
 4140 005e 04       		.byte	0x4
 4141 005f 05       		.byte	0x5
 4142 0060 696E7400 		.ascii	"int\000"
 4143 0064 02       		.uleb128 0x2
 4144 0065 04       		.byte	0x4
 4145 0066 07       		.byte	0x7
 4146 0067 16010000 		.4byte	.LASF8
 4147 006b 04       		.uleb128 0x4
 4148 006c 70090000 		.4byte	.LASF9
 4149 0070 02       		.byte	0x2
 4150 0071 E801     		.2byte	0x1e8
 4151 0073 2C000000 		.4byte	0x2c
 4152 0077 04       		.uleb128 0x4
 4153 0078 D6040000 		.4byte	.LASF10
 4154 007c 02       		.byte	0x2
 4155 007d E901     		.2byte	0x1e9
 4156 007f 3A000000 		.4byte	0x3a
 4157 0083 04       		.uleb128 0x4
 4158 0084 F1050000 		.4byte	.LASF11
 4159 0088 02       		.byte	0x2
 4160 0089 EA01     		.2byte	0x1ea
 4161 008b 48000000 		.4byte	0x48
 4162 008f 04       		.uleb128 0x4
 4163 0090 75020000 		.4byte	.LASF12
 4164 0094 02       		.byte	0x2
 4165 0095 ED01     		.2byte	0x1ed
 4166 0097 41000000 		.4byte	0x41
 4167 009b 02       		.uleb128 0x2
 4168 009c 04       		.byte	0x4
 4169 009d 04       		.byte	0x4
 4170 009e 52020000 		.4byte	.LASF13
 4171 00a2 02       		.uleb128 0x2
 4172 00a3 08       		.byte	0x8
 4173 00a4 04       		.byte	0x4
 4174 00a5 76090000 		.4byte	.LASF14
 4175 00a9 04       		.uleb128 0x4
 4176 00aa F1040000 		.4byte	.LASF15
ARM GAS  C:\Users\Esteban\AppData\Local\Temp\ccHxlO6N.s 			page 142


 4177 00ae 02       		.byte	0x2
 4178 00af F901     		.2byte	0x1f9
 4179 00b1 B5000000 		.4byte	0xb5
 4180 00b5 02       		.uleb128 0x2
 4181 00b6 01       		.byte	0x1
 4182 00b7 08       		.byte	0x8
 4183 00b8 B7040000 		.4byte	.LASF16
 4184 00bc 04       		.uleb128 0x4
 4185 00bd 56010000 		.4byte	.LASF17
 4186 00c1 02       		.byte	0x2
 4187 00c2 9202     		.2byte	0x292
 4188 00c4 C8000000 		.4byte	0xc8
 4189 00c8 05       		.uleb128 0x5
 4190 00c9 6B000000 		.4byte	0x6b
 4191 00cd 06       		.uleb128 0x6
 4192 00ce 6B000000 		.4byte	0x6b
 4193 00d2 DD000000 		.4byte	0xdd
 4194 00d6 07       		.uleb128 0x7
 4195 00d7 DD000000 		.4byte	0xdd
 4196 00db 03       		.byte	0x3
 4197 00dc 00       		.byte	0
 4198 00dd 02       		.uleb128 0x2
 4199 00de 04       		.byte	0x4
 4200 00df 07       		.byte	0x7
 4201 00e0 E7070000 		.4byte	.LASF18
 4202 00e4 02       		.uleb128 0x2
 4203 00e5 08       		.byte	0x8
 4204 00e6 04       		.byte	0x4
 4205 00e7 2D060000 		.4byte	.LASF19
 4206 00eb 08       		.uleb128 0x8
 4207 00ec 0F090000 		.4byte	.LASF138
 4208 00f0 10       		.byte	0x10
 4209 00f1 03       		.byte	0x3
 4210 00f2 47       		.byte	0x47
 4211 00f3 28010000 		.4byte	0x128
 4212 00f7 09       		.uleb128 0x9
 4213 00f8 E7040000 		.4byte	.LASF20
 4214 00fc 03       		.byte	0x3
 4215 00fd 49       		.byte	0x49
 4216 00fe 38010000 		.4byte	0x138
 4217 0102 00       		.byte	0
 4218 0103 09       		.uleb128 0x9
 4219 0104 83070000 		.4byte	.LASF21
 4220 0108 03       		.byte	0x3
 4221 0109 4A       		.byte	0x4a
 4222 010a 3D010000 		.4byte	0x13d
 4223 010e 04       		.byte	0x4
 4224 010f 09       		.uleb128 0x9
 4225 0110 B3000000 		.4byte	.LASF22
 4226 0114 03       		.byte	0x3
 4227 0115 4B       		.byte	0x4b
 4228 0116 42010000 		.4byte	0x142
 4229 011a 08       		.byte	0x8
 4230 011b 09       		.uleb128 0x9
 4231 011c 67090000 		.4byte	.LASF23
 4232 0120 03       		.byte	0x3
 4233 0121 4C       		.byte	0x4c
ARM GAS  C:\Users\Esteban\AppData\Local\Temp\ccHxlO6N.s 			page 143


 4234 0122 47010000 		.4byte	0x147
 4235 0126 0C       		.byte	0xc
 4236 0127 00       		.byte	0
 4237 0128 06       		.uleb128 0x6
 4238 0129 C8000000 		.4byte	0xc8
 4239 012d 38010000 		.4byte	0x138
 4240 0131 07       		.uleb128 0x7
 4241 0132 DD000000 		.4byte	0xdd
 4242 0136 03       		.byte	0x3
 4243 0137 00       		.byte	0
 4244 0138 05       		.uleb128 0x5
 4245 0139 28010000 		.4byte	0x128
 4246 013d 05       		.uleb128 0x5
 4247 013e 28010000 		.4byte	0x128
 4248 0142 05       		.uleb128 0x5
 4249 0143 28010000 		.4byte	0x128
 4250 0147 05       		.uleb128 0x5
 4251 0148 28010000 		.4byte	0x128
 4252 014c 0A       		.uleb128 0xa
 4253 014d 9A080000 		.4byte	.LASF24
 4254 0151 03       		.byte	0x3
 4255 0152 4E       		.byte	0x4e
 4256 0153 EB000000 		.4byte	0xeb
 4257 0157 0B       		.uleb128 0xb
 4258 0158 8C000000 		.4byte	.LASF25
 4259 015c 01       		.byte	0x1
 4260 015d 58       		.byte	0x58
 4261 015e 00000000 		.4byte	.LFB0
 4262 0162 60010000 		.4byte	.LFE0-.LFB0
 4263 0166 01       		.uleb128 0x1
 4264 0167 9C       		.byte	0x9c
 4265 0168 F0020000 		.4byte	0x2f0
 4266 016c 0C       		.uleb128 0xc
 4267 016d 6900     		.ascii	"i\000"
 4268 016f 01       		.byte	0x1
 4269 0170 5A       		.byte	0x5a
 4270 0171 6B000000 		.4byte	0x6b
 4271 0175 00000000 		.4byte	.LLST0
 4272 0179 0D       		.uleb128 0xd
 4273 017a 12000000 		.4byte	.LVL0
 4274 017e 0C160000 		.4byte	0x160c
 4275 0182 9F010000 		.4byte	0x19f
 4276 0186 0E       		.uleb128 0xe
 4277 0187 01       		.uleb128 0x1
 4278 0188 50       		.byte	0x50
 4279 0189 01       		.uleb128 0x1
 4280 018a 31       		.byte	0x31
 4281 018b 0E       		.uleb128 0xe
 4282 018c 01       		.uleb128 0x1
 4283 018d 51       		.byte	0x51
 4284 018e 01       		.uleb128 0x1
 4285 018f 31       		.byte	0x31
 4286 0190 0E       		.uleb128 0xe
 4287 0191 01       		.uleb128 0x1
 4288 0192 52       		.byte	0x52
 4289 0193 03       		.uleb128 0x3
 4290 0194 0A       		.byte	0xa
ARM GAS  C:\Users\Esteban\AppData\Local\Temp\ccHxlO6N.s 			page 144


 4291 0195 FF1F     		.2byte	0x1fff
 4292 0197 0E       		.uleb128 0xe
 4293 0198 01       		.uleb128 0x1
 4294 0199 53       		.byte	0x53
 4295 019a 03       		.uleb128 0x3
 4296 019b 0A       		.byte	0xa
 4297 019c 0040     		.2byte	0x4000
 4298 019e 00       		.byte	0
 4299 019f 0F       		.uleb128 0xf
 4300 01a0 20000000 		.4byte	.LVL2
 4301 01a4 17160000 		.4byte	0x1617
 4302 01a8 0D       		.uleb128 0xd
 4303 01a9 50000000 		.4byte	.LVL9
 4304 01ad 22160000 		.4byte	0x1622
 4305 01b1 C0010000 		.4byte	0x1c0
 4306 01b5 0E       		.uleb128 0xe
 4307 01b6 01       		.uleb128 0x1
 4308 01b7 51       		.byte	0x51
 4309 01b8 01       		.uleb128 0x1
 4310 01b9 31       		.byte	0x31
 4311 01ba 0E       		.uleb128 0xe
 4312 01bb 01       		.uleb128 0x1
 4313 01bc 53       		.byte	0x53
 4314 01bd 01       		.uleb128 0x1
 4315 01be 31       		.byte	0x31
 4316 01bf 00       		.byte	0
 4317 01c0 0D       		.uleb128 0xd
 4318 01c1 66000000 		.4byte	.LVL10
 4319 01c5 22160000 		.4byte	0x1622
 4320 01c9 D8010000 		.4byte	0x1d8
 4321 01cd 0E       		.uleb128 0xe
 4322 01ce 01       		.uleb128 0x1
 4323 01cf 51       		.byte	0x51
 4324 01d0 01       		.uleb128 0x1
 4325 01d1 31       		.byte	0x31
 4326 01d2 0E       		.uleb128 0xe
 4327 01d3 01       		.uleb128 0x1
 4328 01d4 53       		.byte	0x53
 4329 01d5 01       		.uleb128 0x1
 4330 01d6 31       		.byte	0x31
 4331 01d7 00       		.byte	0
 4332 01d8 0D       		.uleb128 0xd
 4333 01d9 7C000000 		.4byte	.LVL13
 4334 01dd 22160000 		.4byte	0x1622
 4335 01e1 F0010000 		.4byte	0x1f0
 4336 01e5 0E       		.uleb128 0xe
 4337 01e6 01       		.uleb128 0x1
 4338 01e7 51       		.byte	0x51
 4339 01e8 01       		.uleb128 0x1
 4340 01e9 31       		.byte	0x31
 4341 01ea 0E       		.uleb128 0xe
 4342 01eb 01       		.uleb128 0x1
 4343 01ec 53       		.byte	0x53
 4344 01ed 01       		.uleb128 0x1
 4345 01ee 31       		.byte	0x31
 4346 01ef 00       		.byte	0
 4347 01f0 0D       		.uleb128 0xd
ARM GAS  C:\Users\Esteban\AppData\Local\Temp\ccHxlO6N.s 			page 145


 4348 01f1 94000000 		.4byte	.LVL15
 4349 01f5 2D160000 		.4byte	0x162d
 4350 01f9 11020000 		.4byte	0x211
 4351 01fd 0E       		.uleb128 0xe
 4352 01fe 01       		.uleb128 0x1
 4353 01ff 51       		.byte	0x51
 4354 0200 08       		.uleb128 0x8
 4355 0201 74       		.byte	0x74
 4356 0202 00       		.sleb128 0
 4357 0203 03       		.byte	0x3
 4358 0204 00000000 		.4byte	.LANCHOR1
 4359 0208 22       		.byte	0x22
 4360 0209 0E       		.uleb128 0xe
 4361 020a 01       		.uleb128 0x1
 4362 020b 52       		.byte	0x52
 4363 020c 03       		.uleb128 0x3
 4364 020d 0A       		.byte	0xa
 4365 020e 7565     		.2byte	0x6575
 4366 0210 00       		.byte	0
 4367 0211 0D       		.uleb128 0xd
 4368 0212 AC000000 		.4byte	.LVL19
 4369 0216 38160000 		.4byte	0x1638
 4370 021a 37020000 		.4byte	0x237
 4371 021e 0E       		.uleb128 0xe
 4372 021f 01       		.uleb128 0x1
 4373 0220 50       		.byte	0x50
 4374 0221 01       		.uleb128 0x1
 4375 0222 31       		.byte	0x31
 4376 0223 0E       		.uleb128 0xe
 4377 0224 01       		.uleb128 0x1
 4378 0225 51       		.byte	0x51
 4379 0226 01       		.uleb128 0x1
 4380 0227 31       		.byte	0x31
 4381 0228 0E       		.uleb128 0xe
 4382 0229 01       		.uleb128 0x1
 4383 022a 52       		.byte	0x52
 4384 022b 03       		.uleb128 0x3
 4385 022c 0A       		.byte	0xa
 4386 022d FF1F     		.2byte	0x1fff
 4387 022f 0E       		.uleb128 0xe
 4388 0230 01       		.uleb128 0x1
 4389 0231 53       		.byte	0x53
 4390 0232 03       		.uleb128 0x3
 4391 0233 0A       		.byte	0xa
 4392 0234 0040     		.2byte	0x4000
 4393 0236 00       		.byte	0
 4394 0237 0F       		.uleb128 0xf
 4395 0238 BA000000 		.4byte	.LVL21
 4396 023c 17160000 		.4byte	0x1617
 4397 0240 0D       		.uleb128 0xd
 4398 0241 E4000000 		.4byte	.LVL28
 4399 0245 22160000 		.4byte	0x1622
 4400 0249 58020000 		.4byte	0x258
 4401 024d 0E       		.uleb128 0xe
 4402 024e 01       		.uleb128 0x1
 4403 024f 51       		.byte	0x51
 4404 0250 01       		.uleb128 0x1
ARM GAS  C:\Users\Esteban\AppData\Local\Temp\ccHxlO6N.s 			page 146


 4405 0251 31       		.byte	0x31
 4406 0252 0E       		.uleb128 0xe
 4407 0253 01       		.uleb128 0x1
 4408 0254 53       		.byte	0x53
 4409 0255 01       		.uleb128 0x1
 4410 0256 35       		.byte	0x35
 4411 0257 00       		.byte	0
 4412 0258 0D       		.uleb128 0xd
 4413 0259 F8000000 		.4byte	.LVL31
 4414 025d 22160000 		.4byte	0x1622
 4415 0261 70020000 		.4byte	0x270
 4416 0265 0E       		.uleb128 0xe
 4417 0266 01       		.uleb128 0x1
 4418 0267 51       		.byte	0x51
 4419 0268 01       		.uleb128 0x1
 4420 0269 31       		.byte	0x31
 4421 026a 0E       		.uleb128 0xe
 4422 026b 01       		.uleb128 0x1
 4423 026c 53       		.byte	0x53
 4424 026d 01       		.uleb128 0x1
 4425 026e 35       		.byte	0x35
 4426 026f 00       		.byte	0
 4427 0270 0D       		.uleb128 0xd
 4428 0271 10010000 		.4byte	.LVL33
 4429 0275 2D160000 		.4byte	0x162d
 4430 0279 91020000 		.4byte	0x291
 4431 027d 0E       		.uleb128 0xe
 4432 027e 01       		.uleb128 0x1
 4433 027f 51       		.byte	0x51
 4434 0280 08       		.uleb128 0x8
 4435 0281 74       		.byte	0x74
 4436 0282 00       		.sleb128 0
 4437 0283 03       		.byte	0x3
 4438 0284 00000000 		.4byte	Segments_segLBuffer
 4439 0288 22       		.byte	0x22
 4440 0289 0E       		.uleb128 0xe
 4441 028a 01       		.uleb128 0x1
 4442 028b 52       		.byte	0x52
 4443 028c 03       		.uleb128 0x3
 4444 028d 0A       		.byte	0xa
 4445 028e 7A64     		.2byte	0x647a
 4446 0290 00       		.byte	0
 4447 0291 0D       		.uleb128 0xd
 4448 0292 28010000 		.4byte	.LVL37
 4449 0296 43160000 		.4byte	0x1643
 4450 029a B7020000 		.4byte	0x2b7
 4451 029e 0E       		.uleb128 0xe
 4452 029f 01       		.uleb128 0x1
 4453 02a0 50       		.byte	0x50
 4454 02a1 01       		.uleb128 0x1
 4455 02a2 31       		.byte	0x31
 4456 02a3 0E       		.uleb128 0xe
 4457 02a4 01       		.uleb128 0x1
 4458 02a5 51       		.byte	0x51
 4459 02a6 01       		.uleb128 0x1
 4460 02a7 31       		.byte	0x31
 4461 02a8 0E       		.uleb128 0xe
ARM GAS  C:\Users\Esteban\AppData\Local\Temp\ccHxlO6N.s 			page 147


 4462 02a9 01       		.uleb128 0x1
 4463 02aa 52       		.byte	0x52
 4464 02ab 03       		.uleb128 0x3
 4465 02ac 0A       		.byte	0xa
 4466 02ad FF1F     		.2byte	0x1fff
 4467 02af 0E       		.uleb128 0xe
 4468 02b0 01       		.uleb128 0x1
 4469 02b1 53       		.byte	0x53
 4470 02b2 03       		.uleb128 0x3
 4471 02b3 0A       		.byte	0xa
 4472 02b4 0040     		.2byte	0x4000
 4473 02b6 00       		.byte	0
 4474 02b7 0F       		.uleb128 0xf
 4475 02b8 34010000 		.4byte	.LVL38
 4476 02bc 17160000 		.4byte	0x1617
 4477 02c0 0D       		.uleb128 0xd
 4478 02c1 42010000 		.4byte	.LVL39
 4479 02c5 22160000 		.4byte	0x1622
 4480 02c9 D8020000 		.4byte	0x2d8
 4481 02cd 0E       		.uleb128 0xe
 4482 02ce 01       		.uleb128 0x1
 4483 02cf 51       		.byte	0x51
 4484 02d0 01       		.uleb128 0x1
 4485 02d1 34       		.byte	0x34
 4486 02d2 0E       		.uleb128 0xe
 4487 02d3 01       		.uleb128 0x1
 4488 02d4 53       		.byte	0x53
 4489 02d5 01       		.uleb128 0x1
 4490 02d6 31       		.byte	0x31
 4491 02d7 00       		.byte	0
 4492 02d8 10       		.uleb128 0x10
 4493 02d9 52010000 		.4byte	.LVL40
 4494 02dd 2D160000 		.4byte	0x162d
 4495 02e1 0E       		.uleb128 0xe
 4496 02e2 01       		.uleb128 0x1
 4497 02e3 51       		.byte	0x51
 4498 02e4 02       		.uleb128 0x2
 4499 02e5 74       		.byte	0x74
 4500 02e6 18       		.sleb128 24
 4501 02e7 0E       		.uleb128 0xe
 4502 02e8 01       		.uleb128 0x1
 4503 02e9 52       		.byte	0x52
 4504 02ea 03       		.uleb128 0x3
 4505 02eb 0A       		.byte	0xa
 4506 02ec 2465     		.2byte	0x6524
 4507 02ee 00       		.byte	0
 4508 02ef 00       		.byte	0
 4509 02f0 11       		.uleb128 0x11
 4510 02f1 41050000 		.4byte	.LASF26
 4511 02f5 01       		.byte	0x1
 4512 02f6 1101     		.2byte	0x111
 4513 02f8 00000000 		.4byte	.LFB1
 4514 02fc 3C000000 		.4byte	.LFE1-.LFB1
 4515 0300 01       		.uleb128 0x1
 4516 0301 9C       		.byte	0x9c
 4517 0302 57030000 		.4byte	0x357
 4518 0306 0F       		.uleb128 0xf
ARM GAS  C:\Users\Esteban\AppData\Local\Temp\ccHxlO6N.s 			page 148


 4519 0307 0C000000 		.4byte	.LVL41
 4520 030b 4E160000 		.4byte	0x164e
 4521 030f 0F       		.uleb128 0xf
 4522 0310 14000000 		.4byte	.LVL42
 4523 0314 4E160000 		.4byte	0x164e
 4524 0318 0F       		.uleb128 0xf
 4525 0319 1C000000 		.4byte	.LVL43
 4526 031d 4E160000 		.4byte	0x164e
 4527 0321 0D       		.uleb128 0xd
 4528 0322 24000000 		.4byte	.LVL44
 4529 0326 59160000 		.4byte	0x1659
 4530 032a 34030000 		.4byte	0x334
 4531 032e 0E       		.uleb128 0xe
 4532 032f 01       		.uleb128 0x1
 4533 0330 51       		.byte	0x51
 4534 0331 01       		.uleb128 0x1
 4535 0332 31       		.byte	0x31
 4536 0333 00       		.byte	0
 4537 0334 0D       		.uleb128 0xd
 4538 0335 2C000000 		.4byte	.LVL45
 4539 0339 59160000 		.4byte	0x1659
 4540 033d 47030000 		.4byte	0x347
 4541 0341 0E       		.uleb128 0xe
 4542 0342 01       		.uleb128 0x1
 4543 0343 51       		.byte	0x51
 4544 0344 01       		.uleb128 0x1
 4545 0345 31       		.byte	0x31
 4546 0346 00       		.byte	0
 4547 0347 10       		.uleb128 0x10
 4548 0348 34000000 		.4byte	.LVL46
 4549 034c 59160000 		.4byte	0x1659
 4550 0350 0E       		.uleb128 0xe
 4551 0351 01       		.uleb128 0x1
 4552 0352 51       		.byte	0x51
 4553 0353 01       		.uleb128 0x1
 4554 0354 31       		.byte	0x31
 4555 0355 00       		.byte	0
 4556 0356 00       		.byte	0
 4557 0357 11       		.uleb128 0x11
 4558 0358 79050000 		.4byte	.LASF27
 4559 035c 01       		.byte	0x1
 4560 035d 3501     		.2byte	0x135
 4561 035f 00000000 		.4byte	.LFB2
 4562 0363 6C000000 		.4byte	.LFE2-.LFB2
 4563 0367 01       		.uleb128 0x1
 4564 0368 9C       		.byte	0x9c
 4565 0369 F0030000 		.4byte	0x3f0
 4566 036d 12       		.uleb128 0x12
 4567 036e 6900     		.ascii	"i\000"
 4568 0370 01       		.byte	0x1
 4569 0371 3701     		.2byte	0x137
 4570 0373 6B000000 		.4byte	0x6b
 4571 0377 BA000000 		.4byte	.LLST1
 4572 037b 13       		.uleb128 0x13
 4573 037c F3060000 		.4byte	.LASF28
 4574 0380 01       		.byte	0x1
 4575 0381 3801     		.2byte	0x138
ARM GAS  C:\Users\Esteban\AppData\Local\Temp\ccHxlO6N.s 			page 149


 4576 0383 6B000000 		.4byte	0x6b
 4577 0387 E4000000 		.4byte	.LLST2
 4578 038b 14       		.uleb128 0x14
 4579 038c A4030000 		.4byte	.LASF29
 4580 0390 01       		.byte	0x1
 4581 0391 3901     		.2byte	0x139
 4582 0393 F0030000 		.4byte	0x3f0
 4583 0397 02       		.uleb128 0x2
 4584 0398 91       		.byte	0x91
 4585 0399 6C       		.sleb128 -20
 4586 039a 0D       		.uleb128 0xd
 4587 039b 2A000000 		.4byte	.LVL50
 4588 039f 64160000 		.4byte	0x1664
 4589 03a3 AE030000 		.4byte	0x3ae
 4590 03a7 0E       		.uleb128 0xe
 4591 03a8 01       		.uleb128 0x1
 4592 03a9 50       		.byte	0x50
 4593 03aa 02       		.uleb128 0x2
 4594 03ab 75       		.byte	0x75
 4595 03ac 00       		.sleb128 0
 4596 03ad 00       		.byte	0
 4597 03ae 0D       		.uleb128 0xd
 4598 03af 30000000 		.4byte	.LVL51
 4599 03b3 6F160000 		.4byte	0x166f
 4600 03b7 C1030000 		.4byte	0x3c1
 4601 03bb 0E       		.uleb128 0xe
 4602 03bc 01       		.uleb128 0x1
 4603 03bd 50       		.byte	0x50
 4604 03be 01       		.uleb128 0x1
 4605 03bf 30       		.byte	0x30
 4606 03c0 00       		.byte	0
 4607 03c1 0D       		.uleb128 0xd
 4608 03c2 46000000 		.4byte	.LVL52
 4609 03c6 7A160000 		.4byte	0x167a
 4610 03ca DA030000 		.4byte	0x3da
 4611 03ce 0E       		.uleb128 0xe
 4612 03cf 01       		.uleb128 0x1
 4613 03d0 50       		.byte	0x50
 4614 03d1 02       		.uleb128 0x2
 4615 03d2 75       		.byte	0x75
 4616 03d3 00       		.sleb128 0
 4617 03d4 0E       		.uleb128 0xe
 4618 03d5 01       		.uleb128 0x1
 4619 03d6 51       		.byte	0x51
 4620 03d7 01       		.uleb128 0x1
 4621 03d8 34       		.byte	0x34
 4622 03d9 00       		.byte	0
 4623 03da 10       		.uleb128 0x10
 4624 03db 4E000000 		.4byte	.LVL53
 4625 03df 59160000 		.4byte	0x1659
 4626 03e3 0E       		.uleb128 0xe
 4627 03e4 01       		.uleb128 0x1
 4628 03e5 50       		.byte	0x50
 4629 03e6 02       		.uleb128 0x2
 4630 03e7 75       		.byte	0x75
 4631 03e8 00       		.sleb128 0
 4632 03e9 0E       		.uleb128 0xe
ARM GAS  C:\Users\Esteban\AppData\Local\Temp\ccHxlO6N.s 			page 150


 4633 03ea 01       		.uleb128 0x1
 4634 03eb 51       		.byte	0x51
 4635 03ec 01       		.uleb128 0x1
 4636 03ed 31       		.byte	0x31
 4637 03ee 00       		.byte	0
 4638 03ef 00       		.byte	0
 4639 03f0 06       		.uleb128 0x6
 4640 03f1 6B000000 		.4byte	0x6b
 4641 03f5 00040000 		.4byte	0x400
 4642 03f9 07       		.uleb128 0x7
 4643 03fa DD000000 		.4byte	0xdd
 4644 03fe 02       		.byte	0x2
 4645 03ff 00       		.byte	0
 4646 0400 15       		.uleb128 0x15
 4647 0401 45040000 		.4byte	.LASF30
 4648 0405 01       		.byte	0x1
 4649 0406 9601     		.2byte	0x196
 4650 0408 00000000 		.4byte	.LFB4
 4651 040c 24000000 		.4byte	.LFE4-.LFB4
 4652 0410 01       		.uleb128 0x1
 4653 0411 9C       		.byte	0x9c
 4654 0412 20040000 		.4byte	0x420
 4655 0416 0F       		.uleb128 0xf
 4656 0417 06000000 		.4byte	.LVL57
 4657 041b F0020000 		.4byte	0x2f0
 4658 041f 00       		.byte	0
 4659 0420 15       		.uleb128 0x15
 4660 0421 9F050000 		.4byte	.LASF31
 4661 0425 01       		.byte	0x1
 4662 0426 FE01     		.2byte	0x1fe
 4663 0428 00000000 		.4byte	.LFB7
 4664 042c 10000000 		.4byte	.LFE7-.LFB7
 4665 0430 01       		.uleb128 0x1
 4666 0431 9C       		.byte	0x9c
 4667 0432 63040000 		.4byte	0x463
 4668 0436 16       		.uleb128 0x16
 4669 0437 D2020000 		.4byte	.LASF32
 4670 043b 01       		.byte	0x1
 4671 043c FE01     		.2byte	0x1fe
 4672 043e 6B000000 		.4byte	0x6b
 4673 0442 01       		.uleb128 0x1
 4674 0443 50       		.byte	0x50
 4675 0444 16       		.uleb128 0x16
 4676 0445 FD090000 		.4byte	.LASF33
 4677 0449 01       		.byte	0x1
 4678 044a FE01     		.2byte	0x1fe
 4679 044c 6B000000 		.4byte	0x6b
 4680 0450 01       		.uleb128 0x1
 4681 0451 51       		.byte	0x51
 4682 0452 13       		.uleb128 0x13
 4683 0453 1F0A0000 		.4byte	.LASF34
 4684 0457 01       		.byte	0x1
 4685 0458 0002     		.2byte	0x200
 4686 045a 6B000000 		.4byte	0x6b
 4687 045e F7000000 		.4byte	.LLST3
 4688 0462 00       		.byte	0
 4689 0463 15       		.uleb128 0x15
ARM GAS  C:\Users\Esteban\AppData\Local\Temp\ccHxlO6N.s 			page 151


 4690 0464 F0000000 		.4byte	.LASF35
 4691 0468 01       		.byte	0x1
 4692 0469 3A02     		.2byte	0x23a
 4693 046b 00000000 		.4byte	.LFB8
 4694 046f 1C000000 		.4byte	.LFE8-.LFB8
 4695 0473 01       		.uleb128 0x1
 4696 0474 9C       		.byte	0x9c
 4697 0475 A8040000 		.4byte	0x4a8
 4698 0479 17       		.uleb128 0x17
 4699 047a 726F7700 		.ascii	"row\000"
 4700 047e 01       		.byte	0x1
 4701 047f 3A02     		.2byte	0x23a
 4702 0481 6B000000 		.4byte	0x6b
 4703 0485 0A010000 		.4byte	.LLST4
 4704 0489 16       		.uleb128 0x16
 4705 048a 8A070000 		.4byte	.LASF36
 4706 048e 01       		.byte	0x1
 4707 048f 3A02     		.2byte	0x23a
 4708 0491 6B000000 		.4byte	0x6b
 4709 0495 01       		.uleb128 0x1
 4710 0496 51       		.byte	0x51
 4711 0497 13       		.uleb128 0x13
 4712 0498 3B010000 		.4byte	.LASF37
 4713 049c 01       		.byte	0x1
 4714 049d 3C02     		.2byte	0x23c
 4715 049f 6B000000 		.4byte	0x6b
 4716 04a3 2B010000 		.4byte	.LLST5
 4717 04a7 00       		.byte	0
 4718 04a8 15       		.uleb128 0x15
 4719 04a9 B3030000 		.4byte	.LASF38
 4720 04ad 01       		.byte	0x1
 4721 04ae 7602     		.2byte	0x276
 4722 04b0 00000000 		.4byte	.LFB9
 4723 04b4 20000000 		.4byte	.LFE9-.LFB9
 4724 04b8 01       		.uleb128 0x1
 4725 04b9 9C       		.byte	0x9c
 4726 04ba FD040000 		.4byte	0x4fd
 4727 04be 17       		.uleb128 0x17
 4728 04bf 726F7700 		.ascii	"row\000"
 4729 04c3 01       		.byte	0x1
 4730 04c4 7602     		.2byte	0x276
 4731 04c6 6B000000 		.4byte	0x6b
 4732 04ca 4C010000 		.4byte	.LLST6
 4733 04ce 16       		.uleb128 0x16
 4734 04cf 8A070000 		.4byte	.LASF36
 4735 04d3 01       		.byte	0x1
 4736 04d4 7602     		.2byte	0x276
 4737 04d6 6B000000 		.4byte	0x6b
 4738 04da 01       		.uleb128 0x1
 4739 04db 51       		.byte	0x51
 4740 04dc 13       		.uleb128 0x13
 4741 04dd 3B010000 		.4byte	.LASF37
 4742 04e1 01       		.byte	0x1
 4743 04e2 7802     		.2byte	0x278
 4744 04e4 6B000000 		.4byte	0x6b
 4745 04e8 6D010000 		.4byte	.LLST7
 4746 04ec 13       		.uleb128 0x13
ARM GAS  C:\Users\Esteban\AppData\Local\Temp\ccHxlO6N.s 			page 152


 4747 04ed DD040000 		.4byte	.LASF39
 4748 04f1 01       		.byte	0x1
 4749 04f2 7902     		.2byte	0x279
 4750 04f4 6B000000 		.4byte	0x6b
 4751 04f8 8E010000 		.4byte	.LLST8
 4752 04fc 00       		.byte	0
 4753 04fd 15       		.uleb128 0x15
 4754 04fe 19020000 		.4byte	.LASF40
 4755 0502 01       		.byte	0x1
 4756 0503 B602     		.2byte	0x2b6
 4757 0505 00000000 		.4byte	.LFB10
 4758 0509 1C000000 		.4byte	.LFE10-.LFB10
 4759 050d 01       		.uleb128 0x1
 4760 050e 9C       		.byte	0x9c
 4761 050f 42050000 		.4byte	0x542
 4762 0513 17       		.uleb128 0x17
 4763 0514 726F7700 		.ascii	"row\000"
 4764 0518 01       		.byte	0x1
 4765 0519 B602     		.2byte	0x2b6
 4766 051b 6B000000 		.4byte	0x6b
 4767 051f A1010000 		.4byte	.LLST9
 4768 0523 16       		.uleb128 0x16
 4769 0524 8A070000 		.4byte	.LASF36
 4770 0528 01       		.byte	0x1
 4771 0529 B602     		.2byte	0x2b6
 4772 052b 6B000000 		.4byte	0x6b
 4773 052f 01       		.uleb128 0x1
 4774 0530 51       		.byte	0x51
 4775 0531 13       		.uleb128 0x13
 4776 0532 3B010000 		.4byte	.LASF37
 4777 0536 01       		.byte	0x1
 4778 0537 B802     		.2byte	0x2b8
 4779 0539 6B000000 		.4byte	0x6b
 4780 053d C2010000 		.4byte	.LLST10
 4781 0541 00       		.byte	0
 4782 0542 18       		.uleb128 0x18
 4783 0543 92020000 		.4byte	.LASF50
 4784 0547 01       		.byte	0x1
 4785 0548 E602     		.2byte	0x2e6
 4786 054a 6B000000 		.4byte	0x6b
 4787 054e 00000000 		.4byte	.LFB11
 4788 0552 24000000 		.4byte	.LFE11-.LFB11
 4789 0556 01       		.uleb128 0x1
 4790 0557 9C       		.byte	0x9c
 4791 0558 AB050000 		.4byte	0x5ab
 4792 055c 17       		.uleb128 0x17
 4793 055d 726F7700 		.ascii	"row\000"
 4794 0561 01       		.byte	0x1
 4795 0562 E602     		.2byte	0x2e6
 4796 0564 6B000000 		.4byte	0x6b
 4797 0568 E3010000 		.4byte	.LLST11
 4798 056c 16       		.uleb128 0x16
 4799 056d 8A070000 		.4byte	.LASF36
 4800 0571 01       		.byte	0x1
 4801 0572 E602     		.2byte	0x2e6
 4802 0574 6B000000 		.4byte	0x6b
 4803 0578 01       		.uleb128 0x1
ARM GAS  C:\Users\Esteban\AppData\Local\Temp\ccHxlO6N.s 			page 153


 4804 0579 51       		.byte	0x51
 4805 057a 13       		.uleb128 0x13
 4806 057b 0D040000 		.4byte	.LASF41
 4807 057f 01       		.byte	0x1
 4808 0580 E802     		.2byte	0x2e8
 4809 0582 6B000000 		.4byte	0x6b
 4810 0586 36020000 		.4byte	.LLST12
 4811 058a 13       		.uleb128 0x13
 4812 058b 3B010000 		.4byte	.LASF37
 4813 058f 01       		.byte	0x1
 4814 0590 E902     		.2byte	0x2e9
 4815 0592 6B000000 		.4byte	0x6b
 4816 0596 6C020000 		.4byte	.LLST13
 4817 059a 13       		.uleb128 0x13
 4818 059b FF000000 		.4byte	.LASF42
 4819 059f 01       		.byte	0x1
 4820 05a0 EA02     		.2byte	0x2ea
 4821 05a2 6B000000 		.4byte	0x6b
 4822 05a6 8D020000 		.4byte	.LLST14
 4823 05aa 00       		.byte	0
 4824 05ab 15       		.uleb128 0x15
 4825 05ac 3C020000 		.4byte	.LASF43
 4826 05b0 01       		.byte	0x1
 4827 05b1 1F03     		.2byte	0x31f
 4828 05b3 00000000 		.4byte	.LFB12
 4829 05b7 10000000 		.4byte	.LFE12-.LFB12
 4830 05bb 01       		.uleb128 0x1
 4831 05bc 9C       		.byte	0x9c
 4832 05bd E0050000 		.4byte	0x5e0
 4833 05c1 16       		.uleb128 0x16
 4834 05c2 FD090000 		.4byte	.LASF33
 4835 05c6 01       		.byte	0x1
 4836 05c7 1F03     		.2byte	0x31f
 4837 05c9 6B000000 		.4byte	0x6b
 4838 05cd 01       		.uleb128 0x1
 4839 05ce 50       		.byte	0x50
 4840 05cf 13       		.uleb128 0x13
 4841 05d0 1F0A0000 		.4byte	.LASF34
 4842 05d4 01       		.byte	0x1
 4843 05d5 2103     		.2byte	0x321
 4844 05d7 6B000000 		.4byte	0x6b
 4845 05db CF020000 		.4byte	.LLST15
 4846 05df 00       		.byte	0
 4847 05e0 15       		.uleb128 0x15
 4848 05e1 66000000 		.4byte	.LASF44
 4849 05e5 01       		.byte	0x1
 4850 05e6 4D03     		.2byte	0x34d
 4851 05e8 00000000 		.4byte	.LFB13
 4852 05ec 18000000 		.4byte	.LFE13-.LFB13
 4853 05f0 01       		.uleb128 0x1
 4854 05f1 9C       		.byte	0x9c
 4855 05f2 07060000 		.4byte	0x607
 4856 05f6 13       		.uleb128 0x13
 4857 05f7 FD090000 		.4byte	.LASF33
 4858 05fb 01       		.byte	0x1
 4859 05fc 4F03     		.2byte	0x34f
 4860 05fe 6B000000 		.4byte	0x6b
ARM GAS  C:\Users\Esteban\AppData\Local\Temp\ccHxlO6N.s 			page 154


 4861 0602 E2020000 		.4byte	.LLST16
 4862 0606 00       		.byte	0
 4863 0607 15       		.uleb128 0x15
 4864 0608 75070000 		.4byte	.LASF45
 4865 060c 01       		.byte	0x1
 4866 060d 6A01     		.2byte	0x16a
 4867 060f 00000000 		.4byte	.LFB3
 4868 0613 30000000 		.4byte	.LFE3-.LFB3
 4869 0617 01       		.uleb128 0x1
 4870 0618 9C       		.byte	0x9c
 4871 0619 50060000 		.4byte	0x650
 4872 061d 14       		.uleb128 0x14
 4873 061e B5070000 		.4byte	.LASF46
 4874 0622 01       		.byte	0x1
 4875 0623 6C01     		.2byte	0x16c
 4876 0625 6B000000 		.4byte	0x6b
 4877 0629 05       		.uleb128 0x5
 4878 062a 03       		.byte	0x3
 4879 062b 1D000000 		.4byte	Segments_dmaInitDone.5263
 4880 062f 12       		.uleb128 0x12
 4881 0630 6900     		.ascii	"i\000"
 4882 0632 01       		.byte	0x1
 4883 0633 6E01     		.2byte	0x16e
 4884 0635 6B000000 		.4byte	0x6b
 4885 0639 0C030000 		.4byte	.LLST17
 4886 063d 0F       		.uleb128 0xf
 4887 063e 06000000 		.4byte	.LVL91
 4888 0642 E0050000 		.4byte	0x5e0
 4889 0646 0F       		.uleb128 0xf
 4890 0647 10000000 		.4byte	.LVL92
 4891 064b 57010000 		.4byte	0x157
 4892 064f 00       		.byte	0
 4893 0650 15       		.uleb128 0x15
 4894 0651 D1030000 		.4byte	.LASF47
 4895 0655 01       		.byte	0x1
 4896 0656 BC01     		.2byte	0x1bc
 4897 0658 00000000 		.4byte	.LFB5
 4898 065c 1C000000 		.4byte	.LFE5-.LFB5
 4899 0660 01       		.uleb128 0x1
 4900 0661 9C       		.byte	0x9c
 4901 0662 79060000 		.4byte	0x679
 4902 0666 0F       		.uleb128 0xf
 4903 0667 0C000000 		.4byte	.LVL97
 4904 066b 07060000 		.4byte	0x607
 4905 066f 0F       		.uleb128 0xf
 4906 0670 16000000 		.4byte	.LVL98
 4907 0674 00040000 		.4byte	0x400
 4908 0678 00       		.byte	0
 4909 0679 15       		.uleb128 0x15
 4910 067a A1020000 		.4byte	.LASF48
 4911 067e 01       		.byte	0x1
 4912 067f DA01     		.2byte	0x1da
 4913 0681 00000000 		.4byte	.LFB6
 4914 0685 20000000 		.4byte	.LFE6-.LFB6
 4915 0689 01       		.uleb128 0x1
 4916 068a 9C       		.byte	0x9c
 4917 068b A2060000 		.4byte	0x6a2
ARM GAS  C:\Users\Esteban\AppData\Local\Temp\ccHxlO6N.s 			page 155


 4918 068f 0F       		.uleb128 0xf
 4919 0690 0C000000 		.4byte	.LVL99
 4920 0694 57030000 		.4byte	0x357
 4921 0698 0F       		.uleb128 0xf
 4922 0699 10000000 		.4byte	.LVL100
 4923 069d E0050000 		.4byte	0x5e0
 4924 06a1 00       		.byte	0
 4925 06a2 15       		.uleb128 0x15
 4926 06a3 55060000 		.4byte	.LASF49
 4927 06a7 01       		.byte	0x1
 4928 06a8 3709     		.2byte	0x937
 4929 06aa 00000000 		.4byte	.LFB32
 4930 06ae 24000000 		.4byte	.LFE32-.LFB32
 4931 06b2 01       		.uleb128 0x1
 4932 06b3 9C       		.byte	0x9c
 4933 06b4 F2060000 		.4byte	0x6f2
 4934 06b8 19       		.uleb128 0x19
 4935 06b9 647000   		.ascii	"dp\000"
 4936 06bc 01       		.byte	0x1
 4937 06bd 3709     		.2byte	0x937
 4938 06bf 6B000000 		.4byte	0x6b
 4939 06c3 01       		.uleb128 0x1
 4940 06c4 50       		.byte	0x50
 4941 06c5 16       		.uleb128 0x16
 4942 06c6 FD090000 		.4byte	.LASF33
 4943 06ca 01       		.byte	0x1
 4944 06cb 3709     		.2byte	0x937
 4945 06cd 6B000000 		.4byte	0x6b
 4946 06d1 01       		.uleb128 0x1
 4947 06d2 51       		.byte	0x51
 4948 06d3 1A       		.uleb128 0x1a
 4949 06d4 D2020000 		.4byte	.LASF32
 4950 06d8 01       		.byte	0x1
 4951 06d9 3A09     		.2byte	0x93a
 4952 06db 6B000000 		.4byte	0x6b
 4953 06df 807F     		.sleb128 -128
 4954 06e1 13       		.uleb128 0x13
 4955 06e2 1F0A0000 		.4byte	.LASF34
 4956 06e6 01       		.byte	0x1
 4957 06e7 3B09     		.2byte	0x93b
 4958 06e9 6B000000 		.4byte	0x6b
 4959 06ed 2A030000 		.4byte	.LLST18
 4960 06f1 00       		.byte	0
 4961 06f2 18       		.uleb128 0x18
 4962 06f3 F4030000 		.4byte	.LASF51
 4963 06f7 01       		.byte	0x1
 4964 06f8 9909     		.2byte	0x999
 4965 06fa 6B000000 		.4byte	0x6b
 4966 06fe 00000000 		.4byte	.LFB33
 4967 0702 14000000 		.4byte	.LFE33-.LFB33
 4968 0706 01       		.uleb128 0x1
 4969 0707 9C       		.byte	0x9c
 4970 0708 4B070000 		.4byte	0x74b
 4971 070c 1B       		.uleb128 0x1b
 4972 070d FD090000 		.4byte	.LASF33
 4973 0711 01       		.byte	0x1
 4974 0712 9909     		.2byte	0x999
ARM GAS  C:\Users\Esteban\AppData\Local\Temp\ccHxlO6N.s 			page 156


 4975 0714 6B000000 		.4byte	0x6b
 4976 0718 3D030000 		.4byte	.LLST19
 4977 071c 14       		.uleb128 0x14
 4978 071d D2020000 		.4byte	.LASF32
 4979 0721 01       		.byte	0x1
 4980 0722 9B09     		.2byte	0x99b
 4981 0724 6B000000 		.4byte	0x6b
 4982 0728 01       		.uleb128 0x1
 4983 0729 50       		.byte	0x50
 4984 072a 13       		.uleb128 0x13
 4985 072b 1F0A0000 		.4byte	.LASF34
 4986 072f 01       		.byte	0x1
 4987 0730 9C09     		.2byte	0x99c
 4988 0732 6B000000 		.4byte	0x6b
 4989 0736 77030000 		.4byte	.LLST20
 4990 073a 13       		.uleb128 0x13
 4991 073b 93050000 		.4byte	.LASF52
 4992 073f 01       		.byte	0x1
 4993 0740 9D09     		.2byte	0x99d
 4994 0742 6B000000 		.4byte	0x6b
 4995 0746 98030000 		.4byte	.LLST21
 4996 074a 00       		.byte	0
 4997 074b 18       		.uleb128 0x18
 4998 074c 87090000 		.4byte	.LASF53
 4999 0750 01       		.byte	0x1
 5000 0751 D609     		.2byte	0x9d6
 5001 0753 6B000000 		.4byte	0x6b
 5002 0757 00000000 		.4byte	.LFB34
 5003 075b 10000000 		.4byte	.LFE34-.LFB34
 5004 075f 01       		.uleb128 0x1
 5005 0760 9C       		.byte	0x9c
 5006 0761 A8070000 		.4byte	0x7a8
 5007 0765 1B       		.uleb128 0x1b
 5008 0766 AE070000 		.4byte	.LASF54
 5009 076a 01       		.byte	0x1
 5010 076b D609     		.2byte	0x9d6
 5011 076d 6B000000 		.4byte	0x6b
 5012 0771 CE030000 		.4byte	.LLST22
 5013 0775 14       		.uleb128 0x14
 5014 0776 54080000 		.4byte	.LASF55
 5015 077a 01       		.byte	0x1
 5016 077b DA09     		.2byte	0x9da
 5017 077d BD070000 		.4byte	0x7bd
 5018 0781 05       		.uleb128 0x5
 5019 0782 03       		.byte	0x3
 5020 0783 00000000 		.4byte	Segments_7SegDigits.5603
 5021 0787 13       		.uleb128 0x13
 5022 0788 AB010000 		.4byte	.LASF56
 5023 078c 01       		.byte	0x1
 5024 078d EF09     		.2byte	0x9ef
 5025 078f 6B000000 		.4byte	0x6b
 5026 0793 EF030000 		.4byte	.LLST23
 5027 0797 13       		.uleb128 0x13
 5028 0798 A7070000 		.4byte	.LASF57
 5029 079c 01       		.byte	0x1
 5030 079d F009     		.2byte	0x9f0
 5031 079f 6B000000 		.4byte	0x6b
ARM GAS  C:\Users\Esteban\AppData\Local\Temp\ccHxlO6N.s 			page 157


 5032 07a3 02040000 		.4byte	.LLST24
 5033 07a7 00       		.byte	0
 5034 07a8 06       		.uleb128 0x6
 5035 07a9 B8070000 		.4byte	0x7b8
 5036 07ad B8070000 		.4byte	0x7b8
 5037 07b1 07       		.uleb128 0x7
 5038 07b2 DD000000 		.4byte	0xdd
 5039 07b6 0F       		.byte	0xf
 5040 07b7 00       		.byte	0
 5041 07b8 1C       		.uleb128 0x1c
 5042 07b9 6B000000 		.4byte	0x6b
 5043 07bd 1C       		.uleb128 0x1c
 5044 07be A8070000 		.4byte	0x7a8
 5045 07c2 15       		.uleb128 0x15
 5046 07c3 0D080000 		.4byte	.LASF58
 5047 07c7 01       		.byte	0x1
 5048 07c8 6004     		.2byte	0x460
 5049 07ca 00000000 		.4byte	.LFB15
 5050 07ce 24010000 		.4byte	.LFE15-.LFB15
 5051 07d2 01       		.uleb128 0x1
 5052 07d3 9C       		.byte	0x9c
 5053 07d4 98080000 		.4byte	0x898
 5054 07d8 1B       		.uleb128 0x1b
 5055 07d9 AE070000 		.4byte	.LASF54
 5056 07dd 01       		.byte	0x1
 5057 07de 6004     		.2byte	0x460
 5058 07e0 83000000 		.4byte	0x83
 5059 07e4 27040000 		.4byte	.LLST25
 5060 07e8 1B       		.uleb128 0x1b
 5061 07e9 FD090000 		.4byte	.LASF33
 5062 07ed 01       		.byte	0x1
 5063 07ee 6004     		.2byte	0x460
 5064 07f0 6B000000 		.4byte	0x6b
 5065 07f4 48040000 		.4byte	.LLST26
 5066 07f8 1B       		.uleb128 0x1b
 5067 07f9 AF020000 		.4byte	.LASF59
 5068 07fd 01       		.byte	0x1
 5069 07fe 6004     		.2byte	0x460
 5070 0800 6B000000 		.4byte	0x6b
 5071 0804 69040000 		.4byte	.LLST27
 5072 0808 1B       		.uleb128 0x1b
 5073 0809 7D090000 		.4byte	.LASF60
 5074 080d 01       		.byte	0x1
 5075 080e 6004     		.2byte	0x460
 5076 0810 6B000000 		.4byte	0x6b
 5077 0814 8A040000 		.4byte	.LLST28
 5078 0818 12       		.uleb128 0x12
 5079 0819 6900     		.ascii	"i\000"
 5080 081b 01       		.byte	0x1
 5081 081c 6304     		.2byte	0x463
 5082 081e 6B000000 		.4byte	0x6b
 5083 0822 AB040000 		.4byte	.LLST29
 5084 0826 13       		.uleb128 0x13
 5085 0827 1F0A0000 		.4byte	.LASF34
 5086 082b 01       		.byte	0x1
 5087 082c 6404     		.2byte	0x464
 5088 082e 6B000000 		.4byte	0x6b
ARM GAS  C:\Users\Esteban\AppData\Local\Temp\ccHxlO6N.s 			page 158


 5089 0832 00050000 		.4byte	.LLST30
 5090 0836 13       		.uleb128 0x13
 5091 0837 FB060000 		.4byte	.LASF61
 5092 083b 01       		.byte	0x1
 5093 083c 6504     		.2byte	0x465
 5094 083e 6B000000 		.4byte	0x6b
 5095 0842 3F050000 		.4byte	.LLST31
 5096 0846 13       		.uleb128 0x13
 5097 0847 0C010000 		.4byte	.LASF62
 5098 084b 01       		.byte	0x1
 5099 084c 6604     		.2byte	0x466
 5100 084e 6B000000 		.4byte	0x6b
 5101 0852 6A050000 		.4byte	.LLST32
 5102 0856 13       		.uleb128 0x13
 5103 0857 BA090000 		.4byte	.LASF63
 5104 085b 01       		.byte	0x1
 5105 085c 6704     		.2byte	0x467
 5106 085e 6B000000 		.4byte	0x6b
 5107 0862 81050000 		.4byte	.LLST33
 5108 0866 14       		.uleb128 0x14
 5109 0867 FA080000 		.4byte	.LASF64
 5110 086b 01       		.byte	0x1
 5111 086c 6804     		.2byte	0x468
 5112 086e 98080000 		.4byte	0x898
 5113 0872 02       		.uleb128 0x2
 5114 0873 91       		.byte	0x91
 5115 0874 58       		.sleb128 -40
 5116 0875 13       		.uleb128 0x13
 5117 0876 E0030000 		.4byte	.LASF65
 5118 087a 01       		.byte	0x1
 5119 087b 6904     		.2byte	0x469
 5120 087d 83000000 		.4byte	0x83
 5121 0881 C2050000 		.4byte	.LLST34
 5122 0885 10       		.uleb128 0x10
 5123 0886 3E000000 		.4byte	.LVL124
 5124 088a 4B070000 		.4byte	0x74b
 5125 088e 0E       		.uleb128 0xe
 5126 088f 01       		.uleb128 0x1
 5127 0890 50       		.byte	0x50
 5128 0891 04       		.uleb128 0x4
 5129 0892 79       		.byte	0x79
 5130 0893 00       		.sleb128 0
 5131 0894 3F       		.byte	0x3f
 5132 0895 1A       		.byte	0x1a
 5133 0896 00       		.byte	0
 5134 0897 00       		.byte	0
 5135 0898 06       		.uleb128 0x6
 5136 0899 6B000000 		.4byte	0x6b
 5137 089d A8080000 		.4byte	0x8a8
 5138 08a1 07       		.uleb128 0x7
 5139 08a2 DD000000 		.4byte	0xdd
 5140 08a6 07       		.byte	0x7
 5141 08a7 00       		.byte	0
 5142 08a8 15       		.uleb128 0x15
 5143 08a9 DB090000 		.4byte	.LASF66
 5144 08ad 01       		.byte	0x1
 5145 08ae 8705     		.2byte	0x587
ARM GAS  C:\Users\Esteban\AppData\Local\Temp\ccHxlO6N.s 			page 159


 5146 08b0 00000000 		.4byte	.LFB18
 5147 08b4 1C000000 		.4byte	.LFE18-.LFB18
 5148 08b8 01       		.uleb128 0x1
 5149 08b9 9C       		.byte	0x9c
 5150 08ba F8080000 		.4byte	0x8f8
 5151 08be 1B       		.uleb128 0x1b
 5152 08bf 8D050000 		.4byte	.LASF67
 5153 08c3 01       		.byte	0x1
 5154 08c4 8705     		.2byte	0x587
 5155 08c6 6B000000 		.4byte	0x6b
 5156 08ca E0050000 		.4byte	.LLST35
 5157 08ce 1B       		.uleb128 0x1b
 5158 08cf FD090000 		.4byte	.LASF33
 5159 08d3 01       		.byte	0x1
 5160 08d4 8705     		.2byte	0x587
 5161 08d6 6B000000 		.4byte	0x6b
 5162 08da 0C060000 		.4byte	.LLST36
 5163 08de 13       		.uleb128 0x13
 5164 08df 1F0A0000 		.4byte	.LASF34
 5165 08e3 01       		.byte	0x1
 5166 08e4 8A05     		.2byte	0x58a
 5167 08e6 6B000000 		.4byte	0x6b
 5168 08ea 38060000 		.4byte	.LLST37
 5169 08ee 0F       		.uleb128 0xf
 5170 08ef 10000000 		.4byte	.LVL150
 5171 08f3 4B070000 		.4byte	0x74b
 5172 08f7 00       		.byte	0
 5173 08f8 15       		.uleb128 0x15
 5174 08f9 F8050000 		.4byte	.LASF68
 5175 08fd 01       		.byte	0x1
 5176 08fe BC05     		.2byte	0x5bc
 5177 0900 00000000 		.4byte	.LFB19
 5178 0904 18000000 		.4byte	.LFE19-.LFB19
 5179 0908 01       		.uleb128 0x1
 5180 0909 9C       		.byte	0x9c
 5181 090a 48090000 		.4byte	0x948
 5182 090e 1B       		.uleb128 0x1b
 5183 090f 8D050000 		.4byte	.LASF67
 5184 0913 01       		.byte	0x1
 5185 0914 BC05     		.2byte	0x5bc
 5186 0916 6B000000 		.4byte	0x6b
 5187 091a 4B060000 		.4byte	.LLST38
 5188 091e 1B       		.uleb128 0x1b
 5189 091f FD090000 		.4byte	.LASF33
 5190 0923 01       		.byte	0x1
 5191 0924 BC05     		.2byte	0x5bc
 5192 0926 6B000000 		.4byte	0x6b
 5193 092a 77060000 		.4byte	.LLST39
 5194 092e 13       		.uleb128 0x13
 5195 092f 1F0A0000 		.4byte	.LASF34
 5196 0933 01       		.byte	0x1
 5197 0934 BF05     		.2byte	0x5bf
 5198 0936 6B000000 		.4byte	0x6b
 5199 093a A3060000 		.4byte	.LLST40
 5200 093e 0F       		.uleb128 0xf
 5201 093f 0C000000 		.4byte	.LVL154
 5202 0943 4B070000 		.4byte	0x74b
ARM GAS  C:\Users\Esteban\AppData\Local\Temp\ccHxlO6N.s 			page 160


 5203 0947 00       		.byte	0
 5204 0948 18       		.uleb128 0x18
 5205 0949 29050000 		.4byte	.LASF69
 5206 094d 01       		.byte	0x1
 5207 094e 100A     		.2byte	0xa10
 5208 0950 6B000000 		.4byte	0x6b
 5209 0954 00000000 		.4byte	.LFB35
 5210 0958 24000000 		.4byte	.LFE35-.LFB35
 5211 095c 01       		.uleb128 0x1
 5212 095d 9C       		.byte	0x9c
 5213 095e B5090000 		.4byte	0x9b5
 5214 0962 1B       		.uleb128 0x1b
 5215 0963 7F000000 		.4byte	.LASF70
 5216 0967 01       		.byte	0x1
 5217 0968 100A     		.2byte	0xa10
 5218 096a A9000000 		.4byte	0xa9
 5219 096e B6060000 		.4byte	.LLST41
 5220 0972 14       		.uleb128 0x14
 5221 0973 5B010000 		.4byte	.LASF71
 5222 0977 01       		.byte	0x1
 5223 0978 140A     		.2byte	0xa14
 5224 097a CB090000 		.4byte	0x9cb
 5225 097e 05       		.uleb128 0x5
 5226 097f 03       		.byte	0x3
 5227 0980 10000000 		.4byte	Segments_7SegASCII.5609
 5228 0984 13       		.uleb128 0x13
 5229 0985 F6090000 		.4byte	.LASF72
 5230 0989 01       		.byte	0x1
 5231 098a 7D0A     		.2byte	0xa7d
 5232 098c 6B000000 		.4byte	0x6b
 5233 0990 D7060000 		.4byte	.LLST42
 5234 0994 13       		.uleb128 0x13
 5235 0995 3D040000 		.4byte	.LASF73
 5236 0999 01       		.byte	0x1
 5237 099a 7E0A     		.2byte	0xa7e
 5238 099c 6B000000 		.4byte	0x6b
 5239 09a0 F5060000 		.4byte	.LLST43
 5240 09a4 13       		.uleb128 0x13
 5241 09a5 A7070000 		.4byte	.LASF57
 5242 09a9 01       		.byte	0x1
 5243 09aa 7F0A     		.2byte	0xa7f
 5244 09ac 6B000000 		.4byte	0x6b
 5245 09b0 20070000 		.4byte	.LLST44
 5246 09b4 00       		.byte	0
 5247 09b5 06       		.uleb128 0x6
 5248 09b6 B8070000 		.4byte	0x7b8
 5249 09ba CB090000 		.4byte	0x9cb
 5250 09be 07       		.uleb128 0x7
 5251 09bf DD000000 		.4byte	0xdd
 5252 09c3 05       		.byte	0x5
 5253 09c4 07       		.uleb128 0x7
 5254 09c5 DD000000 		.4byte	0xdd
 5255 09c9 0F       		.byte	0xf
 5256 09ca 00       		.byte	0
 5257 09cb 1C       		.uleb128 0x1c
 5258 09cc B5090000 		.4byte	0x9b5
 5259 09d0 15       		.uleb128 0x15
ARM GAS  C:\Users\Esteban\AppData\Local\Temp\ccHxlO6N.s 			page 161


 5260 09d1 CF010000 		.4byte	.LASF74
 5261 09d5 01       		.byte	0x1
 5262 09d6 8503     		.2byte	0x385
 5263 09d8 00000000 		.4byte	.LFB14
 5264 09dc 80010000 		.4byte	.LFE14-.LFB14
 5265 09e0 01       		.uleb128 0x1
 5266 09e1 9C       		.byte	0x9c
 5267 09e2 E50A0000 		.4byte	0xae5
 5268 09e6 1B       		.uleb128 0x1b
 5269 09e7 AE070000 		.4byte	.LASF54
 5270 09eb 01       		.byte	0x1
 5271 09ec 8503     		.2byte	0x385
 5272 09ee 8F000000 		.4byte	0x8f
 5273 09f2 3E070000 		.4byte	.LLST45
 5274 09f6 1B       		.uleb128 0x1b
 5275 09f7 FD090000 		.4byte	.LASF33
 5276 09fb 01       		.byte	0x1
 5277 09fc 8503     		.2byte	0x385
 5278 09fe 6B000000 		.4byte	0x6b
 5279 0a02 5F070000 		.4byte	.LLST46
 5280 0a06 1B       		.uleb128 0x1b
 5281 0a07 AF020000 		.4byte	.LASF59
 5282 0a0b 01       		.byte	0x1
 5283 0a0c 8503     		.2byte	0x385
 5284 0a0e 6B000000 		.4byte	0x6b
 5285 0a12 80070000 		.4byte	.LLST47
 5286 0a16 1B       		.uleb128 0x1b
 5287 0a17 7D090000 		.4byte	.LASF60
 5288 0a1b 01       		.byte	0x1
 5289 0a1c 8503     		.2byte	0x385
 5290 0a1e 6B000000 		.4byte	0x6b
 5291 0a22 BA070000 		.4byte	.LLST48
 5292 0a26 12       		.uleb128 0x12
 5293 0a27 6900     		.ascii	"i\000"
 5294 0a29 01       		.byte	0x1
 5295 0a2a 8803     		.2byte	0x388
 5296 0a2c 6B000000 		.4byte	0x6b
 5297 0a30 DB070000 		.4byte	.LLST49
 5298 0a34 13       		.uleb128 0x13
 5299 0a35 1F0A0000 		.4byte	.LASF34
 5300 0a39 01       		.byte	0x1
 5301 0a3a 8903     		.2byte	0x389
 5302 0a3c 6B000000 		.4byte	0x6b
 5303 0a40 67080000 		.4byte	.LLST50
 5304 0a44 13       		.uleb128 0x13
 5305 0a45 FB060000 		.4byte	.LASF61
 5306 0a49 01       		.byte	0x1
 5307 0a4a 8A03     		.2byte	0x38a
 5308 0a4c 6B000000 		.4byte	0x6b
 5309 0a50 A6080000 		.4byte	.LLST51
 5310 0a54 13       		.uleb128 0x13
 5311 0a55 C0080000 		.4byte	.LASF75
 5312 0a59 01       		.byte	0x1
 5313 0a5a 8B03     		.2byte	0x38b
 5314 0a5c 6B000000 		.4byte	0x6b
 5315 0a60 D1080000 		.4byte	.LLST52
 5316 0a64 13       		.uleb128 0x13
ARM GAS  C:\Users\Esteban\AppData\Local\Temp\ccHxlO6N.s 			page 162


 5317 0a65 0C010000 		.4byte	.LASF62
 5318 0a69 01       		.byte	0x1
 5319 0a6a 8C03     		.2byte	0x38c
 5320 0a6c 6B000000 		.4byte	0x6b
 5321 0a70 07090000 		.4byte	.LLST53
 5322 0a74 13       		.uleb128 0x13
 5323 0a75 BA090000 		.4byte	.LASF63
 5324 0a79 01       		.byte	0x1
 5325 0a7a 8D03     		.2byte	0x38d
 5326 0a7c 6B000000 		.4byte	0x6b
 5327 0a80 1A090000 		.4byte	.LLST54
 5328 0a84 14       		.uleb128 0x14
 5329 0a85 FA080000 		.4byte	.LASF64
 5330 0a89 01       		.byte	0x1
 5331 0a8a 8E03     		.2byte	0x38e
 5332 0a8c 98080000 		.4byte	0x898
 5333 0a90 02       		.uleb128 0x2
 5334 0a91 91       		.byte	0x91
 5335 0a92 58       		.sleb128 -40
 5336 0a93 13       		.uleb128 0x13
 5337 0a94 E0030000 		.4byte	.LASF65
 5338 0a98 01       		.byte	0x1
 5339 0a99 8F03     		.2byte	0x38f
 5340 0a9b 83000000 		.4byte	0x83
 5341 0a9f 71090000 		.4byte	.LLST55
 5342 0aa3 0F       		.uleb128 0xf
 5343 0aa4 60000000 		.4byte	.LVL182
 5344 0aa8 4B070000 		.4byte	0x74b
 5345 0aac 0D       		.uleb128 0xd
 5346 0aad 82000000 		.4byte	.LVL185
 5347 0ab1 48090000 		.4byte	0x948
 5348 0ab5 C00A0000 		.4byte	0xac0
 5349 0ab9 0E       		.uleb128 0xe
 5350 0aba 01       		.uleb128 0x1
 5351 0abb 50       		.byte	0x50
 5352 0abc 02       		.uleb128 0x2
 5353 0abd 08       		.byte	0x8
 5354 0abe 2D       		.byte	0x2d
 5355 0abf 00       		.byte	0
 5356 0ac0 0D       		.uleb128 0xd
 5357 0ac1 A4000000 		.4byte	.LVL187
 5358 0ac5 48090000 		.4byte	0x948
 5359 0ac9 D40A0000 		.4byte	0xad4
 5360 0acd 0E       		.uleb128 0xe
 5361 0ace 01       		.uleb128 0x1
 5362 0acf 50       		.byte	0x50
 5363 0ad0 02       		.uleb128 0x2
 5364 0ad1 08       		.byte	0x8
 5365 0ad2 2D       		.byte	0x2d
 5366 0ad3 00       		.byte	0
 5367 0ad4 10       		.uleb128 0x10
 5368 0ad5 B8000000 		.4byte	.LVL190
 5369 0ad9 48090000 		.4byte	0x948
 5370 0add 0E       		.uleb128 0xe
 5371 0ade 01       		.uleb128 0x1
 5372 0adf 50       		.byte	0x50
 5373 0ae0 02       		.uleb128 0x2
ARM GAS  C:\Users\Esteban\AppData\Local\Temp\ccHxlO6N.s 			page 163


 5374 0ae1 08       		.byte	0x8
 5375 0ae2 2D       		.byte	0x2d
 5376 0ae3 00       		.byte	0
 5377 0ae4 00       		.byte	0
 5378 0ae5 15       		.uleb128 0x15
 5379 0ae6 CB080000 		.4byte	.LASF76
 5380 0aea 01       		.byte	0x1
 5381 0aeb 0C05     		.2byte	0x50c
 5382 0aed 00000000 		.4byte	.LFB16
 5383 0af1 38000000 		.4byte	.LFE16-.LFB16
 5384 0af5 01       		.uleb128 0x1
 5385 0af6 9C       		.byte	0x9c
 5386 0af7 670B0000 		.4byte	0xb67
 5387 0afb 1B       		.uleb128 0x1b
 5388 0afc EA030000 		.4byte	.LASF77
 5389 0b00 01       		.byte	0x1
 5390 0b01 0C05     		.2byte	0x50c
 5391 0b03 670B0000 		.4byte	0xb67
 5392 0b07 A5090000 		.4byte	.LLST56
 5393 0b0b 1B       		.uleb128 0x1b
 5394 0b0c FD090000 		.4byte	.LASF33
 5395 0b10 01       		.byte	0x1
 5396 0b11 0C05     		.2byte	0x50c
 5397 0b13 6B000000 		.4byte	0x6b
 5398 0b17 CE090000 		.4byte	.LLST57
 5399 0b1b 13       		.uleb128 0x13
 5400 0b1c 1F0A0000 		.4byte	.LASF34
 5401 0b20 01       		.byte	0x1
 5402 0b21 0F05     		.2byte	0x50f
 5403 0b23 6B000000 		.4byte	0x6b
 5404 0b27 FA090000 		.4byte	.LLST58
 5405 0b2b 13       		.uleb128 0x13
 5406 0b2c 5D070000 		.4byte	.LASF78
 5407 0b30 01       		.byte	0x1
 5408 0b31 1005     		.2byte	0x510
 5409 0b33 6B000000 		.4byte	0x6b
 5410 0b37 180A0000 		.4byte	.LLST59
 5411 0b3b 12       		.uleb128 0x12
 5412 0b3c 6900     		.ascii	"i\000"
 5413 0b3e 01       		.byte	0x1
 5414 0b3f 1105     		.2byte	0x511
 5415 0b41 6B000000 		.4byte	0x6b
 5416 0b45 2B0A0000 		.4byte	.LLST60
 5417 0b49 0D       		.uleb128 0xd
 5418 0b4a 0E000000 		.4byte	.LVL216
 5419 0b4e 85160000 		.4byte	0x1685
 5420 0b52 5D0B0000 		.4byte	0xb5d
 5421 0b56 0E       		.uleb128 0xe
 5422 0b57 01       		.uleb128 0x1
 5423 0b58 50       		.byte	0x50
 5424 0b59 02       		.uleb128 0x2
 5425 0b5a 77       		.byte	0x77
 5426 0b5b 00       		.sleb128 0
 5427 0b5c 00       		.byte	0
 5428 0b5d 0F       		.uleb128 0xf
 5429 0b5e 20000000 		.4byte	.LVL219
 5430 0b62 48090000 		.4byte	0x948
ARM GAS  C:\Users\Esteban\AppData\Local\Temp\ccHxlO6N.s 			page 164


 5431 0b66 00       		.byte	0
 5432 0b67 1D       		.uleb128 0x1d
 5433 0b68 04       		.byte	0x4
 5434 0b69 6D0B0000 		.4byte	0xb6d
 5435 0b6d 1C       		.uleb128 0x1c
 5436 0b6e A9000000 		.4byte	0xa9
 5437 0b72 15       		.uleb128 0x15
 5438 0b73 1B000000 		.4byte	.LASF79
 5439 0b77 01       		.byte	0x1
 5440 0b78 5605     		.2byte	0x556
 5441 0b7a 00000000 		.4byte	.LFB17
 5442 0b7e 18000000 		.4byte	.LFE17-.LFB17
 5443 0b82 01       		.uleb128 0x1
 5444 0b83 9C       		.byte	0x9c
 5445 0b84 C20B0000 		.4byte	0xbc2
 5446 0b88 1B       		.uleb128 0x1b
 5447 0b89 EA030000 		.4byte	.LASF77
 5448 0b8d 01       		.byte	0x1
 5449 0b8e 5605     		.2byte	0x556
 5450 0b90 A9000000 		.4byte	0xa9
 5451 0b94 610A0000 		.4byte	.LLST61
 5452 0b98 1B       		.uleb128 0x1b
 5453 0b99 FD090000 		.4byte	.LASF33
 5454 0b9d 01       		.byte	0x1
 5455 0b9e 5605     		.2byte	0x556
 5456 0ba0 6B000000 		.4byte	0x6b
 5457 0ba4 8D0A0000 		.4byte	.LLST62
 5458 0ba8 13       		.uleb128 0x13
 5459 0ba9 1F0A0000 		.4byte	.LASF34
 5460 0bad 01       		.byte	0x1
 5461 0bae 5905     		.2byte	0x559
 5462 0bb0 6B000000 		.4byte	0x6b
 5463 0bb4 B90A0000 		.4byte	.LLST63
 5464 0bb8 0F       		.uleb128 0xf
 5465 0bb9 0C000000 		.4byte	.LVL227
 5466 0bbd 48090000 		.4byte	0x948
 5467 0bc1 00       		.byte	0
 5468 0bc2 18       		.uleb128 0x18
 5469 0bc3 68080000 		.4byte	.LASF80
 5470 0bc7 01       		.byte	0x1
 5471 0bc8 AD0A     		.2byte	0xaad
 5472 0bca 77000000 		.4byte	0x77
 5473 0bce 00000000 		.4byte	.LFB36
 5474 0bd2 1C000000 		.4byte	.LFE36-.LFB36
 5475 0bd6 01       		.uleb128 0x1
 5476 0bd7 9C       		.byte	0x9c
 5477 0bd8 4F0C0000 		.4byte	0xc4f
 5478 0bdc 1B       		.uleb128 0x1b
 5479 0bdd AE070000 		.4byte	.LASF54
 5480 0be1 01       		.byte	0x1
 5481 0be2 AD0A     		.2byte	0xaad
 5482 0be4 6B000000 		.4byte	0x6b
 5483 0be8 CC0A0000 		.4byte	.LLST64
 5484 0bec 14       		.uleb128 0x14
 5485 0bed 95040000 		.4byte	.LASF81
 5486 0bf1 01       		.byte	0x1
 5487 0bf2 B10A     		.2byte	0xab1
ARM GAS  C:\Users\Esteban\AppData\Local\Temp\ccHxlO6N.s 			page 165


 5488 0bf4 4F0C0000 		.4byte	0xc4f
 5489 0bf8 05       		.uleb128 0x5
 5490 0bf9 03       		.byte	0x3
 5491 0bfa 80000000 		.4byte	Segments_14SegDigitsLow.5616
 5492 0bfe 14       		.uleb128 0x14
 5493 0bff A1090000 		.4byte	.LASF82
 5494 0c03 01       		.byte	0x1
 5495 0c04 BC0A     		.2byte	0xabc
 5496 0c06 540C0000 		.4byte	0xc54
 5497 0c0a 05       		.uleb128 0x5
 5498 0c0b 03       		.byte	0x3
 5499 0c0c 70000000 		.4byte	Segments_14SegDigitsHigh.5617
 5500 0c10 13       		.uleb128 0x13
 5501 0c11 AB010000 		.4byte	.LASF56
 5502 0c15 01       		.byte	0x1
 5503 0c16 DD0A     		.2byte	0xadd
 5504 0c18 6B000000 		.4byte	0x6b
 5505 0c1c ED0A0000 		.4byte	.LLST65
 5506 0c20 14       		.uleb128 0x14
 5507 0c21 F6090000 		.4byte	.LASF72
 5508 0c25 01       		.byte	0x1
 5509 0c26 DE0A     		.2byte	0xade
 5510 0c28 77000000 		.4byte	0x77
 5511 0c2c 01       		.uleb128 0x1
 5512 0c2d 53       		.byte	0x53
 5513 0c2e 13       		.uleb128 0x13
 5514 0c2f 3D040000 		.4byte	.LASF73
 5515 0c33 01       		.byte	0x1
 5516 0c34 DF0A     		.2byte	0xadf
 5517 0c36 77000000 		.4byte	0x77
 5518 0c3a 000B0000 		.4byte	.LLST66
 5519 0c3e 13       		.uleb128 0x13
 5520 0c3f A7070000 		.4byte	.LASF57
 5521 0c43 01       		.byte	0x1
 5522 0c44 E00A     		.2byte	0xae0
 5523 0c46 77000000 		.4byte	0x77
 5524 0c4a 170B0000 		.4byte	.LLST67
 5525 0c4e 00       		.byte	0
 5526 0c4f 1C       		.uleb128 0x1c
 5527 0c50 A8070000 		.4byte	0x7a8
 5528 0c54 1C       		.uleb128 0x1c
 5529 0c55 A8070000 		.4byte	0x7a8
 5530 0c59 15       		.uleb128 0x15
 5531 0c5a 29080000 		.4byte	.LASF83
 5532 0c5e 01       		.byte	0x1
 5533 0c5f 9906     		.2byte	0x699
 5534 0c61 00000000 		.4byte	.LFB21
 5535 0c65 C8000000 		.4byte	.LFE21-.LFB21
 5536 0c69 01       		.uleb128 0x1
 5537 0c6a 9C       		.byte	0x9c
 5538 0c6b 0F0D0000 		.4byte	0xd0f
 5539 0c6f 1B       		.uleb128 0x1b
 5540 0c70 AE070000 		.4byte	.LASF54
 5541 0c74 01       		.byte	0x1
 5542 0c75 9906     		.2byte	0x699
 5543 0c77 83000000 		.4byte	0x83
 5544 0c7b 310B0000 		.4byte	.LLST68
ARM GAS  C:\Users\Esteban\AppData\Local\Temp\ccHxlO6N.s 			page 166


 5545 0c7f 1B       		.uleb128 0x1b
 5546 0c80 FD090000 		.4byte	.LASF33
 5547 0c84 01       		.byte	0x1
 5548 0c85 9906     		.2byte	0x699
 5549 0c87 6B000000 		.4byte	0x6b
 5550 0c8b 520B0000 		.4byte	.LLST69
 5551 0c8f 1B       		.uleb128 0x1b
 5552 0c90 AF020000 		.4byte	.LASF59
 5553 0c94 01       		.byte	0x1
 5554 0c95 9906     		.2byte	0x699
 5555 0c97 6B000000 		.4byte	0x6b
 5556 0c9b 730B0000 		.4byte	.LLST70
 5557 0c9f 1B       		.uleb128 0x1b
 5558 0ca0 7D090000 		.4byte	.LASF60
 5559 0ca4 01       		.byte	0x1
 5560 0ca5 9906     		.2byte	0x699
 5561 0ca7 6B000000 		.4byte	0x6b
 5562 0cab 940B0000 		.4byte	.LLST71
 5563 0caf 12       		.uleb128 0x12
 5564 0cb0 6900     		.ascii	"i\000"
 5565 0cb2 01       		.byte	0x1
 5566 0cb3 9C06     		.2byte	0x69c
 5567 0cb5 6B000000 		.4byte	0x6b
 5568 0cb9 B50B0000 		.4byte	.LLST72
 5569 0cbd 13       		.uleb128 0x13
 5570 0cbe 1F0A0000 		.4byte	.LASF34
 5571 0cc2 01       		.byte	0x1
 5572 0cc3 9D06     		.2byte	0x69d
 5573 0cc5 6B000000 		.4byte	0x6b
 5574 0cc9 0A0C0000 		.4byte	.LLST73
 5575 0ccd 13       		.uleb128 0x13
 5576 0cce 0C010000 		.4byte	.LASF62
 5577 0cd2 01       		.byte	0x1
 5578 0cd3 9E06     		.2byte	0x69e
 5579 0cd5 6B000000 		.4byte	0x6b
 5580 0cd9 330C0000 		.4byte	.LLST74
 5581 0cdd 14       		.uleb128 0x14
 5582 0cde FA080000 		.4byte	.LASF64
 5583 0ce2 01       		.byte	0x1
 5584 0ce3 9F06     		.2byte	0x69f
 5585 0ce5 0F0D0000 		.4byte	0xd0f
 5586 0ce9 02       		.uleb128 0x2
 5587 0cea 91       		.byte	0x91
 5588 0ceb 58       		.sleb128 -40
 5589 0cec 13       		.uleb128 0x13
 5590 0ced E0030000 		.4byte	.LASF65
 5591 0cf1 01       		.byte	0x1
 5592 0cf2 A006     		.2byte	0x6a0
 5593 0cf4 83000000 		.4byte	0x83
 5594 0cf8 4A0C0000 		.4byte	.LLST75
 5595 0cfc 10       		.uleb128 0x10
 5596 0cfd 26000000 		.4byte	.LVL238
 5597 0d01 C20B0000 		.4byte	0xbc2
 5598 0d05 0E       		.uleb128 0xe
 5599 0d06 01       		.uleb128 0x1
 5600 0d07 50       		.byte	0x50
 5601 0d08 04       		.uleb128 0x4
ARM GAS  C:\Users\Esteban\AppData\Local\Temp\ccHxlO6N.s 			page 167


 5602 0d09 77       		.byte	0x77
 5603 0d0a 00       		.sleb128 0
 5604 0d0b 3F       		.byte	0x3f
 5605 0d0c 1A       		.byte	0x1a
 5606 0d0d 00       		.byte	0
 5607 0d0e 00       		.byte	0
 5608 0d0f 06       		.uleb128 0x6
 5609 0d10 77000000 		.4byte	0x77
 5610 0d14 1F0D0000 		.4byte	0xd1f
 5611 0d18 07       		.uleb128 0x7
 5612 0d19 DD000000 		.4byte	0xdd
 5613 0d1d 07       		.byte	0x7
 5614 0d1e 00       		.byte	0
 5615 0d1f 15       		.uleb128 0x15
 5616 0d20 30000000 		.4byte	.LASF84
 5617 0d24 01       		.byte	0x1
 5618 0d25 5007     		.2byte	0x750
 5619 0d27 00000000 		.4byte	.LFB24
 5620 0d2b 1C000000 		.4byte	.LFE24-.LFB24
 5621 0d2f 01       		.uleb128 0x1
 5622 0d30 9C       		.byte	0x9c
 5623 0d31 6F0D0000 		.4byte	0xd6f
 5624 0d35 1B       		.uleb128 0x1b
 5625 0d36 8D050000 		.4byte	.LASF67
 5626 0d3a 01       		.byte	0x1
 5627 0d3b 5007     		.2byte	0x750
 5628 0d3d 6B000000 		.4byte	0x6b
 5629 0d41 680C0000 		.4byte	.LLST76
 5630 0d45 1B       		.uleb128 0x1b
 5631 0d46 FD090000 		.4byte	.LASF33
 5632 0d4a 01       		.byte	0x1
 5633 0d4b 5007     		.2byte	0x750
 5634 0d4d 6B000000 		.4byte	0x6b
 5635 0d51 940C0000 		.4byte	.LLST77
 5636 0d55 13       		.uleb128 0x13
 5637 0d56 B4080000 		.4byte	.LASF85
 5638 0d5a 01       		.byte	0x1
 5639 0d5b 5307     		.2byte	0x753
 5640 0d5d 77000000 		.4byte	0x77
 5641 0d61 C00C0000 		.4byte	.LLST78
 5642 0d65 0F       		.uleb128 0xf
 5643 0d66 10000000 		.4byte	.LVL258
 5644 0d6a C20B0000 		.4byte	0xbc2
 5645 0d6e 00       		.byte	0
 5646 0d6f 15       		.uleb128 0x15
 5647 0d70 39060000 		.4byte	.LASF86
 5648 0d74 01       		.byte	0x1
 5649 0d75 7307     		.2byte	0x773
 5650 0d77 00000000 		.4byte	.LFB25
 5651 0d7b 18000000 		.4byte	.LFE25-.LFB25
 5652 0d7f 01       		.uleb128 0x1
 5653 0d80 9C       		.byte	0x9c
 5654 0d81 BF0D0000 		.4byte	0xdbf
 5655 0d85 1B       		.uleb128 0x1b
 5656 0d86 8D050000 		.4byte	.LASF67
 5657 0d8a 01       		.byte	0x1
 5658 0d8b 7307     		.2byte	0x773
ARM GAS  C:\Users\Esteban\AppData\Local\Temp\ccHxlO6N.s 			page 168


 5659 0d8d 6B000000 		.4byte	0x6b
 5660 0d91 D30C0000 		.4byte	.LLST79
 5661 0d95 1B       		.uleb128 0x1b
 5662 0d96 FD090000 		.4byte	.LASF33
 5663 0d9a 01       		.byte	0x1
 5664 0d9b 7307     		.2byte	0x773
 5665 0d9d 6B000000 		.4byte	0x6b
 5666 0da1 FF0C0000 		.4byte	.LLST80
 5667 0da5 13       		.uleb128 0x13
 5668 0da6 B4080000 		.4byte	.LASF85
 5669 0daa 01       		.byte	0x1
 5670 0dab 7607     		.2byte	0x776
 5671 0dad 77000000 		.4byte	0x77
 5672 0db1 2B0D0000 		.4byte	.LLST81
 5673 0db5 0F       		.uleb128 0xf
 5674 0db6 0C000000 		.4byte	.LVL261
 5675 0dba C20B0000 		.4byte	0xbc2
 5676 0dbe 00       		.byte	0
 5677 0dbf 18       		.uleb128 0x18
 5678 0dc0 D7000000 		.4byte	.LASF87
 5679 0dc4 01       		.byte	0x1
 5680 0dc5 070B     		.2byte	0xb07
 5681 0dc7 77000000 		.4byte	0x77
 5682 0dcb 00000000 		.4byte	.LFB37
 5683 0dcf 2C000000 		.4byte	.LFE37-.LFB37
 5684 0dd3 01       		.uleb128 0x1
 5685 0dd4 9C       		.byte	0x9c
 5686 0dd5 5C0E0000 		.4byte	0xe5c
 5687 0dd9 1B       		.uleb128 0x1b
 5688 0dda 7F000000 		.4byte	.LASF70
 5689 0dde 01       		.byte	0x1
 5690 0ddf 070B     		.2byte	0xb07
 5691 0de1 A9000000 		.4byte	0xa9
 5692 0de5 3E0D0000 		.4byte	.LLST82
 5693 0de9 14       		.uleb128 0x14
 5694 0dea 83080000 		.4byte	.LASF88
 5695 0dee 01       		.byte	0x1
 5696 0def 0B0B     		.2byte	0xb0b
 5697 0df1 5C0E0000 		.4byte	0xe5c
 5698 0df5 05       		.uleb128 0x5
 5699 0df6 03       		.byte	0x3
 5700 0df7 F0000000 		.4byte	Segments_14SegASCIILow.5625
 5701 0dfb 14       		.uleb128 0x14
 5702 0dfc 55040000 		.4byte	.LASF89
 5703 0e00 01       		.byte	0x1
 5704 0e01 400B     		.2byte	0xb40
 5705 0e03 610E0000 		.4byte	0xe61
 5706 0e07 05       		.uleb128 0x5
 5707 0e08 03       		.byte	0x3
 5708 0e09 90000000 		.4byte	Segments_14SegASCIIHigh.5626
 5709 0e0d 14       		.uleb128 0x14
 5710 0e0e F6090000 		.4byte	.LASF72
 5711 0e12 01       		.byte	0x1
 5712 0e13 DF0B     		.2byte	0xbdf
 5713 0e15 6B000000 		.4byte	0x6b
 5714 0e19 01       		.uleb128 0x1
 5715 0e1a 52       		.byte	0x52
ARM GAS  C:\Users\Esteban\AppData\Local\Temp\ccHxlO6N.s 			page 169


 5716 0e1b 13       		.uleb128 0x13
 5717 0e1c 3D040000 		.4byte	.LASF73
 5718 0e20 01       		.byte	0x1
 5719 0e21 E00B     		.2byte	0xbe0
 5720 0e23 6B000000 		.4byte	0x6b
 5721 0e27 5F0D0000 		.4byte	.LLST83
 5722 0e2b 13       		.uleb128 0x13
 5723 0e2c AD040000 		.4byte	.LASF90
 5724 0e30 01       		.byte	0x1
 5725 0e31 E10B     		.2byte	0xbe1
 5726 0e33 77000000 		.4byte	0x77
 5727 0e37 8A0D0000 		.4byte	.LLST84
 5728 0e3b 13       		.uleb128 0x13
 5729 0e3c 02080000 		.4byte	.LASF91
 5730 0e40 01       		.byte	0x1
 5731 0e41 E20B     		.2byte	0xbe2
 5732 0e43 77000000 		.4byte	0x77
 5733 0e47 9D0D0000 		.4byte	.LLST85
 5734 0e4b 13       		.uleb128 0x13
 5735 0e4c A7070000 		.4byte	.LASF57
 5736 0e50 01       		.byte	0x1
 5737 0e51 E30B     		.2byte	0xbe3
 5738 0e53 77000000 		.4byte	0x77
 5739 0e57 B40D0000 		.4byte	.LLST86
 5740 0e5b 00       		.byte	0
 5741 0e5c 1C       		.uleb128 0x1c
 5742 0e5d B5090000 		.4byte	0x9b5
 5743 0e61 1C       		.uleb128 0x1c
 5744 0e62 B5090000 		.4byte	0x9b5
 5745 0e66 15       		.uleb128 0x15
 5746 0e67 58020000 		.4byte	.LASF92
 5747 0e6b 01       		.byte	0x1
 5748 0e6c FC05     		.2byte	0x5fc
 5749 0e6e 00000000 		.4byte	.LFB20
 5750 0e72 38010000 		.4byte	.LFE20-.LFB20
 5751 0e76 01       		.uleb128 0x1
 5752 0e77 9C       		.byte	0x9c
 5753 0e78 6B0F0000 		.4byte	0xf6b
 5754 0e7c 1B       		.uleb128 0x1b
 5755 0e7d AE070000 		.4byte	.LASF54
 5756 0e81 01       		.byte	0x1
 5757 0e82 FC05     		.2byte	0x5fc
 5758 0e84 8F000000 		.4byte	0x8f
 5759 0e88 D20D0000 		.4byte	.LLST87
 5760 0e8c 1B       		.uleb128 0x1b
 5761 0e8d FD090000 		.4byte	.LASF33
 5762 0e91 01       		.byte	0x1
 5763 0e92 FC05     		.2byte	0x5fc
 5764 0e94 6B000000 		.4byte	0x6b
 5765 0e98 F30D0000 		.4byte	.LLST88
 5766 0e9c 1B       		.uleb128 0x1b
 5767 0e9d AF020000 		.4byte	.LASF59
 5768 0ea1 01       		.byte	0x1
 5769 0ea2 FC05     		.2byte	0x5fc
 5770 0ea4 6B000000 		.4byte	0x6b
 5771 0ea8 140E0000 		.4byte	.LLST89
 5772 0eac 1B       		.uleb128 0x1b
ARM GAS  C:\Users\Esteban\AppData\Local\Temp\ccHxlO6N.s 			page 170


 5773 0ead 7D090000 		.4byte	.LASF60
 5774 0eb1 01       		.byte	0x1
 5775 0eb2 FC05     		.2byte	0x5fc
 5776 0eb4 6B000000 		.4byte	0x6b
 5777 0eb8 4E0E0000 		.4byte	.LLST90
 5778 0ebc 12       		.uleb128 0x12
 5779 0ebd 6900     		.ascii	"i\000"
 5780 0ebf 01       		.byte	0x1
 5781 0ec0 FF05     		.2byte	0x5ff
 5782 0ec2 6B000000 		.4byte	0x6b
 5783 0ec6 6F0E0000 		.4byte	.LLST91
 5784 0eca 13       		.uleb128 0x13
 5785 0ecb 1F0A0000 		.4byte	.LASF34
 5786 0ecf 01       		.byte	0x1
 5787 0ed0 0006     		.2byte	0x600
 5788 0ed2 6B000000 		.4byte	0x6b
 5789 0ed6 FB0E0000 		.4byte	.LLST92
 5790 0eda 13       		.uleb128 0x13
 5791 0edb C0080000 		.4byte	.LASF75
 5792 0edf 01       		.byte	0x1
 5793 0ee0 0106     		.2byte	0x601
 5794 0ee2 6B000000 		.4byte	0x6b
 5795 0ee6 240F0000 		.4byte	.LLST93
 5796 0eea 13       		.uleb128 0x13
 5797 0eeb 0C010000 		.4byte	.LASF62
 5798 0eef 01       		.byte	0x1
 5799 0ef0 0206     		.2byte	0x602
 5800 0ef2 6B000000 		.4byte	0x6b
 5801 0ef6 5A0F0000 		.4byte	.LLST94
 5802 0efa 13       		.uleb128 0x13
 5803 0efb BA090000 		.4byte	.LASF63
 5804 0eff 01       		.byte	0x1
 5805 0f00 0306     		.2byte	0x603
 5806 0f02 6B000000 		.4byte	0x6b
 5807 0f06 6D0F0000 		.4byte	.LLST95
 5808 0f0a 14       		.uleb128 0x14
 5809 0f0b FA080000 		.4byte	.LASF64
 5810 0f0f 01       		.byte	0x1
 5811 0f10 0406     		.2byte	0x604
 5812 0f12 0F0D0000 		.4byte	0xd0f
 5813 0f16 02       		.uleb128 0x2
 5814 0f17 91       		.byte	0x91
 5815 0f18 50       		.sleb128 -48
 5816 0f19 13       		.uleb128 0x13
 5817 0f1a E0030000 		.4byte	.LASF65
 5818 0f1e 01       		.byte	0x1
 5819 0f1f 0506     		.2byte	0x605
 5820 0f21 83000000 		.4byte	0x83
 5821 0f25 C40F0000 		.4byte	.LLST96
 5822 0f29 0F       		.uleb128 0xf
 5823 0f2a 44000000 		.4byte	.LVL284
 5824 0f2e C20B0000 		.4byte	0xbc2
 5825 0f32 0D       		.uleb128 0xd
 5826 0f33 64000000 		.4byte	.LVL287
 5827 0f37 BF0D0000 		.4byte	0xdbf
 5828 0f3b 460F0000 		.4byte	0xf46
 5829 0f3f 0E       		.uleb128 0xe
ARM GAS  C:\Users\Esteban\AppData\Local\Temp\ccHxlO6N.s 			page 171


 5830 0f40 01       		.uleb128 0x1
 5831 0f41 50       		.byte	0x50
 5832 0f42 02       		.uleb128 0x2
 5833 0f43 08       		.byte	0x8
 5834 0f44 2D       		.byte	0x2d
 5835 0f45 00       		.byte	0
 5836 0f46 0D       		.uleb128 0xd
 5837 0f47 88000000 		.4byte	.LVL289
 5838 0f4b BF0D0000 		.4byte	0xdbf
 5839 0f4f 5A0F0000 		.4byte	0xf5a
 5840 0f53 0E       		.uleb128 0xe
 5841 0f54 01       		.uleb128 0x1
 5842 0f55 50       		.byte	0x50
 5843 0f56 02       		.uleb128 0x2
 5844 0f57 08       		.byte	0x8
 5845 0f58 2D       		.byte	0x2d
 5846 0f59 00       		.byte	0
 5847 0f5a 10       		.uleb128 0x10
 5848 0f5b 9C000000 		.4byte	.LVL292
 5849 0f5f BF0D0000 		.4byte	0xdbf
 5850 0f63 0E       		.uleb128 0xe
 5851 0f64 01       		.uleb128 0x1
 5852 0f65 50       		.byte	0x50
 5853 0f66 02       		.uleb128 0x2
 5854 0f67 08       		.byte	0x8
 5855 0f68 2D       		.byte	0x2d
 5856 0f69 00       		.byte	0
 5857 0f6a 00       		.byte	0
 5858 0f6b 15       		.uleb128 0x15
 5859 0f6c 0F050000 		.4byte	.LASF93
 5860 0f70 01       		.byte	0x1
 5861 0f71 0007     		.2byte	0x700
 5862 0f73 00000000 		.4byte	.LFB22
 5863 0f77 34000000 		.4byte	.LFE22-.LFB22
 5864 0f7b 01       		.uleb128 0x1
 5865 0f7c 9C       		.byte	0x9c
 5866 0f7d FD0F0000 		.4byte	0xffd
 5867 0f81 1B       		.uleb128 0x1b
 5868 0f82 EA030000 		.4byte	.LASF77
 5869 0f86 01       		.byte	0x1
 5870 0f87 0007     		.2byte	0x700
 5871 0f89 670B0000 		.4byte	0xb67
 5872 0f8d F80F0000 		.4byte	.LLST97
 5873 0f91 1B       		.uleb128 0x1b
 5874 0f92 FD090000 		.4byte	.LASF33
 5875 0f96 01       		.byte	0x1
 5876 0f97 0007     		.2byte	0x700
 5877 0f99 6B000000 		.4byte	0x6b
 5878 0f9d 24100000 		.4byte	.LLST98
 5879 0fa1 13       		.uleb128 0x13
 5880 0fa2 C4030000 		.4byte	.LASF94
 5881 0fa6 01       		.byte	0x1
 5882 0fa7 0307     		.2byte	0x703
 5883 0fa9 6B000000 		.4byte	0x6b
 5884 0fad 45100000 		.4byte	.LLST99
 5885 0fb1 13       		.uleb128 0x13
 5886 0fb2 5D070000 		.4byte	.LASF78
ARM GAS  C:\Users\Esteban\AppData\Local\Temp\ccHxlO6N.s 			page 172


 5887 0fb6 01       		.byte	0x1
 5888 0fb7 0407     		.2byte	0x704
 5889 0fb9 6B000000 		.4byte	0x6b
 5890 0fbd 63100000 		.4byte	.LLST100
 5891 0fc1 12       		.uleb128 0x12
 5892 0fc2 6900     		.ascii	"i\000"
 5893 0fc4 01       		.byte	0x1
 5894 0fc5 0507     		.2byte	0x705
 5895 0fc7 6B000000 		.4byte	0x6b
 5896 0fcb 76100000 		.4byte	.LLST101
 5897 0fcf 13       		.uleb128 0x13
 5898 0fd0 B4080000 		.4byte	.LASF85
 5899 0fd4 01       		.byte	0x1
 5900 0fd5 0607     		.2byte	0x706
 5901 0fd7 77000000 		.4byte	0x77
 5902 0fdb A0100000 		.4byte	.LLST102
 5903 0fdf 0D       		.uleb128 0xd
 5904 0fe0 0A000000 		.4byte	.LVL319
 5905 0fe4 85160000 		.4byte	0x1685
 5906 0fe8 F30F0000 		.4byte	0xff3
 5907 0fec 0E       		.uleb128 0xe
 5908 0fed 01       		.uleb128 0x1
 5909 0fee 50       		.byte	0x50
 5910 0fef 02       		.uleb128 0x2
 5911 0ff0 77       		.byte	0x77
 5912 0ff1 00       		.sleb128 0
 5913 0ff2 00       		.byte	0
 5914 0ff3 0F       		.uleb128 0xf
 5915 0ff4 1C000000 		.4byte	.LVL322
 5916 0ff8 BF0D0000 		.4byte	0xdbf
 5917 0ffc 00       		.byte	0
 5918 0ffd 15       		.uleb128 0x15
 5919 0ffe E4080000 		.4byte	.LASF95
 5920 1002 01       		.byte	0x1
 5921 1003 2D07     		.2byte	0x72d
 5922 1005 00000000 		.4byte	.LFB23
 5923 1009 18000000 		.4byte	.LFE23-.LFB23
 5924 100d 01       		.uleb128 0x1
 5925 100e 9C       		.byte	0x9c
 5926 100f 4D100000 		.4byte	0x104d
 5927 1013 1B       		.uleb128 0x1b
 5928 1014 EA030000 		.4byte	.LASF77
 5929 1018 01       		.byte	0x1
 5930 1019 2D07     		.2byte	0x72d
 5931 101b A9000000 		.4byte	0xa9
 5932 101f B3100000 		.4byte	.LLST103
 5933 1023 1B       		.uleb128 0x1b
 5934 1024 FD090000 		.4byte	.LASF33
 5935 1028 01       		.byte	0x1
 5936 1029 2D07     		.2byte	0x72d
 5937 102b 6B000000 		.4byte	0x6b
 5938 102f DF100000 		.4byte	.LLST104
 5939 1033 13       		.uleb128 0x13
 5940 1034 B4080000 		.4byte	.LASF85
 5941 1038 01       		.byte	0x1
 5942 1039 3007     		.2byte	0x730
 5943 103b 77000000 		.4byte	0x77
ARM GAS  C:\Users\Esteban\AppData\Local\Temp\ccHxlO6N.s 			page 173


 5944 103f 0B110000 		.4byte	.LLST105
 5945 1043 0F       		.uleb128 0xf
 5946 1044 0C000000 		.4byte	.LVL329
 5947 1048 BF0D0000 		.4byte	0xdbf
 5948 104c 00       		.byte	0
 5949 104d 18       		.uleb128 0x18
 5950 104e 00000000 		.4byte	.LASF96
 5951 1052 01       		.byte	0x1
 5952 1053 160C     		.2byte	0xc16
 5953 1055 77000000 		.4byte	0x77
 5954 1059 00000000 		.4byte	.LFB38
 5955 105d 1C000000 		.4byte	.LFE38-.LFB38
 5956 1061 01       		.uleb128 0x1
 5957 1062 9C       		.byte	0x9c
 5958 1063 DA100000 		.4byte	0x10da
 5959 1067 1B       		.uleb128 0x1b
 5960 1068 AE070000 		.4byte	.LASF54
 5961 106c 01       		.byte	0x1
 5962 106d 160C     		.2byte	0xc16
 5963 106f 6B000000 		.4byte	0x6b
 5964 1073 1E110000 		.4byte	.LLST106
 5965 1077 14       		.uleb128 0x14
 5966 1078 F7040000 		.4byte	.LASF97
 5967 107c 01       		.byte	0x1
 5968 107d 1A0C     		.2byte	0xc1a
 5969 107f DA100000 		.4byte	0x10da
 5970 1083 05       		.uleb128 0x5
 5971 1084 03       		.byte	0x3
 5972 1085 60010000 		.4byte	Segments_16SegDigitsLow.5635
 5973 1089 14       		.uleb128 0x14
 5974 108a 060A0000 		.4byte	.LASF98
 5975 108e 01       		.byte	0x1
 5976 108f 250C     		.2byte	0xc25
 5977 1091 DF100000 		.4byte	0x10df
 5978 1095 05       		.uleb128 0x5
 5979 1096 03       		.byte	0x3
 5980 1097 50010000 		.4byte	Segments_16SegDigitsHigh.5636
 5981 109b 13       		.uleb128 0x13
 5982 109c AB010000 		.4byte	.LASF56
 5983 10a0 01       		.byte	0x1
 5984 10a1 460C     		.2byte	0xc46
 5985 10a3 6B000000 		.4byte	0x6b
 5986 10a7 3F110000 		.4byte	.LLST107
 5987 10ab 14       		.uleb128 0x14
 5988 10ac F6090000 		.4byte	.LASF72
 5989 10b0 01       		.byte	0x1
 5990 10b1 470C     		.2byte	0xc47
 5991 10b3 77000000 		.4byte	0x77
 5992 10b7 01       		.uleb128 0x1
 5993 10b8 53       		.byte	0x53
 5994 10b9 13       		.uleb128 0x13
 5995 10ba 3D040000 		.4byte	.LASF73
 5996 10be 01       		.byte	0x1
 5997 10bf 480C     		.2byte	0xc48
 5998 10c1 77000000 		.4byte	0x77
 5999 10c5 52110000 		.4byte	.LLST108
 6000 10c9 13       		.uleb128 0x13
ARM GAS  C:\Users\Esteban\AppData\Local\Temp\ccHxlO6N.s 			page 174


 6001 10ca A7070000 		.4byte	.LASF57
 6002 10ce 01       		.byte	0x1
 6003 10cf 490C     		.2byte	0xc49
 6004 10d1 77000000 		.4byte	0x77
 6005 10d5 69110000 		.4byte	.LLST109
 6006 10d9 00       		.byte	0
 6007 10da 1C       		.uleb128 0x1c
 6008 10db A8070000 		.4byte	0x7a8
 6009 10df 1C       		.uleb128 0x1c
 6010 10e0 A8070000 		.4byte	0x7a8
 6011 10e4 15       		.uleb128 0x15
 6012 10e5 CA070000 		.4byte	.LASF99
 6013 10e9 01       		.byte	0x1
 6014 10ea 3F08     		.2byte	0x83f
 6015 10ec 00000000 		.4byte	.LFB27
 6016 10f0 C8000000 		.4byte	.LFE27-.LFB27
 6017 10f4 01       		.uleb128 0x1
 6018 10f5 9C       		.byte	0x9c
 6019 10f6 9A110000 		.4byte	0x119a
 6020 10fa 1B       		.uleb128 0x1b
 6021 10fb AE070000 		.4byte	.LASF54
 6022 10ff 01       		.byte	0x1
 6023 1100 3F08     		.2byte	0x83f
 6024 1102 83000000 		.4byte	0x83
 6025 1106 83110000 		.4byte	.LLST110
 6026 110a 1B       		.uleb128 0x1b
 6027 110b FD090000 		.4byte	.LASF33
 6028 110f 01       		.byte	0x1
 6029 1110 3F08     		.2byte	0x83f
 6030 1112 6B000000 		.4byte	0x6b
 6031 1116 A4110000 		.4byte	.LLST111
 6032 111a 1B       		.uleb128 0x1b
 6033 111b AF020000 		.4byte	.LASF59
 6034 111f 01       		.byte	0x1
 6035 1120 3F08     		.2byte	0x83f
 6036 1122 6B000000 		.4byte	0x6b
 6037 1126 C5110000 		.4byte	.LLST112
 6038 112a 1B       		.uleb128 0x1b
 6039 112b 7D090000 		.4byte	.LASF60
 6040 112f 01       		.byte	0x1
 6041 1130 3F08     		.2byte	0x83f
 6042 1132 6B000000 		.4byte	0x6b
 6043 1136 E6110000 		.4byte	.LLST113
 6044 113a 12       		.uleb128 0x12
 6045 113b 6900     		.ascii	"i\000"
 6046 113d 01       		.byte	0x1
 6047 113e 4208     		.2byte	0x842
 6048 1140 6B000000 		.4byte	0x6b
 6049 1144 07120000 		.4byte	.LLST114
 6050 1148 13       		.uleb128 0x13
 6051 1149 1F0A0000 		.4byte	.LASF34
 6052 114d 01       		.byte	0x1
 6053 114e 4308     		.2byte	0x843
 6054 1150 6B000000 		.4byte	0x6b
 6055 1154 5C120000 		.4byte	.LLST115
 6056 1158 13       		.uleb128 0x13
 6057 1159 0C010000 		.4byte	.LASF62
ARM GAS  C:\Users\Esteban\AppData\Local\Temp\ccHxlO6N.s 			page 175


 6058 115d 01       		.byte	0x1
 6059 115e 4408     		.2byte	0x844
 6060 1160 6B000000 		.4byte	0x6b
 6061 1164 85120000 		.4byte	.LLST116
 6062 1168 14       		.uleb128 0x14
 6063 1169 FA080000 		.4byte	.LASF64
 6064 116d 01       		.byte	0x1
 6065 116e 4508     		.2byte	0x845
 6066 1170 0F0D0000 		.4byte	0xd0f
 6067 1174 02       		.uleb128 0x2
 6068 1175 91       		.byte	0x91
 6069 1176 58       		.sleb128 -40
 6070 1177 13       		.uleb128 0x13
 6071 1178 E0030000 		.4byte	.LASF65
 6072 117c 01       		.byte	0x1
 6073 117d 4608     		.2byte	0x846
 6074 117f 83000000 		.4byte	0x83
 6075 1183 9C120000 		.4byte	.LLST117
 6076 1187 10       		.uleb128 0x10
 6077 1188 26000000 		.4byte	.LVL340
 6078 118c 4D100000 		.4byte	0x104d
 6079 1190 0E       		.uleb128 0xe
 6080 1191 01       		.uleb128 0x1
 6081 1192 50       		.byte	0x50
 6082 1193 04       		.uleb128 0x4
 6083 1194 77       		.byte	0x77
 6084 1195 00       		.sleb128 0
 6085 1196 3F       		.byte	0x3f
 6086 1197 1A       		.byte	0x1a
 6087 1198 00       		.byte	0
 6088 1199 00       		.byte	0
 6089 119a 15       		.uleb128 0x15
 6090 119b 21070000 		.4byte	.LASF100
 6091 119f 01       		.byte	0x1
 6092 11a0 F308     		.2byte	0x8f3
 6093 11a2 00000000 		.4byte	.LFB30
 6094 11a6 1C000000 		.4byte	.LFE30-.LFB30
 6095 11aa 01       		.uleb128 0x1
 6096 11ab 9C       		.byte	0x9c
 6097 11ac EA110000 		.4byte	0x11ea
 6098 11b0 1B       		.uleb128 0x1b
 6099 11b1 8D050000 		.4byte	.LASF67
 6100 11b5 01       		.byte	0x1
 6101 11b6 F308     		.2byte	0x8f3
 6102 11b8 6B000000 		.4byte	0x6b
 6103 11bc BA120000 		.4byte	.LLST118
 6104 11c0 1B       		.uleb128 0x1b
 6105 11c1 FD090000 		.4byte	.LASF33
 6106 11c5 01       		.byte	0x1
 6107 11c6 F308     		.2byte	0x8f3
 6108 11c8 6B000000 		.4byte	0x6b
 6109 11cc E6120000 		.4byte	.LLST119
 6110 11d0 13       		.uleb128 0x13
 6111 11d1 B4080000 		.4byte	.LASF85
 6112 11d5 01       		.byte	0x1
 6113 11d6 F608     		.2byte	0x8f6
 6114 11d8 77000000 		.4byte	0x77
ARM GAS  C:\Users\Esteban\AppData\Local\Temp\ccHxlO6N.s 			page 176


 6115 11dc 12130000 		.4byte	.LLST120
 6116 11e0 0F       		.uleb128 0xf
 6117 11e1 10000000 		.4byte	.LVL360
 6118 11e5 4D100000 		.4byte	0x104d
 6119 11e9 00       		.byte	0
 6120 11ea 15       		.uleb128 0x15
 6121 11eb B6020000 		.4byte	.LASF101
 6122 11ef 01       		.byte	0x1
 6123 11f0 1509     		.2byte	0x915
 6124 11f2 00000000 		.4byte	.LFB31
 6125 11f6 18000000 		.4byte	.LFE31-.LFB31
 6126 11fa 01       		.uleb128 0x1
 6127 11fb 9C       		.byte	0x9c
 6128 11fc 3A120000 		.4byte	0x123a
 6129 1200 1B       		.uleb128 0x1b
 6130 1201 8D050000 		.4byte	.LASF67
 6131 1205 01       		.byte	0x1
 6132 1206 1509     		.2byte	0x915
 6133 1208 6B000000 		.4byte	0x6b
 6134 120c 25130000 		.4byte	.LLST121
 6135 1210 1B       		.uleb128 0x1b
 6136 1211 FD090000 		.4byte	.LASF33
 6137 1215 01       		.byte	0x1
 6138 1216 1509     		.2byte	0x915
 6139 1218 6B000000 		.4byte	0x6b
 6140 121c 51130000 		.4byte	.LLST122
 6141 1220 13       		.uleb128 0x13
 6142 1221 B4080000 		.4byte	.LASF85
 6143 1225 01       		.byte	0x1
 6144 1226 1809     		.2byte	0x918
 6145 1228 77000000 		.4byte	0x77
 6146 122c 7D130000 		.4byte	.LLST123
 6147 1230 0F       		.uleb128 0xf
 6148 1231 0C000000 		.4byte	.LVL363
 6149 1235 4D100000 		.4byte	0x104d
 6150 1239 00       		.byte	0
 6151 123a 18       		.uleb128 0x18
 6152 123b D8020000 		.4byte	.LASF102
 6153 123f 01       		.byte	0x1
 6154 1240 6F0C     		.2byte	0xc6f
 6155 1242 77000000 		.4byte	0x77
 6156 1246 00000000 		.4byte	.LFB39
 6157 124a 2C000000 		.4byte	.LFE39-.LFB39
 6158 124e 01       		.uleb128 0x1
 6159 124f 9C       		.byte	0x9c
 6160 1250 D7120000 		.4byte	0x12d7
 6161 1254 1B       		.uleb128 0x1b
 6162 1255 7F000000 		.4byte	.LASF70
 6163 1259 01       		.byte	0x1
 6164 125a 6F0C     		.2byte	0xc6f
 6165 125c A9000000 		.4byte	0xa9
 6166 1260 90130000 		.4byte	.LLST124
 6167 1264 14       		.uleb128 0x14
 6168 1265 62050000 		.4byte	.LASF103
 6169 1269 01       		.byte	0x1
 6170 126a 730C     		.2byte	0xc73
 6171 126c D7120000 		.4byte	0x12d7
ARM GAS  C:\Users\Esteban\AppData\Local\Temp\ccHxlO6N.s 			page 177


 6172 1270 05       		.uleb128 0x5
 6173 1271 03       		.byte	0x3
 6174 1272 D0010000 		.4byte	Segments_16SegASCIILow.5644
 6175 1276 14       		.uleb128 0x14
 6176 1277 15040000 		.4byte	.LASF104
 6177 127b 01       		.byte	0x1
 6178 127c A80C     		.2byte	0xca8
 6179 127e DC120000 		.4byte	0x12dc
 6180 1282 05       		.uleb128 0x5
 6181 1283 03       		.byte	0x3
 6182 1284 70010000 		.4byte	Segments_16SegASCIIHigh.5645
 6183 1288 14       		.uleb128 0x14
 6184 1289 F6090000 		.4byte	.LASF72
 6185 128d 01       		.byte	0x1
 6186 128e 470D     		.2byte	0xd47
 6187 1290 6B000000 		.4byte	0x6b
 6188 1294 01       		.uleb128 0x1
 6189 1295 52       		.byte	0x52
 6190 1296 13       		.uleb128 0x13
 6191 1297 3D040000 		.4byte	.LASF73
 6192 129b 01       		.byte	0x1
 6193 129c 480D     		.2byte	0xd48
 6194 129e 6B000000 		.4byte	0x6b
 6195 12a2 B1130000 		.4byte	.LLST125
 6196 12a6 13       		.uleb128 0x13
 6197 12a7 AD040000 		.4byte	.LASF90
 6198 12ab 01       		.byte	0x1
 6199 12ac 490D     		.2byte	0xd49
 6200 12ae 77000000 		.4byte	0x77
 6201 12b2 DC130000 		.4byte	.LLST126
 6202 12b6 13       		.uleb128 0x13
 6203 12b7 02080000 		.4byte	.LASF91
 6204 12bb 01       		.byte	0x1
 6205 12bc 4A0D     		.2byte	0xd4a
 6206 12be 77000000 		.4byte	0x77
 6207 12c2 EF130000 		.4byte	.LLST127
 6208 12c6 13       		.uleb128 0x13
 6209 12c7 A7070000 		.4byte	.LASF57
 6210 12cb 01       		.byte	0x1
 6211 12cc 4B0D     		.2byte	0xd4b
 6212 12ce 77000000 		.4byte	0x77
 6213 12d2 06140000 		.4byte	.LLST128
 6214 12d6 00       		.byte	0
 6215 12d7 1C       		.uleb128 0x1c
 6216 12d8 B5090000 		.4byte	0x9b5
 6217 12dc 1C       		.uleb128 0x1c
 6218 12dd B5090000 		.4byte	0x9b5
 6219 12e1 15       		.uleb128 0x15
 6220 12e2 B2010000 		.4byte	.LASF105
 6221 12e6 01       		.byte	0x1
 6222 12e7 A507     		.2byte	0x7a5
 6223 12e9 00000000 		.4byte	.LFB26
 6224 12ed 38010000 		.4byte	.LFE26-.LFB26
 6225 12f1 01       		.uleb128 0x1
 6226 12f2 9C       		.byte	0x9c
 6227 12f3 E6130000 		.4byte	0x13e6
 6228 12f7 1B       		.uleb128 0x1b
ARM GAS  C:\Users\Esteban\AppData\Local\Temp\ccHxlO6N.s 			page 178


 6229 12f8 AE070000 		.4byte	.LASF54
 6230 12fc 01       		.byte	0x1
 6231 12fd A507     		.2byte	0x7a5
 6232 12ff 8F000000 		.4byte	0x8f
 6233 1303 24140000 		.4byte	.LLST129
 6234 1307 1B       		.uleb128 0x1b
 6235 1308 FD090000 		.4byte	.LASF33
 6236 130c 01       		.byte	0x1
 6237 130d A507     		.2byte	0x7a5
 6238 130f 6B000000 		.4byte	0x6b
 6239 1313 45140000 		.4byte	.LLST130
 6240 1317 1B       		.uleb128 0x1b
 6241 1318 AF020000 		.4byte	.LASF59
 6242 131c 01       		.byte	0x1
 6243 131d A507     		.2byte	0x7a5
 6244 131f 6B000000 		.4byte	0x6b
 6245 1323 66140000 		.4byte	.LLST131
 6246 1327 1B       		.uleb128 0x1b
 6247 1328 7D090000 		.4byte	.LASF60
 6248 132c 01       		.byte	0x1
 6249 132d A507     		.2byte	0x7a5
 6250 132f 6B000000 		.4byte	0x6b
 6251 1333 A0140000 		.4byte	.LLST132
 6252 1337 12       		.uleb128 0x12
 6253 1338 6900     		.ascii	"i\000"
 6254 133a 01       		.byte	0x1
 6255 133b A807     		.2byte	0x7a8
 6256 133d 6B000000 		.4byte	0x6b
 6257 1341 C1140000 		.4byte	.LLST133
 6258 1345 13       		.uleb128 0x13
 6259 1346 1F0A0000 		.4byte	.LASF34
 6260 134a 01       		.byte	0x1
 6261 134b A907     		.2byte	0x7a9
 6262 134d 6B000000 		.4byte	0x6b
 6263 1351 4D150000 		.4byte	.LLST134
 6264 1355 13       		.uleb128 0x13
 6265 1356 C0080000 		.4byte	.LASF75
 6266 135a 01       		.byte	0x1
 6267 135b AA07     		.2byte	0x7aa
 6268 135d 6B000000 		.4byte	0x6b
 6269 1361 76150000 		.4byte	.LLST135
 6270 1365 13       		.uleb128 0x13
 6271 1366 0C010000 		.4byte	.LASF62
 6272 136a 01       		.byte	0x1
 6273 136b AB07     		.2byte	0x7ab
 6274 136d 6B000000 		.4byte	0x6b
 6275 1371 AC150000 		.4byte	.LLST136
 6276 1375 13       		.uleb128 0x13
 6277 1376 BA090000 		.4byte	.LASF63
 6278 137a 01       		.byte	0x1
 6279 137b AC07     		.2byte	0x7ac
 6280 137d 6B000000 		.4byte	0x6b
 6281 1381 BF150000 		.4byte	.LLST137
 6282 1385 14       		.uleb128 0x14
 6283 1386 FA080000 		.4byte	.LASF64
 6284 138a 01       		.byte	0x1
 6285 138b AD07     		.2byte	0x7ad
ARM GAS  C:\Users\Esteban\AppData\Local\Temp\ccHxlO6N.s 			page 179


 6286 138d 0F0D0000 		.4byte	0xd0f
 6287 1391 02       		.uleb128 0x2
 6288 1392 91       		.byte	0x91
 6289 1393 50       		.sleb128 -48
 6290 1394 13       		.uleb128 0x13
 6291 1395 E0030000 		.4byte	.LASF65
 6292 1399 01       		.byte	0x1
 6293 139a AE07     		.2byte	0x7ae
 6294 139c 83000000 		.4byte	0x83
 6295 13a0 16160000 		.4byte	.LLST138
 6296 13a4 0F       		.uleb128 0xf
 6297 13a5 44000000 		.4byte	.LVL386
 6298 13a9 4D100000 		.4byte	0x104d
 6299 13ad 0D       		.uleb128 0xd
 6300 13ae 64000000 		.4byte	.LVL389
 6301 13b2 3A120000 		.4byte	0x123a
 6302 13b6 C1130000 		.4byte	0x13c1
 6303 13ba 0E       		.uleb128 0xe
 6304 13bb 01       		.uleb128 0x1
 6305 13bc 50       		.byte	0x50
 6306 13bd 02       		.uleb128 0x2
 6307 13be 08       		.byte	0x8
 6308 13bf 2D       		.byte	0x2d
 6309 13c0 00       		.byte	0
 6310 13c1 0D       		.uleb128 0xd
 6311 13c2 88000000 		.4byte	.LVL391
 6312 13c6 3A120000 		.4byte	0x123a
 6313 13ca D5130000 		.4byte	0x13d5
 6314 13ce 0E       		.uleb128 0xe
 6315 13cf 01       		.uleb128 0x1
 6316 13d0 50       		.byte	0x50
 6317 13d1 02       		.uleb128 0x2
 6318 13d2 08       		.byte	0x8
 6319 13d3 2D       		.byte	0x2d
 6320 13d4 00       		.byte	0
 6321 13d5 10       		.uleb128 0x10
 6322 13d6 9C000000 		.4byte	.LVL394
 6323 13da 3A120000 		.4byte	0x123a
 6324 13de 0E       		.uleb128 0xe
 6325 13df 01       		.uleb128 0x1
 6326 13e0 50       		.byte	0x50
 6327 13e1 02       		.uleb128 0x2
 6328 13e2 08       		.byte	0x8
 6329 13e3 2D       		.byte	0x2d
 6330 13e4 00       		.byte	0
 6331 13e5 00       		.byte	0
 6332 13e6 15       		.uleb128 0x15
 6333 13e7 13060000 		.4byte	.LASF106
 6334 13eb 01       		.byte	0x1
 6335 13ec A508     		.2byte	0x8a5
 6336 13ee 00000000 		.4byte	.LFB28
 6337 13f2 34000000 		.4byte	.LFE28-.LFB28
 6338 13f6 01       		.uleb128 0x1
 6339 13f7 9C       		.byte	0x9c
 6340 13f8 78140000 		.4byte	0x1478
 6341 13fc 1B       		.uleb128 0x1b
 6342 13fd EA030000 		.4byte	.LASF77
ARM GAS  C:\Users\Esteban\AppData\Local\Temp\ccHxlO6N.s 			page 180


 6343 1401 01       		.byte	0x1
 6344 1402 A508     		.2byte	0x8a5
 6345 1404 670B0000 		.4byte	0xb67
 6346 1408 4A160000 		.4byte	.LLST139
 6347 140c 1B       		.uleb128 0x1b
 6348 140d FD090000 		.4byte	.LASF33
 6349 1411 01       		.byte	0x1
 6350 1412 A508     		.2byte	0x8a5
 6351 1414 6B000000 		.4byte	0x6b
 6352 1418 76160000 		.4byte	.LLST140
 6353 141c 13       		.uleb128 0x13
 6354 141d C4030000 		.4byte	.LASF94
 6355 1421 01       		.byte	0x1
 6356 1422 A808     		.2byte	0x8a8
 6357 1424 6B000000 		.4byte	0x6b
 6358 1428 97160000 		.4byte	.LLST141
 6359 142c 13       		.uleb128 0x13
 6360 142d 5D070000 		.4byte	.LASF78
 6361 1431 01       		.byte	0x1
 6362 1432 A908     		.2byte	0x8a9
 6363 1434 6B000000 		.4byte	0x6b
 6364 1438 B5160000 		.4byte	.LLST142
 6365 143c 12       		.uleb128 0x12
 6366 143d 6900     		.ascii	"i\000"
 6367 143f 01       		.byte	0x1
 6368 1440 AA08     		.2byte	0x8aa
 6369 1442 6B000000 		.4byte	0x6b
 6370 1446 C8160000 		.4byte	.LLST143
 6371 144a 13       		.uleb128 0x13
 6372 144b B4080000 		.4byte	.LASF85
 6373 144f 01       		.byte	0x1
 6374 1450 AB08     		.2byte	0x8ab
 6375 1452 77000000 		.4byte	0x77
 6376 1456 F2160000 		.4byte	.LLST144
 6377 145a 0D       		.uleb128 0xd
 6378 145b 0A000000 		.4byte	.LVL421
 6379 145f 85160000 		.4byte	0x1685
 6380 1463 6E140000 		.4byte	0x146e
 6381 1467 0E       		.uleb128 0xe
 6382 1468 01       		.uleb128 0x1
 6383 1469 50       		.byte	0x50
 6384 146a 02       		.uleb128 0x2
 6385 146b 77       		.byte	0x77
 6386 146c 00       		.sleb128 0
 6387 146d 00       		.byte	0
 6388 146e 0F       		.uleb128 0xf
 6389 146f 1C000000 		.4byte	.LVL424
 6390 1473 3A120000 		.4byte	0x123a
 6391 1477 00       		.byte	0
 6392 1478 15       		.uleb128 0x15
 6393 1479 9D000000 		.4byte	.LASF107
 6394 147d 01       		.byte	0x1
 6395 147e D108     		.2byte	0x8d1
 6396 1480 00000000 		.4byte	.LFB29
 6397 1484 18000000 		.4byte	.LFE29-.LFB29
 6398 1488 01       		.uleb128 0x1
 6399 1489 9C       		.byte	0x9c
ARM GAS  C:\Users\Esteban\AppData\Local\Temp\ccHxlO6N.s 			page 181


 6400 148a C8140000 		.4byte	0x14c8
 6401 148e 1B       		.uleb128 0x1b
 6402 148f EA030000 		.4byte	.LASF77
 6403 1493 01       		.byte	0x1
 6404 1494 D108     		.2byte	0x8d1
 6405 1496 A9000000 		.4byte	0xa9
 6406 149a 05170000 		.4byte	.LLST145
 6407 149e 1B       		.uleb128 0x1b
 6408 149f FD090000 		.4byte	.LASF33
 6409 14a3 01       		.byte	0x1
 6410 14a4 D108     		.2byte	0x8d1
 6411 14a6 6B000000 		.4byte	0x6b
 6412 14aa 31170000 		.4byte	.LLST146
 6413 14ae 13       		.uleb128 0x13
 6414 14af B4080000 		.4byte	.LASF85
 6415 14b3 01       		.byte	0x1
 6416 14b4 D408     		.2byte	0x8d4
 6417 14b6 77000000 		.4byte	0x77
 6418 14ba 5D170000 		.4byte	.LLST147
 6419 14be 0F       		.uleb128 0xf
 6420 14bf 0C000000 		.4byte	.LVL431
 6421 14c3 3A120000 		.4byte	0x123a
 6422 14c7 00       		.byte	0
 6423 14c8 15       		.uleb128 0x15
 6424 14c9 6D040000 		.4byte	.LASF108
 6425 14cd 01       		.byte	0x1
 6426 14ce 7D0D     		.2byte	0xd7d
 6427 14d0 00000000 		.4byte	.LFB40
 6428 14d4 3C000000 		.4byte	.LFE40-.LFB40
 6429 14d8 01       		.uleb128 0x1
 6430 14d9 9C       		.byte	0x9c
 6431 14da 11150000 		.4byte	0x1511
 6432 14de 1B       		.uleb128 0x1b
 6433 14df CF040000 		.4byte	.LASF109
 6434 14e3 01       		.byte	0x1
 6435 14e4 7D0D     		.2byte	0xd7d
 6436 14e6 6B000000 		.4byte	0x6b
 6437 14ea 70170000 		.4byte	.LLST148
 6438 14ee 1B       		.uleb128 0x1b
 6439 14ef FD090000 		.4byte	.LASF33
 6440 14f3 01       		.byte	0x1
 6441 14f4 7D0D     		.2byte	0xd7d
 6442 14f6 6B000000 		.4byte	0x6b
 6443 14fa 91170000 		.4byte	.LLST149
 6444 14fe 14       		.uleb128 0x14
 6445 14ff B6050000 		.4byte	.LASF110
 6446 1503 01       		.byte	0x1
 6447 1504 810D     		.2byte	0xd81
 6448 1506 11150000 		.4byte	0x1511
 6449 150a 05       		.uleb128 0x5
 6450 150b 03       		.byte	0x3
 6451 150c 30020000 		.4byte	Segments_tempCom.5655
 6452 1510 00       		.byte	0
 6453 1511 1C       		.uleb128 0x1c
 6454 1512 A8070000 		.4byte	0x7a8
 6455 1516 18       		.uleb128 0x18
 6456 1517 DA050000 		.4byte	.LASF111
ARM GAS  C:\Users\Esteban\AppData\Local\Temp\ccHxlO6N.s 			page 182


 6457 151b 01       		.byte	0x1
 6458 151c AC0D     		.2byte	0xdac
 6459 151e 6B000000 		.4byte	0x6b
 6460 1522 00000000 		.4byte	.LFB41
 6461 1526 0C000000 		.4byte	.LFE41-.LFB41
 6462 152a 01       		.uleb128 0x1
 6463 152b 9C       		.byte	0x9c
 6464 152c 41150000 		.4byte	0x1541
 6465 1530 1B       		.uleb128 0x1b
 6466 1531 FD090000 		.4byte	.LASF33
 6467 1535 01       		.byte	0x1
 6468 1536 AC0D     		.2byte	0xdac
 6469 1538 6B000000 		.4byte	0x6b
 6470 153c B2170000 		.4byte	.LLST150
 6471 1540 00       		.byte	0
 6472 1541 06       		.uleb128 0x6
 6473 1542 6B000000 		.4byte	0x6b
 6474 1546 51150000 		.4byte	0x1551
 6475 154a 07       		.uleb128 0x7
 6476 154b DD000000 		.4byte	0xdd
 6477 154f 0F       		.byte	0xf
 6478 1550 00       		.byte	0
 6479 1551 1E       		.uleb128 0x1e
 6480 1552 C7050000 		.4byte	.LASF112
 6481 1556 01       		.byte	0x1
 6482 1557 21       		.byte	0x21
 6483 1558 41150000 		.4byte	0x1541
 6484 155c 05       		.uleb128 0x5
 6485 155d 03       		.byte	0x3
 6486 155e 00000000 		.4byte	Segments_comBuffer
 6487 1562 1E       		.uleb128 0x1e
 6488 1563 C0000000 		.4byte	.LASF113
 6489 1567 01       		.byte	0x1
 6490 1568 33       		.byte	0x33
 6491 1569 CD000000 		.4byte	0xcd
 6492 156d 05       		.uleb128 0x5
 6493 156e 03       		.byte	0x3
 6494 156f 18000000 		.4byte	Segments_brightnessReg
 6495 1573 1E       		.uleb128 0x1e
 6496 1574 C4090000 		.4byte	.LASF114
 6497 1578 01       		.byte	0x1
 6498 1579 37       		.byte	0x37
 6499 157a 6B000000 		.4byte	0x6b
 6500 157e 05       		.uleb128 0x5
 6501 157f 03       		.byte	0x3
 6502 1580 00000000 		.4byte	Segments_dmaComChannel
 6503 1584 1E       		.uleb128 0x1e
 6504 1585 A2080000 		.4byte	.LASF115
 6505 1589 01       		.byte	0x1
 6506 158a 38       		.byte	0x38
 6507 158b 98080000 		.4byte	0x898
 6508 158f 05       		.uleb128 0x5
 6509 1590 03       		.byte	0x3
 6510 1591 04000000 		.4byte	Segments_dmaComTd
 6511 1595 1E       		.uleb128 0x1e
 6512 1596 46070000 		.4byte	.LASF116
 6513 159a 01       		.byte	0x1
ARM GAS  C:\Users\Esteban\AppData\Local\Temp\ccHxlO6N.s 			page 183


 6514 159b 3A       		.byte	0x3a
 6515 159c 6B000000 		.4byte	0x6b
 6516 15a0 05       		.uleb128 0x5
 6517 15a1 03       		.byte	0x3
 6518 15a2 0C000000 		.4byte	Segments_dmaSegChannel
 6519 15a6 1E       		.uleb128 0x1e
 6520 15a7 91030000 		.4byte	.LASF117
 6521 15ab 01       		.byte	0x1
 6522 15ac 3B       		.byte	0x3b
 6523 15ad CD000000 		.4byte	0xcd
 6524 15b1 05       		.uleb128 0x5
 6525 15b2 03       		.byte	0x3
 6526 15b3 10000000 		.4byte	Segments_dmaSegLTd
 6527 15b7 1E       		.uleb128 0x1e
 6528 15b8 91070000 		.4byte	.LASF118
 6529 15bc 01       		.byte	0x1
 6530 15bd 3E       		.byte	0x3e
 6531 15be 6B000000 		.4byte	0x6b
 6532 15c2 05       		.uleb128 0x5
 6533 15c3 03       		.byte	0x3
 6534 15c4 14000000 		.4byte	Segments_dmaBCChannel
 6535 15c8 1E       		.uleb128 0x1e
 6536 15c9 84040000 		.4byte	.LASF119
 6537 15cd 01       		.byte	0x1
 6538 15ce 3F       		.byte	0x3f
 6539 15cf 6B000000 		.4byte	0x6b
 6540 15d3 05       		.uleb128 0x5
 6541 15d4 03       		.byte	0x3
 6542 15d5 15000000 		.4byte	Segments_dmaBCTd
 6543 15d9 1F       		.uleb128 0x1f
 6544 15da 2B020000 		.4byte	.LASF120
 6545 15de 01       		.byte	0x1
 6546 15df 42       		.byte	0x42
 6547 15e0 6B000000 		.4byte	0x6b
 6548 15e4 05       		.uleb128 0x5
 6549 15e5 03       		.byte	0x3
 6550 15e6 00000000 		.4byte	Segments_initVar
 6551 15ea 1F       		.uleb128 0x1f
 6552 15eb BC040000 		.4byte	.LASF121
 6553 15ef 01       		.byte	0x1
 6554 15f0 43       		.byte	0x43
 6555 15f1 6B000000 		.4byte	0x6b
 6556 15f5 05       		.uleb128 0x5
 6557 15f6 03       		.byte	0x3
 6558 15f7 00000000 		.4byte	Segments_enableVar
 6559 15fb 1F       		.uleb128 0x1f
 6560 15fc 42010000 		.4byte	.LASF122
 6561 1600 01       		.byte	0x1
 6562 1601 29       		.byte	0x29
 6563 1602 CD000000 		.4byte	0xcd
 6564 1606 05       		.uleb128 0x5
 6565 1607 03       		.byte	0x3
 6566 1608 00000000 		.4byte	Segments_segLBuffer
 6567 160c 20       		.uleb128 0x20
 6568 160d FA010000 		.4byte	.LASF123
 6569 1611 FA010000 		.4byte	.LASF123
 6570 1615 04       		.byte	0x4
ARM GAS  C:\Users\Esteban\AppData\Local\Temp\ccHxlO6N.s 			page 184


 6571 1616 1E       		.byte	0x1e
 6572 1617 20       		.uleb128 0x20
 6573 1618 2D040000 		.4byte	.LASF124
 6574 161c 2D040000 		.4byte	.LASF124
 6575 1620 03       		.byte	0x3
 6576 1621 38       		.byte	0x38
 6577 1622 20       		.uleb128 0x20
 6578 1623 23010000 		.4byte	.LASF125
 6579 1627 23010000 		.4byte	.LASF125
 6580 162b 03       		.byte	0x3
 6581 162c 3B       		.byte	0x3b
 6582 162d 20       		.uleb128 0x20
 6583 162e 05070000 		.4byte	.LASF126
 6584 1632 05070000 		.4byte	.LASF126
 6585 1636 03       		.byte	0x3
 6586 1637 3F       		.byte	0x3f
 6587 1638 20       		.uleb128 0x20
 6588 1639 6E010000 		.4byte	.LASF127
 6589 163d 6E010000 		.4byte	.LASF127
 6590 1641 05       		.byte	0x5
 6591 1642 1E       		.byte	0x1e
 6592 1643 20       		.uleb128 0x20
 6593 1644 8D010000 		.4byte	.LASF128
 6594 1648 8D010000 		.4byte	.LASF128
 6595 164c 06       		.byte	0x6
 6596 164d 1E       		.byte	0x1e
 6597 164e 20       		.uleb128 0x20
 6598 164f 1E090000 		.4byte	.LASF129
 6599 1653 1E090000 		.4byte	.LASF129
 6600 1657 03       		.byte	0x3
 6601 1658 2F       		.byte	0x2f
 6602 1659 20       		.uleb128 0x20
 6603 165a 67070000 		.4byte	.LASF130
 6604 165e 67070000 		.4byte	.LASF130
 6605 1662 03       		.byte	0x3
 6606 1663 29       		.byte	0x29
 6607 1664 20       		.uleb128 0x20
 6608 1665 EB010000 		.4byte	.LASF131
 6609 1669 EB010000 		.4byte	.LASF131
 6610 166d 03       		.byte	0x3
 6611 166e 2A       		.byte	0x2a
 6612 166f 20       		.uleb128 0x20
 6613 1670 4C000000 		.4byte	.LASF132
 6614 1674 4C000000 		.4byte	.LASF132
 6615 1678 07       		.byte	0x7
 6616 1679 2F       		.byte	0x2f
 6617 167a 20       		.uleb128 0x20
 6618 167b 7F030000 		.4byte	.LASF133
 6619 167f 7F030000 		.4byte	.LASF133
 6620 1683 03       		.byte	0x3
 6621 1684 30       		.byte	0x30
 6622 1685 20       		.uleb128 0x20
 6623 1686 85000000 		.4byte	.LASF134
 6624 168a 85000000 		.4byte	.LASF134
 6625 168e 08       		.byte	0x8
 6626 168f 21       		.byte	0x21
 6627 1690 00       		.byte	0
ARM GAS  C:\Users\Esteban\AppData\Local\Temp\ccHxlO6N.s 			page 185


 6628              		.section	.debug_abbrev,"",%progbits
 6629              	.Ldebug_abbrev0:
 6630 0000 01       		.uleb128 0x1
 6631 0001 11       		.uleb128 0x11
 6632 0002 01       		.byte	0x1
 6633 0003 25       		.uleb128 0x25
 6634 0004 0E       		.uleb128 0xe
 6635 0005 13       		.uleb128 0x13
 6636 0006 0B       		.uleb128 0xb
 6637 0007 03       		.uleb128 0x3
 6638 0008 0E       		.uleb128 0xe
 6639 0009 1B       		.uleb128 0x1b
 6640 000a 0E       		.uleb128 0xe
 6641 000b 55       		.uleb128 0x55
 6642 000c 17       		.uleb128 0x17
 6643 000d 11       		.uleb128 0x11
 6644 000e 01       		.uleb128 0x1
 6645 000f 10       		.uleb128 0x10
 6646 0010 17       		.uleb128 0x17
 6647 0011 00       		.byte	0
 6648 0012 00       		.byte	0
 6649 0013 02       		.uleb128 0x2
 6650 0014 24       		.uleb128 0x24
 6651 0015 00       		.byte	0
 6652 0016 0B       		.uleb128 0xb
 6653 0017 0B       		.uleb128 0xb
 6654 0018 3E       		.uleb128 0x3e
 6655 0019 0B       		.uleb128 0xb
 6656 001a 03       		.uleb128 0x3
 6657 001b 0E       		.uleb128 0xe
 6658 001c 00       		.byte	0
 6659 001d 00       		.byte	0
 6660 001e 03       		.uleb128 0x3
 6661 001f 24       		.uleb128 0x24
 6662 0020 00       		.byte	0
 6663 0021 0B       		.uleb128 0xb
 6664 0022 0B       		.uleb128 0xb
 6665 0023 3E       		.uleb128 0x3e
 6666 0024 0B       		.uleb128 0xb
 6667 0025 03       		.uleb128 0x3
 6668 0026 08       		.uleb128 0x8
 6669 0027 00       		.byte	0
 6670 0028 00       		.byte	0
 6671 0029 04       		.uleb128 0x4
 6672 002a 16       		.uleb128 0x16
 6673 002b 00       		.byte	0
 6674 002c 03       		.uleb128 0x3
 6675 002d 0E       		.uleb128 0xe
 6676 002e 3A       		.uleb128 0x3a
 6677 002f 0B       		.uleb128 0xb
 6678 0030 3B       		.uleb128 0x3b
 6679 0031 05       		.uleb128 0x5
 6680 0032 49       		.uleb128 0x49
 6681 0033 13       		.uleb128 0x13
 6682 0034 00       		.byte	0
 6683 0035 00       		.byte	0
 6684 0036 05       		.uleb128 0x5
ARM GAS  C:\Users\Esteban\AppData\Local\Temp\ccHxlO6N.s 			page 186


 6685 0037 35       		.uleb128 0x35
 6686 0038 00       		.byte	0
 6687 0039 49       		.uleb128 0x49
 6688 003a 13       		.uleb128 0x13
 6689 003b 00       		.byte	0
 6690 003c 00       		.byte	0
 6691 003d 06       		.uleb128 0x6
 6692 003e 01       		.uleb128 0x1
 6693 003f 01       		.byte	0x1
 6694 0040 49       		.uleb128 0x49
 6695 0041 13       		.uleb128 0x13
 6696 0042 01       		.uleb128 0x1
 6697 0043 13       		.uleb128 0x13
 6698 0044 00       		.byte	0
 6699 0045 00       		.byte	0
 6700 0046 07       		.uleb128 0x7
 6701 0047 21       		.uleb128 0x21
 6702 0048 00       		.byte	0
 6703 0049 49       		.uleb128 0x49
 6704 004a 13       		.uleb128 0x13
 6705 004b 2F       		.uleb128 0x2f
 6706 004c 0B       		.uleb128 0xb
 6707 004d 00       		.byte	0
 6708 004e 00       		.byte	0
 6709 004f 08       		.uleb128 0x8
 6710 0050 13       		.uleb128 0x13
 6711 0051 01       		.byte	0x1
 6712 0052 03       		.uleb128 0x3
 6713 0053 0E       		.uleb128 0xe
 6714 0054 0B       		.uleb128 0xb
 6715 0055 0B       		.uleb128 0xb
 6716 0056 3A       		.uleb128 0x3a
 6717 0057 0B       		.uleb128 0xb
 6718 0058 3B       		.uleb128 0x3b
 6719 0059 0B       		.uleb128 0xb
 6720 005a 01       		.uleb128 0x1
 6721 005b 13       		.uleb128 0x13
 6722 005c 00       		.byte	0
 6723 005d 00       		.byte	0
 6724 005e 09       		.uleb128 0x9
 6725 005f 0D       		.uleb128 0xd
 6726 0060 00       		.byte	0
 6727 0061 03       		.uleb128 0x3
 6728 0062 0E       		.uleb128 0xe
 6729 0063 3A       		.uleb128 0x3a
 6730 0064 0B       		.uleb128 0xb
 6731 0065 3B       		.uleb128 0x3b
 6732 0066 0B       		.uleb128 0xb
 6733 0067 49       		.uleb128 0x49
 6734 0068 13       		.uleb128 0x13
 6735 0069 38       		.uleb128 0x38
 6736 006a 0B       		.uleb128 0xb
 6737 006b 00       		.byte	0
 6738 006c 00       		.byte	0
 6739 006d 0A       		.uleb128 0xa
 6740 006e 16       		.uleb128 0x16
 6741 006f 00       		.byte	0
ARM GAS  C:\Users\Esteban\AppData\Local\Temp\ccHxlO6N.s 			page 187


 6742 0070 03       		.uleb128 0x3
 6743 0071 0E       		.uleb128 0xe
 6744 0072 3A       		.uleb128 0x3a
 6745 0073 0B       		.uleb128 0xb
 6746 0074 3B       		.uleb128 0x3b
 6747 0075 0B       		.uleb128 0xb
 6748 0076 49       		.uleb128 0x49
 6749 0077 13       		.uleb128 0x13
 6750 0078 00       		.byte	0
 6751 0079 00       		.byte	0
 6752 007a 0B       		.uleb128 0xb
 6753 007b 2E       		.uleb128 0x2e
 6754 007c 01       		.byte	0x1
 6755 007d 03       		.uleb128 0x3
 6756 007e 0E       		.uleb128 0xe
 6757 007f 3A       		.uleb128 0x3a
 6758 0080 0B       		.uleb128 0xb
 6759 0081 3B       		.uleb128 0x3b
 6760 0082 0B       		.uleb128 0xb
 6761 0083 27       		.uleb128 0x27
 6762 0084 19       		.uleb128 0x19
 6763 0085 11       		.uleb128 0x11
 6764 0086 01       		.uleb128 0x1
 6765 0087 12       		.uleb128 0x12
 6766 0088 06       		.uleb128 0x6
 6767 0089 40       		.uleb128 0x40
 6768 008a 18       		.uleb128 0x18
 6769 008b 9742     		.uleb128 0x2117
 6770 008d 19       		.uleb128 0x19
 6771 008e 01       		.uleb128 0x1
 6772 008f 13       		.uleb128 0x13
 6773 0090 00       		.byte	0
 6774 0091 00       		.byte	0
 6775 0092 0C       		.uleb128 0xc
 6776 0093 34       		.uleb128 0x34
 6777 0094 00       		.byte	0
 6778 0095 03       		.uleb128 0x3
 6779 0096 08       		.uleb128 0x8
 6780 0097 3A       		.uleb128 0x3a
 6781 0098 0B       		.uleb128 0xb
 6782 0099 3B       		.uleb128 0x3b
 6783 009a 0B       		.uleb128 0xb
 6784 009b 49       		.uleb128 0x49
 6785 009c 13       		.uleb128 0x13
 6786 009d 02       		.uleb128 0x2
 6787 009e 17       		.uleb128 0x17
 6788 009f 00       		.byte	0
 6789 00a0 00       		.byte	0
 6790 00a1 0D       		.uleb128 0xd
 6791 00a2 898201   		.uleb128 0x4109
 6792 00a5 01       		.byte	0x1
 6793 00a6 11       		.uleb128 0x11
 6794 00a7 01       		.uleb128 0x1
 6795 00a8 31       		.uleb128 0x31
 6796 00a9 13       		.uleb128 0x13
 6797 00aa 01       		.uleb128 0x1
 6798 00ab 13       		.uleb128 0x13
ARM GAS  C:\Users\Esteban\AppData\Local\Temp\ccHxlO6N.s 			page 188


 6799 00ac 00       		.byte	0
 6800 00ad 00       		.byte	0
 6801 00ae 0E       		.uleb128 0xe
 6802 00af 8A8201   		.uleb128 0x410a
 6803 00b2 00       		.byte	0
 6804 00b3 02       		.uleb128 0x2
 6805 00b4 18       		.uleb128 0x18
 6806 00b5 9142     		.uleb128 0x2111
 6807 00b7 18       		.uleb128 0x18
 6808 00b8 00       		.byte	0
 6809 00b9 00       		.byte	0
 6810 00ba 0F       		.uleb128 0xf
 6811 00bb 898201   		.uleb128 0x4109
 6812 00be 00       		.byte	0
 6813 00bf 11       		.uleb128 0x11
 6814 00c0 01       		.uleb128 0x1
 6815 00c1 31       		.uleb128 0x31
 6816 00c2 13       		.uleb128 0x13
 6817 00c3 00       		.byte	0
 6818 00c4 00       		.byte	0
 6819 00c5 10       		.uleb128 0x10
 6820 00c6 898201   		.uleb128 0x4109
 6821 00c9 01       		.byte	0x1
 6822 00ca 11       		.uleb128 0x11
 6823 00cb 01       		.uleb128 0x1
 6824 00cc 31       		.uleb128 0x31
 6825 00cd 13       		.uleb128 0x13
 6826 00ce 00       		.byte	0
 6827 00cf 00       		.byte	0
 6828 00d0 11       		.uleb128 0x11
 6829 00d1 2E       		.uleb128 0x2e
 6830 00d2 01       		.byte	0x1
 6831 00d3 03       		.uleb128 0x3
 6832 00d4 0E       		.uleb128 0xe
 6833 00d5 3A       		.uleb128 0x3a
 6834 00d6 0B       		.uleb128 0xb
 6835 00d7 3B       		.uleb128 0x3b
 6836 00d8 05       		.uleb128 0x5
 6837 00d9 27       		.uleb128 0x27
 6838 00da 19       		.uleb128 0x19
 6839 00db 11       		.uleb128 0x11
 6840 00dc 01       		.uleb128 0x1
 6841 00dd 12       		.uleb128 0x12
 6842 00de 06       		.uleb128 0x6
 6843 00df 40       		.uleb128 0x40
 6844 00e0 18       		.uleb128 0x18
 6845 00e1 9742     		.uleb128 0x2117
 6846 00e3 19       		.uleb128 0x19
 6847 00e4 01       		.uleb128 0x1
 6848 00e5 13       		.uleb128 0x13
 6849 00e6 00       		.byte	0
 6850 00e7 00       		.byte	0
 6851 00e8 12       		.uleb128 0x12
 6852 00e9 34       		.uleb128 0x34
 6853 00ea 00       		.byte	0
 6854 00eb 03       		.uleb128 0x3
 6855 00ec 08       		.uleb128 0x8
ARM GAS  C:\Users\Esteban\AppData\Local\Temp\ccHxlO6N.s 			page 189


 6856 00ed 3A       		.uleb128 0x3a
 6857 00ee 0B       		.uleb128 0xb
 6858 00ef 3B       		.uleb128 0x3b
 6859 00f0 05       		.uleb128 0x5
 6860 00f1 49       		.uleb128 0x49
 6861 00f2 13       		.uleb128 0x13
 6862 00f3 02       		.uleb128 0x2
 6863 00f4 17       		.uleb128 0x17
 6864 00f5 00       		.byte	0
 6865 00f6 00       		.byte	0
 6866 00f7 13       		.uleb128 0x13
 6867 00f8 34       		.uleb128 0x34
 6868 00f9 00       		.byte	0
 6869 00fa 03       		.uleb128 0x3
 6870 00fb 0E       		.uleb128 0xe
 6871 00fc 3A       		.uleb128 0x3a
 6872 00fd 0B       		.uleb128 0xb
 6873 00fe 3B       		.uleb128 0x3b
 6874 00ff 05       		.uleb128 0x5
 6875 0100 49       		.uleb128 0x49
 6876 0101 13       		.uleb128 0x13
 6877 0102 02       		.uleb128 0x2
 6878 0103 17       		.uleb128 0x17
 6879 0104 00       		.byte	0
 6880 0105 00       		.byte	0
 6881 0106 14       		.uleb128 0x14
 6882 0107 34       		.uleb128 0x34
 6883 0108 00       		.byte	0
 6884 0109 03       		.uleb128 0x3
 6885 010a 0E       		.uleb128 0xe
 6886 010b 3A       		.uleb128 0x3a
 6887 010c 0B       		.uleb128 0xb
 6888 010d 3B       		.uleb128 0x3b
 6889 010e 05       		.uleb128 0x5
 6890 010f 49       		.uleb128 0x49
 6891 0110 13       		.uleb128 0x13
 6892 0111 02       		.uleb128 0x2
 6893 0112 18       		.uleb128 0x18
 6894 0113 00       		.byte	0
 6895 0114 00       		.byte	0
 6896 0115 15       		.uleb128 0x15
 6897 0116 2E       		.uleb128 0x2e
 6898 0117 01       		.byte	0x1
 6899 0118 3F       		.uleb128 0x3f
 6900 0119 19       		.uleb128 0x19
 6901 011a 03       		.uleb128 0x3
 6902 011b 0E       		.uleb128 0xe
 6903 011c 3A       		.uleb128 0x3a
 6904 011d 0B       		.uleb128 0xb
 6905 011e 3B       		.uleb128 0x3b
 6906 011f 05       		.uleb128 0x5
 6907 0120 27       		.uleb128 0x27
 6908 0121 19       		.uleb128 0x19
 6909 0122 11       		.uleb128 0x11
 6910 0123 01       		.uleb128 0x1
 6911 0124 12       		.uleb128 0x12
 6912 0125 06       		.uleb128 0x6
ARM GAS  C:\Users\Esteban\AppData\Local\Temp\ccHxlO6N.s 			page 190


 6913 0126 40       		.uleb128 0x40
 6914 0127 18       		.uleb128 0x18
 6915 0128 9742     		.uleb128 0x2117
 6916 012a 19       		.uleb128 0x19
 6917 012b 01       		.uleb128 0x1
 6918 012c 13       		.uleb128 0x13
 6919 012d 00       		.byte	0
 6920 012e 00       		.byte	0
 6921 012f 16       		.uleb128 0x16
 6922 0130 05       		.uleb128 0x5
 6923 0131 00       		.byte	0
 6924 0132 03       		.uleb128 0x3
 6925 0133 0E       		.uleb128 0xe
 6926 0134 3A       		.uleb128 0x3a
 6927 0135 0B       		.uleb128 0xb
 6928 0136 3B       		.uleb128 0x3b
 6929 0137 05       		.uleb128 0x5
 6930 0138 49       		.uleb128 0x49
 6931 0139 13       		.uleb128 0x13
 6932 013a 02       		.uleb128 0x2
 6933 013b 18       		.uleb128 0x18
 6934 013c 00       		.byte	0
 6935 013d 00       		.byte	0
 6936 013e 17       		.uleb128 0x17
 6937 013f 05       		.uleb128 0x5
 6938 0140 00       		.byte	0
 6939 0141 03       		.uleb128 0x3
 6940 0142 08       		.uleb128 0x8
 6941 0143 3A       		.uleb128 0x3a
 6942 0144 0B       		.uleb128 0xb
 6943 0145 3B       		.uleb128 0x3b
 6944 0146 05       		.uleb128 0x5
 6945 0147 49       		.uleb128 0x49
 6946 0148 13       		.uleb128 0x13
 6947 0149 02       		.uleb128 0x2
 6948 014a 17       		.uleb128 0x17
 6949 014b 00       		.byte	0
 6950 014c 00       		.byte	0
 6951 014d 18       		.uleb128 0x18
 6952 014e 2E       		.uleb128 0x2e
 6953 014f 01       		.byte	0x1
 6954 0150 3F       		.uleb128 0x3f
 6955 0151 19       		.uleb128 0x19
 6956 0152 03       		.uleb128 0x3
 6957 0153 0E       		.uleb128 0xe
 6958 0154 3A       		.uleb128 0x3a
 6959 0155 0B       		.uleb128 0xb
 6960 0156 3B       		.uleb128 0x3b
 6961 0157 05       		.uleb128 0x5
 6962 0158 27       		.uleb128 0x27
 6963 0159 19       		.uleb128 0x19
 6964 015a 49       		.uleb128 0x49
 6965 015b 13       		.uleb128 0x13
 6966 015c 11       		.uleb128 0x11
 6967 015d 01       		.uleb128 0x1
 6968 015e 12       		.uleb128 0x12
 6969 015f 06       		.uleb128 0x6
ARM GAS  C:\Users\Esteban\AppData\Local\Temp\ccHxlO6N.s 			page 191


 6970 0160 40       		.uleb128 0x40
 6971 0161 18       		.uleb128 0x18
 6972 0162 9742     		.uleb128 0x2117
 6973 0164 19       		.uleb128 0x19
 6974 0165 01       		.uleb128 0x1
 6975 0166 13       		.uleb128 0x13
 6976 0167 00       		.byte	0
 6977 0168 00       		.byte	0
 6978 0169 19       		.uleb128 0x19
 6979 016a 05       		.uleb128 0x5
 6980 016b 00       		.byte	0
 6981 016c 03       		.uleb128 0x3
 6982 016d 08       		.uleb128 0x8
 6983 016e 3A       		.uleb128 0x3a
 6984 016f 0B       		.uleb128 0xb
 6985 0170 3B       		.uleb128 0x3b
 6986 0171 05       		.uleb128 0x5
 6987 0172 49       		.uleb128 0x49
 6988 0173 13       		.uleb128 0x13
 6989 0174 02       		.uleb128 0x2
 6990 0175 18       		.uleb128 0x18
 6991 0176 00       		.byte	0
 6992 0177 00       		.byte	0
 6993 0178 1A       		.uleb128 0x1a
 6994 0179 34       		.uleb128 0x34
 6995 017a 00       		.byte	0
 6996 017b 03       		.uleb128 0x3
 6997 017c 0E       		.uleb128 0xe
 6998 017d 3A       		.uleb128 0x3a
 6999 017e 0B       		.uleb128 0xb
 7000 017f 3B       		.uleb128 0x3b
 7001 0180 05       		.uleb128 0x5
 7002 0181 49       		.uleb128 0x49
 7003 0182 13       		.uleb128 0x13
 7004 0183 1C       		.uleb128 0x1c
 7005 0184 0D       		.uleb128 0xd
 7006 0185 00       		.byte	0
 7007 0186 00       		.byte	0
 7008 0187 1B       		.uleb128 0x1b
 7009 0188 05       		.uleb128 0x5
 7010 0189 00       		.byte	0
 7011 018a 03       		.uleb128 0x3
 7012 018b 0E       		.uleb128 0xe
 7013 018c 3A       		.uleb128 0x3a
 7014 018d 0B       		.uleb128 0xb
 7015 018e 3B       		.uleb128 0x3b
 7016 018f 05       		.uleb128 0x5
 7017 0190 49       		.uleb128 0x49
 7018 0191 13       		.uleb128 0x13
 7019 0192 02       		.uleb128 0x2
 7020 0193 17       		.uleb128 0x17
 7021 0194 00       		.byte	0
 7022 0195 00       		.byte	0
 7023 0196 1C       		.uleb128 0x1c
 7024 0197 26       		.uleb128 0x26
 7025 0198 00       		.byte	0
 7026 0199 49       		.uleb128 0x49
ARM GAS  C:\Users\Esteban\AppData\Local\Temp\ccHxlO6N.s 			page 192


 7027 019a 13       		.uleb128 0x13
 7028 019b 00       		.byte	0
 7029 019c 00       		.byte	0
 7030 019d 1D       		.uleb128 0x1d
 7031 019e 0F       		.uleb128 0xf
 7032 019f 00       		.byte	0
 7033 01a0 0B       		.uleb128 0xb
 7034 01a1 0B       		.uleb128 0xb
 7035 01a2 49       		.uleb128 0x49
 7036 01a3 13       		.uleb128 0x13
 7037 01a4 00       		.byte	0
 7038 01a5 00       		.byte	0
 7039 01a6 1E       		.uleb128 0x1e
 7040 01a7 34       		.uleb128 0x34
 7041 01a8 00       		.byte	0
 7042 01a9 03       		.uleb128 0x3
 7043 01aa 0E       		.uleb128 0xe
 7044 01ab 3A       		.uleb128 0x3a
 7045 01ac 0B       		.uleb128 0xb
 7046 01ad 3B       		.uleb128 0x3b
 7047 01ae 0B       		.uleb128 0xb
 7048 01af 49       		.uleb128 0x49
 7049 01b0 13       		.uleb128 0x13
 7050 01b1 02       		.uleb128 0x2
 7051 01b2 18       		.uleb128 0x18
 7052 01b3 00       		.byte	0
 7053 01b4 00       		.byte	0
 7054 01b5 1F       		.uleb128 0x1f
 7055 01b6 34       		.uleb128 0x34
 7056 01b7 00       		.byte	0
 7057 01b8 03       		.uleb128 0x3
 7058 01b9 0E       		.uleb128 0xe
 7059 01ba 3A       		.uleb128 0x3a
 7060 01bb 0B       		.uleb128 0xb
 7061 01bc 3B       		.uleb128 0x3b
 7062 01bd 0B       		.uleb128 0xb
 7063 01be 49       		.uleb128 0x49
 7064 01bf 13       		.uleb128 0x13
 7065 01c0 3F       		.uleb128 0x3f
 7066 01c1 19       		.uleb128 0x19
 7067 01c2 02       		.uleb128 0x2
 7068 01c3 18       		.uleb128 0x18
 7069 01c4 00       		.byte	0
 7070 01c5 00       		.byte	0
 7071 01c6 20       		.uleb128 0x20
 7072 01c7 2E       		.uleb128 0x2e
 7073 01c8 00       		.byte	0
 7074 01c9 3F       		.uleb128 0x3f
 7075 01ca 19       		.uleb128 0x19
 7076 01cb 3C       		.uleb128 0x3c
 7077 01cc 19       		.uleb128 0x19
 7078 01cd 6E       		.uleb128 0x6e
 7079 01ce 0E       		.uleb128 0xe
 7080 01cf 03       		.uleb128 0x3
 7081 01d0 0E       		.uleb128 0xe
 7082 01d1 3A       		.uleb128 0x3a
 7083 01d2 0B       		.uleb128 0xb
ARM GAS  C:\Users\Esteban\AppData\Local\Temp\ccHxlO6N.s 			page 193


 7084 01d3 3B       		.uleb128 0x3b
 7085 01d4 0B       		.uleb128 0xb
 7086 01d5 00       		.byte	0
 7087 01d6 00       		.byte	0
 7088 01d7 00       		.byte	0
 7089              		.section	.debug_loc,"",%progbits
 7090              	.Ldebug_loc0:
 7091              	.LLST0:
 7092 0000 1C000000 		.4byte	.LVL1
 7093 0004 28000000 		.4byte	.LVL3
 7094 0008 0100     		.2byte	0x1
 7095 000a 54       		.byte	0x54
 7096 000b 2A000000 		.4byte	.LVL4
 7097 000f 2C000000 		.4byte	.LVL5
 7098 0013 0100     		.2byte	0x1
 7099 0015 54       		.byte	0x54
 7100 0016 2E000000 		.4byte	.LVL6
 7101 001a 34000000 		.4byte	.LVL7
 7102 001e 0100     		.2byte	0x1
 7103 0020 54       		.byte	0x54
 7104 0021 36000000 		.4byte	.LVL8
 7105 0025 68000000 		.4byte	.LVL11
 7106 0029 0100     		.2byte	0x1
 7107 002b 54       		.byte	0x54
 7108 002c 6A000000 		.4byte	.LVL12
 7109 0030 7C000000 		.4byte	.LVL13
 7110 0034 0100     		.2byte	0x1
 7111 0036 54       		.byte	0x54
 7112 0037 7C000000 		.4byte	.LVL13
 7113 003b 80000000 		.4byte	.LVL14
 7114 003f 0200     		.2byte	0x2
 7115 0041 30       		.byte	0x30
 7116 0042 9F       		.byte	0x9f
 7117 0043 80000000 		.4byte	.LVL14
 7118 0047 96000000 		.4byte	.LVL16
 7119 004b 0100     		.2byte	0x1
 7120 004d 54       		.byte	0x54
 7121 004e 98000000 		.4byte	.LVL17
 7122 0052 9C000000 		.4byte	.LVL18
 7123 0056 0100     		.2byte	0x1
 7124 0058 54       		.byte	0x54
 7125 0059 B6000000 		.4byte	.LVL20
 7126 005d C2000000 		.4byte	.LVL22
 7127 0061 0100     		.2byte	0x1
 7128 0063 54       		.byte	0x54
 7129 0064 C4000000 		.4byte	.LVL23
 7130 0068 C6000000 		.4byte	.LVL24
 7131 006c 0100     		.2byte	0x1
 7132 006e 54       		.byte	0x54
 7133 006f C8000000 		.4byte	.LVL25
 7134 0073 D0000000 		.4byte	.LVL26
 7135 0077 0100     		.2byte	0x1
 7136 0079 54       		.byte	0x54
 7137 007a D0000000 		.4byte	.LVL26
 7138 007e DA000000 		.4byte	.LVL27
 7139 0082 0100     		.2byte	0x1
 7140 0084 53       		.byte	0x53
ARM GAS  C:\Users\Esteban\AppData\Local\Temp\ccHxlO6N.s 			page 194


 7141 0085 E6000000 		.4byte	.LVL29
 7142 0089 EE000000 		.4byte	.LVL30
 7143 008d 0100     		.2byte	0x1
 7144 008f 53       		.byte	0x53
 7145 0090 F8000000 		.4byte	.LVL31
 7146 0094 FC000000 		.4byte	.LVL32
 7147 0098 0200     		.2byte	0x2
 7148 009a 30       		.byte	0x30
 7149 009b 9F       		.byte	0x9f
 7150 009c FC000000 		.4byte	.LVL32
 7151 00a0 12010000 		.4byte	.LVL34
 7152 00a4 0100     		.2byte	0x1
 7153 00a6 54       		.byte	0x54
 7154 00a7 14010000 		.4byte	.LVL35
 7155 00ab 18010000 		.4byte	.LVL36
 7156 00af 0100     		.2byte	0x1
 7157 00b1 54       		.byte	0x54
 7158 00b2 00000000 		.4byte	0
 7159 00b6 00000000 		.4byte	0
 7160              	.LLST1:
 7161 00ba 18000000 		.4byte	.LVL47
 7162 00be 1C000000 		.4byte	.LVL48
 7163 00c2 0200     		.2byte	0x2
 7164 00c4 30       		.byte	0x30
 7165 00c5 9F       		.byte	0x9f
 7166 00c6 1C000000 		.4byte	.LVL48
 7167 00ca 58000000 		.4byte	.LVL54
 7168 00ce 0100     		.2byte	0x1
 7169 00d0 56       		.byte	0x56
 7170 00d1 5A000000 		.4byte	.LVL55
 7171 00d5 62000000 		.4byte	.LVL56
 7172 00d9 0100     		.2byte	0x1
 7173 00db 56       		.byte	0x56
 7174 00dc 00000000 		.4byte	0
 7175 00e0 00000000 		.4byte	0
 7176              	.LLST2:
 7177 00e4 24000000 		.4byte	.LVL49
 7178 00e8 5A000000 		.4byte	.LVL55
 7179 00ec 0100     		.2byte	0x1
 7180 00ee 55       		.byte	0x55
 7181 00ef 00000000 		.4byte	0
 7182 00f3 00000000 		.4byte	0
 7183              	.LLST3:
 7184 00f7 04000000 		.4byte	.LVL59
 7185 00fb 08000000 		.4byte	.LVL60
 7186 00ff 0100     		.2byte	0x1
 7187 0101 51       		.byte	0x51
 7188 0102 00000000 		.4byte	0
 7189 0106 00000000 		.4byte	0
 7190              	.LLST4:
 7191 010a 00000000 		.4byte	.LVL61
 7192 010e 0E000000 		.4byte	.LVL63
 7193 0112 0100     		.2byte	0x1
 7194 0114 50       		.byte	0x50
 7195 0115 0E000000 		.4byte	.LVL63
 7196 0119 1C000000 		.4byte	.LFE8
 7197 011d 0400     		.2byte	0x4
ARM GAS  C:\Users\Esteban\AppData\Local\Temp\ccHxlO6N.s 			page 195


 7198 011f F3       		.byte	0xf3
 7199 0120 01       		.uleb128 0x1
 7200 0121 50       		.byte	0x50
 7201 0122 9F       		.byte	0x9f
 7202 0123 00000000 		.4byte	0
 7203 0127 00000000 		.4byte	0
 7204              	.LLST5:
 7205 012b 08000000 		.4byte	.LVL62
 7206 012f 0E000000 		.4byte	.LVL63
 7207 0133 0100     		.2byte	0x1
 7208 0135 50       		.byte	0x50
 7209 0136 0E000000 		.4byte	.LVL63
 7210 013a 16000000 		.4byte	.LVL64
 7211 013e 0400     		.2byte	0x4
 7212 0140 F3       		.byte	0xf3
 7213 0141 01       		.uleb128 0x1
 7214 0142 50       		.byte	0x50
 7215 0143 9F       		.byte	0x9f
 7216 0144 00000000 		.4byte	0
 7217 0148 00000000 		.4byte	0
 7218              	.LLST6:
 7219 014c 00000000 		.4byte	.LVL65
 7220 0150 0E000000 		.4byte	.LVL67
 7221 0154 0100     		.2byte	0x1
 7222 0156 50       		.byte	0x50
 7223 0157 0E000000 		.4byte	.LVL67
 7224 015b 20000000 		.4byte	.LFE9
 7225 015f 0400     		.2byte	0x4
 7226 0161 F3       		.byte	0xf3
 7227 0162 01       		.uleb128 0x1
 7228 0163 50       		.byte	0x50
 7229 0164 9F       		.byte	0x9f
 7230 0165 00000000 		.4byte	0
 7231 0169 00000000 		.4byte	0
 7232              	.LLST7:
 7233 016d 08000000 		.4byte	.LVL66
 7234 0171 0E000000 		.4byte	.LVL67
 7235 0175 0100     		.2byte	0x1
 7236 0177 50       		.byte	0x50
 7237 0178 0E000000 		.4byte	.LVL67
 7238 017c 1A000000 		.4byte	.LVL70
 7239 0180 0400     		.2byte	0x4
 7240 0182 F3       		.byte	0xf3
 7241 0183 01       		.uleb128 0x1
 7242 0184 50       		.byte	0x50
 7243 0185 9F       		.byte	0x9f
 7244 0186 00000000 		.4byte	0
 7245 018a 00000000 		.4byte	0
 7246              	.LLST8:
 7247 018e 10000000 		.4byte	.LVL68
 7248 0192 18000000 		.4byte	.LVL69
 7249 0196 0100     		.2byte	0x1
 7250 0198 50       		.byte	0x50
 7251 0199 00000000 		.4byte	0
 7252 019d 00000000 		.4byte	0
 7253              	.LLST9:
 7254 01a1 00000000 		.4byte	.LVL71
ARM GAS  C:\Users\Esteban\AppData\Local\Temp\ccHxlO6N.s 			page 196


 7255 01a5 0E000000 		.4byte	.LVL73
 7256 01a9 0100     		.2byte	0x1
 7257 01ab 50       		.byte	0x50
 7258 01ac 0E000000 		.4byte	.LVL73
 7259 01b0 1C000000 		.4byte	.LFE10
 7260 01b4 0400     		.2byte	0x4
 7261 01b6 F3       		.byte	0xf3
 7262 01b7 01       		.uleb128 0x1
 7263 01b8 50       		.byte	0x50
 7264 01b9 9F       		.byte	0x9f
 7265 01ba 00000000 		.4byte	0
 7266 01be 00000000 		.4byte	0
 7267              	.LLST10:
 7268 01c2 08000000 		.4byte	.LVL72
 7269 01c6 0E000000 		.4byte	.LVL73
 7270 01ca 0100     		.2byte	0x1
 7271 01cc 50       		.byte	0x50
 7272 01cd 0E000000 		.4byte	.LVL73
 7273 01d1 16000000 		.4byte	.LVL74
 7274 01d5 0400     		.2byte	0x4
 7275 01d7 F3       		.byte	0xf3
 7276 01d8 01       		.uleb128 0x1
 7277 01d9 50       		.byte	0x50
 7278 01da 9F       		.byte	0x9f
 7279 01db 00000000 		.4byte	0
 7280 01df 00000000 		.4byte	0
 7281              	.LLST11:
 7282 01e3 00000000 		.4byte	.LVL75
 7283 01e7 10000000 		.4byte	.LVL77
 7284 01eb 0100     		.2byte	0x1
 7285 01ed 50       		.byte	0x50
 7286 01ee 10000000 		.4byte	.LVL77
 7287 01f2 14000000 		.4byte	.LVL79
 7288 01f6 0400     		.2byte	0x4
 7289 01f8 F3       		.byte	0xf3
 7290 01f9 01       		.uleb128 0x1
 7291 01fa 50       		.byte	0x50
 7292 01fb 9F       		.byte	0x9f
 7293 01fc 14000000 		.4byte	.LVL79
 7294 0200 16000000 		.4byte	.LVL80
 7295 0204 0100     		.2byte	0x1
 7296 0206 50       		.byte	0x50
 7297 0207 16000000 		.4byte	.LVL80
 7298 020b 1C000000 		.4byte	.LVL82
 7299 020f 0400     		.2byte	0x4
 7300 0211 F3       		.byte	0xf3
 7301 0212 01       		.uleb128 0x1
 7302 0213 50       		.byte	0x50
 7303 0214 9F       		.byte	0x9f
 7304 0215 1C000000 		.4byte	.LVL82
 7305 0219 1E000000 		.4byte	.LVL83
 7306 021d 0100     		.2byte	0x1
 7307 021f 50       		.byte	0x50
 7308 0220 1E000000 		.4byte	.LVL83
 7309 0224 24000000 		.4byte	.LFE11
 7310 0228 0400     		.2byte	0x4
 7311 022a F3       		.byte	0xf3
ARM GAS  C:\Users\Esteban\AppData\Local\Temp\ccHxlO6N.s 			page 197


 7312 022b 01       		.uleb128 0x1
 7313 022c 50       		.byte	0x50
 7314 022d 9F       		.byte	0x9f
 7315 022e 00000000 		.4byte	0
 7316 0232 00000000 		.4byte	0
 7317              	.LLST12:
 7318 0236 00000000 		.4byte	.LVL75
 7319 023a 1A000000 		.4byte	.LVL81
 7320 023e 0200     		.2byte	0x2
 7321 0240 30       		.byte	0x30
 7322 0241 9F       		.byte	0x9f
 7323 0242 1A000000 		.4byte	.LVL81
 7324 0246 1C000000 		.4byte	.LVL82
 7325 024a 0100     		.2byte	0x1
 7326 024c 50       		.byte	0x50
 7327 024d 1C000000 		.4byte	.LVL82
 7328 0251 1E000000 		.4byte	.LVL83
 7329 0255 0200     		.2byte	0x2
 7330 0257 30       		.byte	0x30
 7331 0258 9F       		.byte	0x9f
 7332 0259 1E000000 		.4byte	.LVL83
 7333 025d 24000000 		.4byte	.LFE11
 7334 0261 0100     		.2byte	0x1
 7335 0263 50       		.byte	0x50
 7336 0264 00000000 		.4byte	0
 7337 0268 00000000 		.4byte	0
 7338              	.LLST13:
 7339 026c 08000000 		.4byte	.LVL76
 7340 0270 10000000 		.4byte	.LVL77
 7341 0274 0100     		.2byte	0x1
 7342 0276 50       		.byte	0x50
 7343 0277 10000000 		.4byte	.LVL77
 7344 027b 14000000 		.4byte	.LVL79
 7345 027f 0400     		.2byte	0x4
 7346 0281 F3       		.byte	0xf3
 7347 0282 01       		.uleb128 0x1
 7348 0283 50       		.byte	0x50
 7349 0284 9F       		.byte	0x9f
 7350 0285 00000000 		.4byte	0
 7351 0289 00000000 		.4byte	0
 7352              	.LLST14:
 7353 028d 00000000 		.4byte	.LVL75
 7354 0291 12000000 		.4byte	.LVL78
 7355 0295 0200     		.2byte	0x2
 7356 0297 30       		.byte	0x30
 7357 0298 9F       		.byte	0x9f
 7358 0299 12000000 		.4byte	.LVL78
 7359 029d 14000000 		.4byte	.LVL79
 7360 02a1 0100     		.2byte	0x1
 7361 02a3 50       		.byte	0x50
 7362 02a4 14000000 		.4byte	.LVL79
 7363 02a8 16000000 		.4byte	.LVL80
 7364 02ac 0200     		.2byte	0x2
 7365 02ae 30       		.byte	0x30
 7366 02af 9F       		.byte	0x9f
 7367 02b0 16000000 		.4byte	.LVL80
 7368 02b4 1A000000 		.4byte	.LVL81
ARM GAS  C:\Users\Esteban\AppData\Local\Temp\ccHxlO6N.s 			page 198


 7369 02b8 0100     		.2byte	0x1
 7370 02ba 50       		.byte	0x50
 7371 02bb 1C000000 		.4byte	.LVL82
 7372 02bf 24000000 		.4byte	.LFE11
 7373 02c3 0200     		.2byte	0x2
 7374 02c5 30       		.byte	0x30
 7375 02c6 9F       		.byte	0x9f
 7376 02c7 00000000 		.4byte	0
 7377 02cb 00000000 		.4byte	0
 7378              	.LLST15:
 7379 02cf 04000000 		.4byte	.LVL85
 7380 02d3 0A000000 		.4byte	.LVL86
 7381 02d7 0100     		.2byte	0x1
 7382 02d9 50       		.byte	0x50
 7383 02da 00000000 		.4byte	0
 7384 02de 00000000 		.4byte	0
 7385              	.LLST16:
 7386 02e2 00000000 		.4byte	.LVL87
 7387 02e6 04000000 		.4byte	.LVL88
 7388 02ea 0200     		.2byte	0x2
 7389 02ec 30       		.byte	0x30
 7390 02ed 9F       		.byte	0x9f
 7391 02ee 04000000 		.4byte	.LVL88
 7392 02f2 0C000000 		.4byte	.LVL89
 7393 02f6 0100     		.2byte	0x1
 7394 02f8 53       		.byte	0x53
 7395 02f9 0E000000 		.4byte	.LVL90
 7396 02fd 18000000 		.4byte	.LFE13
 7397 0301 0100     		.2byte	0x1
 7398 0303 53       		.byte	0x53
 7399 0304 00000000 		.4byte	0
 7400 0308 00000000 		.4byte	0
 7401              	.LLST17:
 7402 030c 1A000000 		.4byte	.LVL93
 7403 0310 24000000 		.4byte	.LVL94
 7404 0314 0100     		.2byte	0x1
 7405 0316 53       		.byte	0x53
 7406 0317 26000000 		.4byte	.LVL95
 7407 031b 2C000000 		.4byte	.LVL96
 7408 031f 0100     		.2byte	0x1
 7409 0321 53       		.byte	0x53
 7410 0322 00000000 		.4byte	0
 7411 0326 00000000 		.4byte	0
 7412              	.LLST18:
 7413 032a 04000000 		.4byte	.LVL102
 7414 032e 1C000000 		.4byte	.LVL103
 7415 0332 0100     		.2byte	0x1
 7416 0334 51       		.byte	0x51
 7417 0335 00000000 		.4byte	0
 7418 0339 00000000 		.4byte	0
 7419              	.LLST19:
 7420 033d 00000000 		.4byte	.LVL104
 7421 0341 08000000 		.4byte	.LVL106
 7422 0345 0100     		.2byte	0x1
 7423 0347 50       		.byte	0x50
 7424 0348 08000000 		.4byte	.LVL106
 7425 034c 0C000000 		.4byte	.LVL108
ARM GAS  C:\Users\Esteban\AppData\Local\Temp\ccHxlO6N.s 			page 199


 7426 0350 0400     		.2byte	0x4
 7427 0352 F3       		.byte	0xf3
 7428 0353 01       		.uleb128 0x1
 7429 0354 50       		.byte	0x50
 7430 0355 9F       		.byte	0x9f
 7431 0356 0C000000 		.4byte	.LVL108
 7432 035a 0E000000 		.4byte	.LVL109
 7433 035e 0100     		.2byte	0x1
 7434 0360 50       		.byte	0x50
 7435 0361 0E000000 		.4byte	.LVL109
 7436 0365 14000000 		.4byte	.LFE33
 7437 0369 0400     		.2byte	0x4
 7438 036b F3       		.byte	0xf3
 7439 036c 01       		.uleb128 0x1
 7440 036d 50       		.byte	0x50
 7441 036e 9F       		.byte	0x9f
 7442 036f 00000000 		.4byte	0
 7443 0373 00000000 		.4byte	0
 7444              	.LLST20:
 7445 0377 04000000 		.4byte	.LVL105
 7446 037b 08000000 		.4byte	.LVL106
 7447 037f 0100     		.2byte	0x1
 7448 0381 50       		.byte	0x50
 7449 0382 08000000 		.4byte	.LVL106
 7450 0386 0C000000 		.4byte	.LVL108
 7451 038a 0400     		.2byte	0x4
 7452 038c F3       		.byte	0xf3
 7453 038d 01       		.uleb128 0x1
 7454 038e 50       		.byte	0x50
 7455 038f 9F       		.byte	0x9f
 7456 0390 00000000 		.4byte	0
 7457 0394 00000000 		.4byte	0
 7458              	.LLST21:
 7459 0398 00000000 		.4byte	.LVL104
 7460 039c 0A000000 		.4byte	.LVL107
 7461 03a0 0200     		.2byte	0x2
 7462 03a2 30       		.byte	0x30
 7463 03a3 9F       		.byte	0x9f
 7464 03a4 0A000000 		.4byte	.LVL107
 7465 03a8 0C000000 		.4byte	.LVL108
 7466 03ac 0100     		.2byte	0x1
 7467 03ae 50       		.byte	0x50
 7468 03af 0C000000 		.4byte	.LVL108
 7469 03b3 0E000000 		.4byte	.LVL109
 7470 03b7 0200     		.2byte	0x2
 7471 03b9 30       		.byte	0x30
 7472 03ba 9F       		.byte	0x9f
 7473 03bb 0E000000 		.4byte	.LVL109
 7474 03bf 14000000 		.4byte	.LFE33
 7475 03c3 0100     		.2byte	0x1
 7476 03c5 50       		.byte	0x50
 7477 03c6 00000000 		.4byte	0
 7478 03ca 00000000 		.4byte	0
 7479              	.LLST22:
 7480 03ce 00000000 		.4byte	.LVL110
 7481 03d2 04000000 		.4byte	.LVL111
 7482 03d6 0100     		.2byte	0x1
ARM GAS  C:\Users\Esteban\AppData\Local\Temp\ccHxlO6N.s 			page 200


 7483 03d8 50       		.byte	0x50
 7484 03d9 04000000 		.4byte	.LVL111
 7485 03dd 10000000 		.4byte	.LFE34
 7486 03e1 0400     		.2byte	0x4
 7487 03e3 F3       		.byte	0xf3
 7488 03e4 01       		.uleb128 0x1
 7489 03e5 50       		.byte	0x50
 7490 03e6 9F       		.byte	0x9f
 7491 03e7 00000000 		.4byte	0
 7492 03eb 00000000 		.4byte	0
 7493              	.LLST23:
 7494 03ef 04000000 		.4byte	.LVL111
 7495 03f3 08000000 		.4byte	.LVL112
 7496 03f7 0100     		.2byte	0x1
 7497 03f9 50       		.byte	0x50
 7498 03fa 00000000 		.4byte	0
 7499 03fe 00000000 		.4byte	0
 7500              	.LLST24:
 7501 0402 04000000 		.4byte	.LVL111
 7502 0406 08000000 		.4byte	.LVL112
 7503 040a 0800     		.2byte	0x8
 7504 040c 70       		.byte	0x70
 7505 040d 00       		.sleb128 0
 7506 040e 03       		.byte	0x3
 7507 040f 00000000 		.4byte	.LANCHOR2
 7508 0413 22       		.byte	0x22
 7509 0414 08000000 		.4byte	.LVL112
 7510 0418 10000000 		.4byte	.LFE34
 7511 041c 0100     		.2byte	0x1
 7512 041e 50       		.byte	0x50
 7513 041f 00000000 		.4byte	0
 7514 0423 00000000 		.4byte	0
 7515              	.LLST25:
 7516 0427 00000000 		.4byte	.LVL113
 7517 042b 34000000 		.4byte	.LVL123
 7518 042f 0100     		.2byte	0x1
 7519 0431 50       		.byte	0x50
 7520 0432 34000000 		.4byte	.LVL123
 7521 0436 24010000 		.4byte	.LFE15
 7522 043a 0400     		.2byte	0x4
 7523 043c F3       		.byte	0xf3
 7524 043d 01       		.uleb128 0x1
 7525 043e 50       		.byte	0x50
 7526 043f 9F       		.byte	0x9f
 7527 0440 00000000 		.4byte	0
 7528 0444 00000000 		.4byte	0
 7529              	.LLST26:
 7530 0448 00000000 		.4byte	.LVL113
 7531 044c 34000000 		.4byte	.LVL123
 7532 0450 0100     		.2byte	0x1
 7533 0452 51       		.byte	0x51
 7534 0453 34000000 		.4byte	.LVL123
 7535 0457 24010000 		.4byte	.LFE15
 7536 045b 0400     		.2byte	0x4
 7537 045d F3       		.byte	0xf3
 7538 045e 01       		.uleb128 0x1
 7539 045f 51       		.byte	0x51
ARM GAS  C:\Users\Esteban\AppData\Local\Temp\ccHxlO6N.s 			page 201


 7540 0460 9F       		.byte	0x9f
 7541 0461 00000000 		.4byte	0
 7542 0465 00000000 		.4byte	0
 7543              	.LLST27:
 7544 0469 00000000 		.4byte	.LVL113
 7545 046d 34000000 		.4byte	.LVL123
 7546 0471 0100     		.2byte	0x1
 7547 0473 52       		.byte	0x52
 7548 0474 34000000 		.4byte	.LVL123
 7549 0478 24010000 		.4byte	.LFE15
 7550 047c 0400     		.2byte	0x4
 7551 047e F3       		.byte	0xf3
 7552 047f 01       		.uleb128 0x1
 7553 0480 52       		.byte	0x52
 7554 0481 9F       		.byte	0x9f
 7555 0482 00000000 		.4byte	0
 7556 0486 00000000 		.4byte	0
 7557              	.LLST28:
 7558 048a 00000000 		.4byte	.LVL113
 7559 048e 10000000 		.4byte	.LVL115
 7560 0492 0100     		.2byte	0x1
 7561 0494 53       		.byte	0x53
 7562 0495 10000000 		.4byte	.LVL115
 7563 0499 24010000 		.4byte	.LFE15
 7564 049d 0400     		.2byte	0x4
 7565 049f F3       		.byte	0xf3
 7566 04a0 01       		.uleb128 0x1
 7567 04a1 53       		.byte	0x53
 7568 04a2 9F       		.byte	0x9f
 7569 04a3 00000000 		.4byte	0
 7570 04a7 00000000 		.4byte	0
 7571              	.LLST29:
 7572 04ab 30000000 		.4byte	.LVL122
 7573 04af 34000000 		.4byte	.LVL123
 7574 04b3 0100     		.2byte	0x1
 7575 04b5 54       		.byte	0x54
 7576 04b6 34000000 		.4byte	.LVL123
 7577 04ba 3D000000 		.4byte	.LVL124-1
 7578 04be 0100     		.2byte	0x1
 7579 04c0 53       		.byte	0x53
 7580 04c1 4C000000 		.4byte	.LVL126
 7581 04c5 7C000000 		.4byte	.LVL130
 7582 04c9 0100     		.2byte	0x1
 7583 04cb 53       		.byte	0x53
 7584 04cc 7E000000 		.4byte	.LVL131
 7585 04d0 B6000000 		.4byte	.LVL137
 7586 04d4 0100     		.2byte	0x1
 7587 04d6 53       		.byte	0x53
 7588 04d7 B8000000 		.4byte	.LVL138
 7589 04db C2000000 		.4byte	.LVL140
 7590 04df 0100     		.2byte	0x1
 7591 04e1 53       		.byte	0x53
 7592 04e2 E2000000 		.4byte	.LVL143
 7593 04e6 12010000 		.4byte	.LVL144
 7594 04ea 0100     		.2byte	0x1
 7595 04ec 54       		.byte	0x54
 7596 04ed 14010000 		.4byte	.LVL145
ARM GAS  C:\Users\Esteban\AppData\Local\Temp\ccHxlO6N.s 			page 202


 7597 04f1 18010000 		.4byte	.LVL146
 7598 04f5 0100     		.2byte	0x1
 7599 04f7 54       		.byte	0x54
 7600 04f8 00000000 		.4byte	0
 7601 04fc 00000000 		.4byte	0
 7602              	.LLST30:
 7603 0500 20000000 		.4byte	.LVL118
 7604 0504 24000000 		.4byte	.LVL119
 7605 0508 0100     		.2byte	0x1
 7606 050a 56       		.byte	0x56
 7607 050b 2A000000 		.4byte	.LVL120
 7608 050f 2E000000 		.4byte	.LVL121
 7609 0513 0100     		.2byte	0x1
 7610 0515 56       		.byte	0x56
 7611 0516 30000000 		.4byte	.LVL122
 7612 051a B2000000 		.4byte	.LVL135
 7613 051e 0100     		.2byte	0x1
 7614 0520 56       		.byte	0x56
 7615 0521 B4000000 		.4byte	.LVL136
 7616 0525 DA000000 		.4byte	.LVL141
 7617 0529 0100     		.2byte	0x1
 7618 052b 56       		.byte	0x56
 7619 052c DC000000 		.4byte	.LVL142
 7620 0530 1E010000 		.4byte	.LVL147
 7621 0534 0100     		.2byte	0x1
 7622 0536 56       		.byte	0x56
 7623 0537 00000000 		.4byte	0
 7624 053b 00000000 		.4byte	0
 7625              	.LLST31:
 7626 053f 1C000000 		.4byte	.LVL117
 7627 0543 24000000 		.4byte	.LVL119
 7628 0547 0200     		.2byte	0x2
 7629 0549 31       		.byte	0x31
 7630 054a 9F       		.byte	0x9f
 7631 054b 24000000 		.4byte	.LVL119
 7632 054f 2E000000 		.4byte	.LVL121
 7633 0553 0200     		.2byte	0x2
 7634 0555 32       		.byte	0x32
 7635 0556 9F       		.byte	0x9f
 7636 0557 30000000 		.4byte	.LVL122
 7637 055b 1E010000 		.4byte	.LVL147
 7638 055f 0100     		.2byte	0x1
 7639 0561 57       		.byte	0x57
 7640 0562 00000000 		.4byte	0
 7641 0566 00000000 		.4byte	0
 7642              	.LLST32:
 7643 056a 34000000 		.4byte	.LVL123
 7644 056e 4A000000 		.4byte	.LVL125
 7645 0572 0500     		.2byte	0x5
 7646 0574 79       		.byte	0x79
 7647 0575 00       		.sleb128 0
 7648 0576 3F       		.byte	0x3f
 7649 0577 1A       		.byte	0x1a
 7650 0578 9F       		.byte	0x9f
 7651 0579 00000000 		.4byte	0
 7652 057d 00000000 		.4byte	0
 7653              	.LLST33:
ARM GAS  C:\Users\Esteban\AppData\Local\Temp\ccHxlO6N.s 			page 203


 7654 0581 0E000000 		.4byte	.LVL114
 7655 0585 58000000 		.4byte	.LVL127
 7656 0589 0200     		.2byte	0x2
 7657 058b 30       		.byte	0x30
 7658 058c 9F       		.byte	0x9f
 7659 058d 58000000 		.4byte	.LVL127
 7660 0591 78000000 		.4byte	.LVL128
 7661 0595 0100     		.2byte	0x1
 7662 0597 52       		.byte	0x52
 7663 0598 7A000000 		.4byte	.LVL129
 7664 059c 80000000 		.4byte	.LVL132
 7665 05a0 0100     		.2byte	0x1
 7666 05a2 52       		.byte	0x52
 7667 05a3 80000000 		.4byte	.LVL132
 7668 05a7 84000000 		.4byte	.LVL133
 7669 05ab 0200     		.2byte	0x2
 7670 05ad 30       		.byte	0x30
 7671 05ae 9F       		.byte	0x9f
 7672 05af 84000000 		.4byte	.LVL133
 7673 05b3 88000000 		.4byte	.LVL134
 7674 05b7 0100     		.2byte	0x1
 7675 05b9 52       		.byte	0x52
 7676 05ba 00000000 		.4byte	0
 7677 05be 00000000 		.4byte	0
 7678              	.LLST34:
 7679 05c2 14000000 		.4byte	.LVL116
 7680 05c6 34000000 		.4byte	.LVL123
 7681 05ca 0100     		.2byte	0x1
 7682 05cc 50       		.byte	0x50
 7683 05cd 34000000 		.4byte	.LVL123
 7684 05d1 1E010000 		.4byte	.LVL147
 7685 05d5 0100     		.2byte	0x1
 7686 05d7 59       		.byte	0x59
 7687 05d8 00000000 		.4byte	0
 7688 05dc 00000000 		.4byte	0
 7689              	.LLST35:
 7690 05e0 00000000 		.4byte	.LVL148
 7691 05e4 0F000000 		.4byte	.LVL150-1
 7692 05e8 0100     		.2byte	0x1
 7693 05ea 50       		.byte	0x50
 7694 05eb 0F000000 		.4byte	.LVL150-1
 7695 05ef 16000000 		.4byte	.LVL151
 7696 05f3 0400     		.2byte	0x4
 7697 05f5 F3       		.byte	0xf3
 7698 05f6 01       		.uleb128 0x1
 7699 05f7 50       		.byte	0x50
 7700 05f8 9F       		.byte	0x9f
 7701 05f9 16000000 		.4byte	.LVL151
 7702 05fd 1C000000 		.4byte	.LFE18
 7703 0601 0100     		.2byte	0x1
 7704 0603 50       		.byte	0x50
 7705 0604 00000000 		.4byte	0
 7706 0608 00000000 		.4byte	0
 7707              	.LLST36:
 7708 060c 00000000 		.4byte	.LVL148
 7709 0610 0F000000 		.4byte	.LVL150-1
 7710 0614 0100     		.2byte	0x1
ARM GAS  C:\Users\Esteban\AppData\Local\Temp\ccHxlO6N.s 			page 204


 7711 0616 51       		.byte	0x51
 7712 0617 0F000000 		.4byte	.LVL150-1
 7713 061b 16000000 		.4byte	.LVL151
 7714 061f 0400     		.2byte	0x4
 7715 0621 F3       		.byte	0xf3
 7716 0622 01       		.uleb128 0x1
 7717 0623 51       		.byte	0x51
 7718 0624 9F       		.byte	0x9f
 7719 0625 16000000 		.4byte	.LVL151
 7720 0629 1C000000 		.4byte	.LFE18
 7721 062d 0100     		.2byte	0x1
 7722 062f 51       		.byte	0x51
 7723 0630 00000000 		.4byte	0
 7724 0634 00000000 		.4byte	0
 7725              	.LLST37:
 7726 0638 0C000000 		.4byte	.LVL149
 7727 063c 16000000 		.4byte	.LVL151
 7728 0640 0100     		.2byte	0x1
 7729 0642 54       		.byte	0x54
 7730 0643 00000000 		.4byte	0
 7731 0647 00000000 		.4byte	0
 7732              	.LLST38:
 7733 064b 00000000 		.4byte	.LVL152
 7734 064f 0B000000 		.4byte	.LVL154-1
 7735 0653 0100     		.2byte	0x1
 7736 0655 50       		.byte	0x50
 7737 0656 0B000000 		.4byte	.LVL154-1
 7738 065a 12000000 		.4byte	.LVL155
 7739 065e 0400     		.2byte	0x4
 7740 0660 F3       		.byte	0xf3
 7741 0661 01       		.uleb128 0x1
 7742 0662 50       		.byte	0x50
 7743 0663 9F       		.byte	0x9f
 7744 0664 12000000 		.4byte	.LVL155
 7745 0668 18000000 		.4byte	.LFE19
 7746 066c 0100     		.2byte	0x1
 7747 066e 50       		.byte	0x50
 7748 066f 00000000 		.4byte	0
 7749 0673 00000000 		.4byte	0
 7750              	.LLST39:
 7751 0677 00000000 		.4byte	.LVL152
 7752 067b 0B000000 		.4byte	.LVL154-1
 7753 067f 0100     		.2byte	0x1
 7754 0681 51       		.byte	0x51
 7755 0682 0B000000 		.4byte	.LVL154-1
 7756 0686 12000000 		.4byte	.LVL155
 7757 068a 0400     		.2byte	0x4
 7758 068c F3       		.byte	0xf3
 7759 068d 01       		.uleb128 0x1
 7760 068e 51       		.byte	0x51
 7761 068f 9F       		.byte	0x9f
 7762 0690 12000000 		.4byte	.LVL155
 7763 0694 18000000 		.4byte	.LFE19
 7764 0698 0100     		.2byte	0x1
 7765 069a 51       		.byte	0x51
 7766 069b 00000000 		.4byte	0
 7767 069f 00000000 		.4byte	0
ARM GAS  C:\Users\Esteban\AppData\Local\Temp\ccHxlO6N.s 			page 205


 7768              	.LLST40:
 7769 06a3 08000000 		.4byte	.LVL153
 7770 06a7 12000000 		.4byte	.LVL155
 7771 06ab 0100     		.2byte	0x1
 7772 06ad 54       		.byte	0x54
 7773 06ae 00000000 		.4byte	0
 7774 06b2 00000000 		.4byte	0
 7775              	.LLST41:
 7776 06b6 00000000 		.4byte	.LVL156
 7777 06ba 06000000 		.4byte	.LVL158
 7778 06be 0100     		.2byte	0x1
 7779 06c0 50       		.byte	0x50
 7780 06c1 06000000 		.4byte	.LVL158
 7781 06c5 24000000 		.4byte	.LFE35
 7782 06c9 0400     		.2byte	0x4
 7783 06cb F3       		.byte	0xf3
 7784 06cc 01       		.uleb128 0x1
 7785 06cd 50       		.byte	0x50
 7786 06ce 9F       		.byte	0x9f
 7787 06cf 00000000 		.4byte	0
 7788 06d3 00000000 		.4byte	0
 7789              	.LLST42:
 7790 06d7 04000000 		.4byte	.LVL157
 7791 06db 16000000 		.4byte	.LVL163
 7792 06df 0100     		.2byte	0x1
 7793 06e1 53       		.byte	0x53
 7794 06e2 1A000000 		.4byte	.LVL165
 7795 06e6 24000000 		.4byte	.LFE35
 7796 06ea 0100     		.2byte	0x1
 7797 06ec 53       		.byte	0x53
 7798 06ed 00000000 		.4byte	0
 7799 06f1 00000000 		.4byte	0
 7800              	.LLST43:
 7801 06f5 06000000 		.4byte	.LVL158
 7802 06f9 08000000 		.4byte	.LVL159
 7803 06fd 0100     		.2byte	0x1
 7804 06ff 50       		.byte	0x50
 7805 0700 08000000 		.4byte	.LVL159
 7806 0704 0A000000 		.4byte	.LVL160
 7807 0708 0300     		.2byte	0x3
 7808 070a 70       		.byte	0x70
 7809 070b 02       		.sleb128 2
 7810 070c 9F       		.byte	0x9f
 7811 070d 0E000000 		.4byte	.LVL161
 7812 0711 14000000 		.4byte	.LVL162
 7813 0715 0100     		.2byte	0x1
 7814 0717 50       		.byte	0x50
 7815 0718 00000000 		.4byte	0
 7816 071c 00000000 		.4byte	0
 7817              	.LLST44:
 7818 0720 18000000 		.4byte	.LVL164
 7819 0724 1A000000 		.4byte	.LVL165
 7820 0728 0100     		.2byte	0x1
 7821 072a 50       		.byte	0x50
 7822 072b 1C000000 		.4byte	.LVL166
 7823 072f 24000000 		.4byte	.LFE35
 7824 0733 0100     		.2byte	0x1
ARM GAS  C:\Users\Esteban\AppData\Local\Temp\ccHxlO6N.s 			page 206


 7825 0735 50       		.byte	0x50
 7826 0736 00000000 		.4byte	0
 7827 073a 00000000 		.4byte	0
 7828              	.LLST45:
 7829 073e 00000000 		.4byte	.LVL167
 7830 0742 44000000 		.4byte	.LVL180
 7831 0746 0100     		.2byte	0x1
 7832 0748 50       		.byte	0x50
 7833 0749 44000000 		.4byte	.LVL180
 7834 074d 80010000 		.4byte	.LFE14
 7835 0751 0400     		.2byte	0x4
 7836 0753 F3       		.byte	0xf3
 7837 0754 01       		.uleb128 0x1
 7838 0755 50       		.byte	0x50
 7839 0756 9F       		.byte	0x9f
 7840 0757 00000000 		.4byte	0
 7841 075b 00000000 		.4byte	0
 7842              	.LLST46:
 7843 075f 00000000 		.4byte	.LVL167
 7844 0763 44000000 		.4byte	.LVL180
 7845 0767 0100     		.2byte	0x1
 7846 0769 51       		.byte	0x51
 7847 076a 44000000 		.4byte	.LVL180
 7848 076e 80010000 		.4byte	.LFE14
 7849 0772 0400     		.2byte	0x4
 7850 0774 F3       		.byte	0xf3
 7851 0775 01       		.uleb128 0x1
 7852 0776 51       		.byte	0x51
 7853 0777 9F       		.byte	0x9f
 7854 0778 00000000 		.4byte	0
 7855 077c 00000000 		.4byte	0
 7856              	.LLST47:
 7857 0780 00000000 		.4byte	.LVL167
 7858 0784 34000000 		.4byte	.LVL176
 7859 0788 0100     		.2byte	0x1
 7860 078a 52       		.byte	0x52
 7861 078b 34000000 		.4byte	.LVL176
 7862 078f 3A000000 		.4byte	.LVL177
 7863 0793 0400     		.2byte	0x4
 7864 0795 F3       		.byte	0xf3
 7865 0796 01       		.uleb128 0x1
 7866 0797 52       		.byte	0x52
 7867 0798 9F       		.byte	0x9f
 7868 0799 3A000000 		.4byte	.LVL177
 7869 079d 3C000000 		.4byte	.LVL178
 7870 07a1 0100     		.2byte	0x1
 7871 07a3 52       		.byte	0x52
 7872 07a4 3C000000 		.4byte	.LVL178
 7873 07a8 80010000 		.4byte	.LFE14
 7874 07ac 0400     		.2byte	0x4
 7875 07ae F3       		.byte	0xf3
 7876 07af 01       		.uleb128 0x1
 7877 07b0 52       		.byte	0x52
 7878 07b1 9F       		.byte	0x9f
 7879 07b2 00000000 		.4byte	0
 7880 07b6 00000000 		.4byte	0
 7881              	.LLST48:
ARM GAS  C:\Users\Esteban\AppData\Local\Temp\ccHxlO6N.s 			page 207


 7882 07ba 00000000 		.4byte	.LVL167
 7883 07be 0E000000 		.4byte	.LVL169
 7884 07c2 0100     		.2byte	0x1
 7885 07c4 53       		.byte	0x53
 7886 07c5 0E000000 		.4byte	.LVL169
 7887 07c9 80010000 		.4byte	.LFE14
 7888 07cd 0400     		.2byte	0x4
 7889 07cf F3       		.byte	0xf3
 7890 07d0 01       		.uleb128 0x1
 7891 07d1 53       		.byte	0x53
 7892 07d2 9F       		.byte	0x9f
 7893 07d3 00000000 		.4byte	0
 7894 07d7 00000000 		.4byte	0
 7895              	.LLST49:
 7896 07db 40000000 		.4byte	.LVL179
 7897 07df 44000000 		.4byte	.LVL180
 7898 07e3 0100     		.2byte	0x1
 7899 07e5 54       		.byte	0x54
 7900 07e6 44000000 		.4byte	.LVL180
 7901 07ea 5F000000 		.4byte	.LVL182-1
 7902 07ee 0100     		.2byte	0x1
 7903 07f0 53       		.byte	0x53
 7904 07f1 6E000000 		.4byte	.LVL184
 7905 07f5 81000000 		.4byte	.LVL185-1
 7906 07f9 0100     		.2byte	0x1
 7907 07fb 53       		.byte	0x53
 7908 07fc 88000000 		.4byte	.LVL186
 7909 0800 A3000000 		.4byte	.LVL187-1
 7910 0804 0100     		.2byte	0x1
 7911 0806 53       		.byte	0x53
 7912 0807 AE000000 		.4byte	.LVL188
 7913 080b B7000000 		.4byte	.LVL190-1
 7914 080f 0100     		.2byte	0x1
 7915 0811 53       		.byte	0x53
 7916 0812 C2000000 		.4byte	.LVL191
 7917 0816 D8000000 		.4byte	.LVL194
 7918 081a 0100     		.2byte	0x1
 7919 081c 53       		.byte	0x53
 7920 081d DA000000 		.4byte	.LVL195
 7921 0821 E4000000 		.4byte	.LVL199
 7922 0825 0100     		.2byte	0x1
 7923 0827 53       		.byte	0x53
 7924 0828 EA000000 		.4byte	.LVL200
 7925 082c 10010000 		.4byte	.LVL203
 7926 0830 0100     		.2byte	0x1
 7927 0832 53       		.byte	0x53
 7928 0833 12010000 		.4byte	.LVL204
 7929 0837 14010000 		.4byte	.LVL205
 7930 083b 0100     		.2byte	0x1
 7931 083d 53       		.byte	0x53
 7932 083e 16010000 		.4byte	.LVL206
 7933 0842 1C010000 		.4byte	.LVL207
 7934 0846 0100     		.2byte	0x1
 7935 0848 53       		.byte	0x53
 7936 0849 3C010000 		.4byte	.LVL210
 7937 084d 6C010000 		.4byte	.LVL211
 7938 0851 0100     		.2byte	0x1
ARM GAS  C:\Users\Esteban\AppData\Local\Temp\ccHxlO6N.s 			page 208


 7939 0853 54       		.byte	0x54
 7940 0854 6E010000 		.4byte	.LVL212
 7941 0858 72010000 		.4byte	.LVL213
 7942 085c 0100     		.2byte	0x1
 7943 085e 54       		.byte	0x54
 7944 085f 00000000 		.4byte	0
 7945 0863 00000000 		.4byte	0
 7946              	.LLST50:
 7947 0867 1E000000 		.4byte	.LVL171
 7948 086b 22000000 		.4byte	.LVL172
 7949 086f 0100     		.2byte	0x1
 7950 0871 55       		.byte	0x55
 7951 0872 28000000 		.4byte	.LVL173
 7952 0876 2C000000 		.4byte	.LVL174
 7953 087a 0100     		.2byte	0x1
 7954 087c 55       		.byte	0x55
 7955 087d 2E000000 		.4byte	.LVL175
 7956 0881 0C010000 		.4byte	.LVL201
 7957 0885 0100     		.2byte	0x1
 7958 0887 55       		.byte	0x55
 7959 0888 0E010000 		.4byte	.LVL202
 7960 088c 34010000 		.4byte	.LVL208
 7961 0890 0100     		.2byte	0x1
 7962 0892 55       		.byte	0x55
 7963 0893 36010000 		.4byte	.LVL209
 7964 0897 78010000 		.4byte	.LVL214
 7965 089b 0100     		.2byte	0x1
 7966 089d 55       		.byte	0x55
 7967 089e 00000000 		.4byte	0
 7968 08a2 00000000 		.4byte	0
 7969              	.LLST51:
 7970 08a6 1A000000 		.4byte	.LVL170
 7971 08aa 22000000 		.4byte	.LVL172
 7972 08ae 0200     		.2byte	0x2
 7973 08b0 31       		.byte	0x31
 7974 08b1 9F       		.byte	0x9f
 7975 08b2 22000000 		.4byte	.LVL172
 7976 08b6 2C000000 		.4byte	.LVL174
 7977 08ba 0200     		.2byte	0x2
 7978 08bc 32       		.byte	0x32
 7979 08bd 9F       		.byte	0x9f
 7980 08be 2E000000 		.4byte	.LVL175
 7981 08c2 78010000 		.4byte	.LVL214
 7982 08c6 0100     		.2byte	0x1
 7983 08c8 56       		.byte	0x56
 7984 08c9 00000000 		.4byte	0
 7985 08cd 00000000 		.4byte	0
 7986              	.LLST52:
 7987 08d1 34000000 		.4byte	.LVL176
 7988 08d5 3A000000 		.4byte	.LVL177
 7989 08d9 0200     		.2byte	0x2
 7990 08db 30       		.byte	0x30
 7991 08dc 9F       		.byte	0x9f
 7992 08dd 3C000000 		.4byte	.LVL178
 7993 08e1 40000000 		.4byte	.LVL179
 7994 08e5 0200     		.2byte	0x2
 7995 08e7 31       		.byte	0x31
ARM GAS  C:\Users\Esteban\AppData\Local\Temp\ccHxlO6N.s 			page 209


 7996 08e8 9F       		.byte	0x9f
 7997 08e9 40000000 		.4byte	.LVL179
 7998 08ed B2000000 		.4byte	.LVL189
 7999 08f1 0100     		.2byte	0x1
 8000 08f3 58       		.byte	0x58
 8001 08f4 C2000000 		.4byte	.LVL191
 8002 08f8 E4000000 		.4byte	.LVL199
 8003 08fc 0100     		.2byte	0x1
 8004 08fe 58       		.byte	0x58
 8005 08ff 00000000 		.4byte	0
 8006 0903 00000000 		.4byte	0
 8007              	.LLST53:
 8008 0907 56000000 		.4byte	.LVL181
 8009 090b 5F000000 		.4byte	.LVL182-1
 8010 090f 0100     		.2byte	0x1
 8011 0911 50       		.byte	0x50
 8012 0912 00000000 		.4byte	0
 8013 0916 00000000 		.4byte	0
 8014              	.LLST54:
 8015 091a 0C000000 		.4byte	.LVL168
 8016 091e 88000000 		.4byte	.LVL186
 8017 0922 0200     		.2byte	0x2
 8018 0924 30       		.byte	0x30
 8019 0925 9F       		.byte	0x9f
 8020 0926 88000000 		.4byte	.LVL186
 8021 092a A3000000 		.4byte	.LVL187-1
 8022 092e 0100     		.2byte	0x1
 8023 0930 52       		.byte	0x52
 8024 0931 AE000000 		.4byte	.LVL188
 8025 0935 B7000000 		.4byte	.LVL190-1
 8026 0939 0100     		.2byte	0x1
 8027 093b 52       		.byte	0x52
 8028 093c C2000000 		.4byte	.LVL191
 8029 0940 D4000000 		.4byte	.LVL192
 8030 0944 0100     		.2byte	0x1
 8031 0946 52       		.byte	0x52
 8032 0947 D6000000 		.4byte	.LVL193
 8033 094b DC000000 		.4byte	.LVL196
 8034 094f 0100     		.2byte	0x1
 8035 0951 52       		.byte	0x52
 8036 0952 DC000000 		.4byte	.LVL196
 8037 0956 E0000000 		.4byte	.LVL198
 8038 095a 0200     		.2byte	0x2
 8039 095c 30       		.byte	0x30
 8040 095d 9F       		.byte	0x9f
 8041 095e E0000000 		.4byte	.LVL198
 8042 0962 E4000000 		.4byte	.LVL199
 8043 0966 0100     		.2byte	0x1
 8044 0968 52       		.byte	0x52
 8045 0969 00000000 		.4byte	0
 8046 096d 00000000 		.4byte	0
 8047              	.LLST55:
 8048 0971 34000000 		.4byte	.LVL176
 8049 0975 3A000000 		.4byte	.LVL177
 8050 0979 0100     		.2byte	0x1
 8051 097b 52       		.byte	0x52
 8052 097c 3C000000 		.4byte	.LVL178
ARM GAS  C:\Users\Esteban\AppData\Local\Temp\ccHxlO6N.s 			page 210


 8053 0980 5F000000 		.4byte	.LVL182-1
 8054 0984 0100     		.2byte	0x1
 8055 0986 52       		.byte	0x52
 8056 0987 6A000000 		.4byte	.LVL183
 8057 098b 81000000 		.4byte	.LVL185-1
 8058 098f 0100     		.2byte	0x1
 8059 0991 52       		.byte	0x52
 8060 0992 DC000000 		.4byte	.LVL196
 8061 0996 DE000000 		.4byte	.LVL197
 8062 099a 0100     		.2byte	0x1
 8063 099c 52       		.byte	0x52
 8064 099d 00000000 		.4byte	0
 8065 09a1 00000000 		.4byte	0
 8066              	.LLST56:
 8067 09a5 00000000 		.4byte	.LVL215
 8068 09a9 0D000000 		.4byte	.LVL216-1
 8069 09ad 0100     		.2byte	0x1
 8070 09af 50       		.byte	0x50
 8071 09b0 0D000000 		.4byte	.LVL216-1
 8072 09b4 32000000 		.4byte	.LVL224
 8073 09b8 0100     		.2byte	0x1
 8074 09ba 57       		.byte	0x57
 8075 09bb 32000000 		.4byte	.LVL224
 8076 09bf 38000000 		.4byte	.LFE16
 8077 09c3 0100     		.2byte	0x1
 8078 09c5 50       		.byte	0x50
 8079 09c6 00000000 		.4byte	0
 8080 09ca 00000000 		.4byte	0
 8081              	.LLST57:
 8082 09ce 00000000 		.4byte	.LVL215
 8083 09d2 0D000000 		.4byte	.LVL216-1
 8084 09d6 0100     		.2byte	0x1
 8085 09d8 51       		.byte	0x51
 8086 09d9 0D000000 		.4byte	.LVL216-1
 8087 09dd 32000000 		.4byte	.LVL224
 8088 09e1 0400     		.2byte	0x4
 8089 09e3 F3       		.byte	0xf3
 8090 09e4 01       		.uleb128 0x1
 8091 09e5 51       		.byte	0x51
 8092 09e6 9F       		.byte	0x9f
 8093 09e7 32000000 		.4byte	.LVL224
 8094 09eb 38000000 		.4byte	.LFE16
 8095 09ef 0100     		.2byte	0x1
 8096 09f1 51       		.byte	0x51
 8097 09f2 00000000 		.4byte	0
 8098 09f6 00000000 		.4byte	0
 8099              	.LLST58:
 8100 09fa 12000000 		.4byte	.LVL217
 8101 09fe 2A000000 		.4byte	.LVL222
 8102 0a02 0100     		.2byte	0x1
 8103 0a04 54       		.byte	0x54
 8104 0a05 2C000000 		.4byte	.LVL223
 8105 0a09 32000000 		.4byte	.LVL224
 8106 0a0d 0100     		.2byte	0x1
 8107 0a0f 54       		.byte	0x54
 8108 0a10 00000000 		.4byte	0
 8109 0a14 00000000 		.4byte	0
ARM GAS  C:\Users\Esteban\AppData\Local\Temp\ccHxlO6N.s 			page 211


 8110              	.LLST59:
 8111 0a18 12000000 		.4byte	.LVL217
 8112 0a1c 32000000 		.4byte	.LVL224
 8113 0a20 0100     		.2byte	0x1
 8114 0a22 56       		.byte	0x56
 8115 0a23 00000000 		.4byte	0
 8116 0a27 00000000 		.4byte	0
 8117              	.LLST60:
 8118 0a2b 00000000 		.4byte	.LVL215
 8119 0a2f 16000000 		.4byte	.LVL218
 8120 0a33 0200     		.2byte	0x2
 8121 0a35 30       		.byte	0x30
 8122 0a36 9F       		.byte	0x9f
 8123 0a37 16000000 		.4byte	.LVL218
 8124 0a3b 26000000 		.4byte	.LVL220
 8125 0a3f 0100     		.2byte	0x1
 8126 0a41 55       		.byte	0x55
 8127 0a42 28000000 		.4byte	.LVL221
 8128 0a46 32000000 		.4byte	.LVL224
 8129 0a4a 0100     		.2byte	0x1
 8130 0a4c 55       		.byte	0x55
 8131 0a4d 32000000 		.4byte	.LVL224
 8132 0a51 38000000 		.4byte	.LFE16
 8133 0a55 0200     		.2byte	0x2
 8134 0a57 30       		.byte	0x30
 8135 0a58 9F       		.byte	0x9f
 8136 0a59 00000000 		.4byte	0
 8137 0a5d 00000000 		.4byte	0
 8138              	.LLST61:
 8139 0a61 00000000 		.4byte	.LVL225
 8140 0a65 0B000000 		.4byte	.LVL227-1
 8141 0a69 0100     		.2byte	0x1
 8142 0a6b 50       		.byte	0x50
 8143 0a6c 0B000000 		.4byte	.LVL227-1
 8144 0a70 12000000 		.4byte	.LVL228
 8145 0a74 0400     		.2byte	0x4
 8146 0a76 F3       		.byte	0xf3
 8147 0a77 01       		.uleb128 0x1
 8148 0a78 50       		.byte	0x50
 8149 0a79 9F       		.byte	0x9f
 8150 0a7a 12000000 		.4byte	.LVL228
 8151 0a7e 18000000 		.4byte	.LFE17
 8152 0a82 0100     		.2byte	0x1
 8153 0a84 50       		.byte	0x50
 8154 0a85 00000000 		.4byte	0
 8155 0a89 00000000 		.4byte	0
 8156              	.LLST62:
 8157 0a8d 00000000 		.4byte	.LVL225
 8158 0a91 0B000000 		.4byte	.LVL227-1
 8159 0a95 0100     		.2byte	0x1
 8160 0a97 51       		.byte	0x51
 8161 0a98 0B000000 		.4byte	.LVL227-1
 8162 0a9c 12000000 		.4byte	.LVL228
 8163 0aa0 0400     		.2byte	0x4
 8164 0aa2 F3       		.byte	0xf3
 8165 0aa3 01       		.uleb128 0x1
 8166 0aa4 51       		.byte	0x51
ARM GAS  C:\Users\Esteban\AppData\Local\Temp\ccHxlO6N.s 			page 212


 8167 0aa5 9F       		.byte	0x9f
 8168 0aa6 12000000 		.4byte	.LVL228
 8169 0aaa 18000000 		.4byte	.LFE17
 8170 0aae 0100     		.2byte	0x1
 8171 0ab0 51       		.byte	0x51
 8172 0ab1 00000000 		.4byte	0
 8173 0ab5 00000000 		.4byte	0
 8174              	.LLST63:
 8175 0ab9 08000000 		.4byte	.LVL226
 8176 0abd 12000000 		.4byte	.LVL228
 8177 0ac1 0100     		.2byte	0x1
 8178 0ac3 54       		.byte	0x54
 8179 0ac4 00000000 		.4byte	0
 8180 0ac8 00000000 		.4byte	0
 8181              	.LLST64:
 8182 0acc 00000000 		.4byte	.LVL229
 8183 0ad0 04000000 		.4byte	.LVL230
 8184 0ad4 0100     		.2byte	0x1
 8185 0ad6 50       		.byte	0x50
 8186 0ad7 04000000 		.4byte	.LVL230
 8187 0adb 1C000000 		.4byte	.LFE36
 8188 0adf 0400     		.2byte	0x4
 8189 0ae1 F3       		.byte	0xf3
 8190 0ae2 01       		.uleb128 0x1
 8191 0ae3 50       		.byte	0x50
 8192 0ae4 9F       		.byte	0x9f
 8193 0ae5 00000000 		.4byte	0
 8194 0ae9 00000000 		.4byte	0
 8195              	.LLST65:
 8196 0aed 04000000 		.4byte	.LVL230
 8197 0af1 0C000000 		.4byte	.LVL231
 8198 0af5 0100     		.2byte	0x1
 8199 0af7 50       		.byte	0x50
 8200 0af8 00000000 		.4byte	0
 8201 0afc 00000000 		.4byte	0
 8202              	.LLST66:
 8203 0b00 0C000000 		.4byte	.LVL231
 8204 0b04 14000000 		.4byte	.LVL233
 8205 0b08 0500     		.2byte	0x5
 8206 0b0a 70       		.byte	0x70
 8207 0b0b 00       		.sleb128 0
 8208 0b0c 38       		.byte	0x38
 8209 0b0d 24       		.byte	0x24
 8210 0b0e 9F       		.byte	0x9f
 8211 0b0f 00000000 		.4byte	0
 8212 0b13 00000000 		.4byte	0
 8213              	.LLST67:
 8214 0b17 10000000 		.4byte	.LVL232
 8215 0b1b 14000000 		.4byte	.LVL233
 8216 0b1f 0800     		.2byte	0x8
 8217 0b21 70       		.byte	0x70
 8218 0b22 00       		.sleb128 0
 8219 0b23 38       		.byte	0x38
 8220 0b24 24       		.byte	0x24
 8221 0b25 73       		.byte	0x73
 8222 0b26 00       		.sleb128 0
 8223 0b27 21       		.byte	0x21
ARM GAS  C:\Users\Esteban\AppData\Local\Temp\ccHxlO6N.s 			page 213


 8224 0b28 9F       		.byte	0x9f
 8225 0b29 00000000 		.4byte	0
 8226 0b2d 00000000 		.4byte	0
 8227              	.LLST68:
 8228 0b31 00000000 		.4byte	.LVL234
 8229 0b35 1C000000 		.4byte	.LVL237
 8230 0b39 0100     		.2byte	0x1
 8231 0b3b 50       		.byte	0x50
 8232 0b3c 1C000000 		.4byte	.LVL237
 8233 0b40 C8000000 		.4byte	.LFE21
 8234 0b44 0400     		.2byte	0x4
 8235 0b46 F3       		.byte	0xf3
 8236 0b47 01       		.uleb128 0x1
 8237 0b48 50       		.byte	0x50
 8238 0b49 9F       		.byte	0x9f
 8239 0b4a 00000000 		.4byte	0
 8240 0b4e 00000000 		.4byte	0
 8241              	.LLST69:
 8242 0b52 00000000 		.4byte	.LVL234
 8243 0b56 1C000000 		.4byte	.LVL237
 8244 0b5a 0100     		.2byte	0x1
 8245 0b5c 51       		.byte	0x51
 8246 0b5d 1C000000 		.4byte	.LVL237
 8247 0b61 C8000000 		.4byte	.LFE21
 8248 0b65 0400     		.2byte	0x4
 8249 0b67 F3       		.byte	0xf3
 8250 0b68 01       		.uleb128 0x1
 8251 0b69 51       		.byte	0x51
 8252 0b6a 9F       		.byte	0x9f
 8253 0b6b 00000000 		.4byte	0
 8254 0b6f 00000000 		.4byte	0
 8255              	.LLST70:
 8256 0b73 00000000 		.4byte	.LVL234
 8257 0b77 1C000000 		.4byte	.LVL237
 8258 0b7b 0100     		.2byte	0x1
 8259 0b7d 52       		.byte	0x52
 8260 0b7e 1C000000 		.4byte	.LVL237
 8261 0b82 C8000000 		.4byte	.LFE21
 8262 0b86 0400     		.2byte	0x4
 8263 0b88 F3       		.byte	0xf3
 8264 0b89 01       		.uleb128 0x1
 8265 0b8a 52       		.byte	0x52
 8266 0b8b 9F       		.byte	0x9f
 8267 0b8c 00000000 		.4byte	0
 8268 0b90 00000000 		.4byte	0
 8269              	.LLST71:
 8270 0b94 00000000 		.4byte	.LVL234
 8271 0b98 10000000 		.4byte	.LVL235
 8272 0b9c 0100     		.2byte	0x1
 8273 0b9e 53       		.byte	0x53
 8274 0b9f 10000000 		.4byte	.LVL235
 8275 0ba3 C8000000 		.4byte	.LFE21
 8276 0ba7 0400     		.2byte	0x4
 8277 0ba9 F3       		.byte	0xf3
 8278 0baa 01       		.uleb128 0x1
 8279 0bab 53       		.byte	0x53
 8280 0bac 9F       		.byte	0x9f
ARM GAS  C:\Users\Esteban\AppData\Local\Temp\ccHxlO6N.s 			page 214


 8281 0bad 00000000 		.4byte	0
 8282 0bb1 00000000 		.4byte	0
 8283              	.LLST72:
 8284 0bb5 18000000 		.4byte	.LVL236
 8285 0bb9 1C000000 		.4byte	.LVL237
 8286 0bbd 0100     		.2byte	0x1
 8287 0bbf 52       		.byte	0x52
 8288 0bc0 1C000000 		.4byte	.LVL237
 8289 0bc4 25000000 		.4byte	.LVL238-1
 8290 0bc8 0100     		.2byte	0x1
 8291 0bca 53       		.byte	0x53
 8292 0bcb 34000000 		.4byte	.LVL240
 8293 0bcf 5A000000 		.4byte	.LVL241
 8294 0bd3 0100     		.2byte	0x1
 8295 0bd5 53       		.byte	0x53
 8296 0bd6 5C000000 		.4byte	.LVL242
 8297 0bda 82000000 		.4byte	.LVL246
 8298 0bde 0100     		.2byte	0x1
 8299 0be0 53       		.byte	0x53
 8300 0be1 84000000 		.4byte	.LVL247
 8301 0be5 8E000000 		.4byte	.LVL249
 8302 0be9 0100     		.2byte	0x1
 8303 0beb 53       		.byte	0x53
 8304 0bec 9E000000 		.4byte	.LVL252
 8305 0bf0 B8000000 		.4byte	.LVL253
 8306 0bf4 0100     		.2byte	0x1
 8307 0bf6 54       		.byte	0x54
 8308 0bf7 BA000000 		.4byte	.LVL254
 8309 0bfb BE000000 		.4byte	.LVL255
 8310 0bff 0100     		.2byte	0x1
 8311 0c01 54       		.byte	0x54
 8312 0c02 00000000 		.4byte	0
 8313 0c06 00000000 		.4byte	0
 8314              	.LLST73:
 8315 0c0a 60000000 		.4byte	.LVL243
 8316 0c0e 7E000000 		.4byte	.LVL244
 8317 0c12 0100     		.2byte	0x1
 8318 0c14 56       		.byte	0x56
 8319 0c15 80000000 		.4byte	.LVL245
 8320 0c19 96000000 		.4byte	.LVL250
 8321 0c1d 0100     		.2byte	0x1
 8322 0c1f 56       		.byte	0x56
 8323 0c20 98000000 		.4byte	.LVL251
 8324 0c24 C4000000 		.4byte	.LVL256
 8325 0c28 0100     		.2byte	0x1
 8326 0c2a 56       		.byte	0x56
 8327 0c2b 00000000 		.4byte	0
 8328 0c2f 00000000 		.4byte	0
 8329              	.LLST74:
 8330 0c33 1C000000 		.4byte	.LVL237
 8331 0c37 32000000 		.4byte	.LVL239
 8332 0c3b 0500     		.2byte	0x5
 8333 0c3d 77       		.byte	0x77
 8334 0c3e 00       		.sleb128 0
 8335 0c3f 3F       		.byte	0x3f
 8336 0c40 1A       		.byte	0x1a
 8337 0c41 9F       		.byte	0x9f
ARM GAS  C:\Users\Esteban\AppData\Local\Temp\ccHxlO6N.s 			page 215


 8338 0c42 00000000 		.4byte	0
 8339 0c46 00000000 		.4byte	0
 8340              	.LLST75:
 8341 0c4a 18000000 		.4byte	.LVL236
 8342 0c4e 1C000000 		.4byte	.LVL237
 8343 0c52 0100     		.2byte	0x1
 8344 0c54 50       		.byte	0x50
 8345 0c55 1C000000 		.4byte	.LVL237
 8346 0c59 C4000000 		.4byte	.LVL256
 8347 0c5d 0100     		.2byte	0x1
 8348 0c5f 57       		.byte	0x57
 8349 0c60 00000000 		.4byte	0
 8350 0c64 00000000 		.4byte	0
 8351              	.LLST76:
 8352 0c68 00000000 		.4byte	.LVL257
 8353 0c6c 0F000000 		.4byte	.LVL258-1
 8354 0c70 0100     		.2byte	0x1
 8355 0c72 50       		.byte	0x50
 8356 0c73 0F000000 		.4byte	.LVL258-1
 8357 0c77 16000000 		.4byte	.LVL259
 8358 0c7b 0400     		.2byte	0x4
 8359 0c7d F3       		.byte	0xf3
 8360 0c7e 01       		.uleb128 0x1
 8361 0c7f 50       		.byte	0x50
 8362 0c80 9F       		.byte	0x9f
 8363 0c81 16000000 		.4byte	.LVL259
 8364 0c85 1C000000 		.4byte	.LFE24
 8365 0c89 0100     		.2byte	0x1
 8366 0c8b 50       		.byte	0x50
 8367 0c8c 00000000 		.4byte	0
 8368 0c90 00000000 		.4byte	0
 8369              	.LLST77:
 8370 0c94 00000000 		.4byte	.LVL257
 8371 0c98 0F000000 		.4byte	.LVL258-1
 8372 0c9c 0100     		.2byte	0x1
 8373 0c9e 51       		.byte	0x51
 8374 0c9f 0F000000 		.4byte	.LVL258-1
 8375 0ca3 16000000 		.4byte	.LVL259
 8376 0ca7 0400     		.2byte	0x4
 8377 0ca9 F3       		.byte	0xf3
 8378 0caa 01       		.uleb128 0x1
 8379 0cab 51       		.byte	0x51
 8380 0cac 9F       		.byte	0x9f
 8381 0cad 16000000 		.4byte	.LVL259
 8382 0cb1 1C000000 		.4byte	.LFE24
 8383 0cb5 0100     		.2byte	0x1
 8384 0cb7 51       		.byte	0x51
 8385 0cb8 00000000 		.4byte	0
 8386 0cbc 00000000 		.4byte	0
 8387              	.LLST78:
 8388 0cc0 10000000 		.4byte	.LVL258
 8389 0cc4 16000000 		.4byte	.LVL259
 8390 0cc8 0100     		.2byte	0x1
 8391 0cca 50       		.byte	0x50
 8392 0ccb 00000000 		.4byte	0
 8393 0ccf 00000000 		.4byte	0
 8394              	.LLST79:
ARM GAS  C:\Users\Esteban\AppData\Local\Temp\ccHxlO6N.s 			page 216


 8395 0cd3 00000000 		.4byte	.LVL260
 8396 0cd7 0B000000 		.4byte	.LVL261-1
 8397 0cdb 0100     		.2byte	0x1
 8398 0cdd 50       		.byte	0x50
 8399 0cde 0B000000 		.4byte	.LVL261-1
 8400 0ce2 12000000 		.4byte	.LVL262
 8401 0ce6 0400     		.2byte	0x4
 8402 0ce8 F3       		.byte	0xf3
 8403 0ce9 01       		.uleb128 0x1
 8404 0cea 50       		.byte	0x50
 8405 0ceb 9F       		.byte	0x9f
 8406 0cec 12000000 		.4byte	.LVL262
 8407 0cf0 18000000 		.4byte	.LFE25
 8408 0cf4 0100     		.2byte	0x1
 8409 0cf6 50       		.byte	0x50
 8410 0cf7 00000000 		.4byte	0
 8411 0cfb 00000000 		.4byte	0
 8412              	.LLST80:
 8413 0cff 00000000 		.4byte	.LVL260
 8414 0d03 0B000000 		.4byte	.LVL261-1
 8415 0d07 0100     		.2byte	0x1
 8416 0d09 51       		.byte	0x51
 8417 0d0a 0B000000 		.4byte	.LVL261-1
 8418 0d0e 12000000 		.4byte	.LVL262
 8419 0d12 0400     		.2byte	0x4
 8420 0d14 F3       		.byte	0xf3
 8421 0d15 01       		.uleb128 0x1
 8422 0d16 51       		.byte	0x51
 8423 0d17 9F       		.byte	0x9f
 8424 0d18 12000000 		.4byte	.LVL262
 8425 0d1c 18000000 		.4byte	.LFE25
 8426 0d20 0100     		.2byte	0x1
 8427 0d22 51       		.byte	0x51
 8428 0d23 00000000 		.4byte	0
 8429 0d27 00000000 		.4byte	0
 8430              	.LLST81:
 8431 0d2b 0C000000 		.4byte	.LVL261
 8432 0d2f 12000000 		.4byte	.LVL262
 8433 0d33 0100     		.2byte	0x1
 8434 0d35 50       		.byte	0x50
 8435 0d36 00000000 		.4byte	0
 8436 0d3a 00000000 		.4byte	0
 8437              	.LLST82:
 8438 0d3e 00000000 		.4byte	.LVL263
 8439 0d42 06000000 		.4byte	.LVL265
 8440 0d46 0100     		.2byte	0x1
 8441 0d48 50       		.byte	0x50
 8442 0d49 06000000 		.4byte	.LVL265
 8443 0d4d 2C000000 		.4byte	.LFE37
 8444 0d51 0400     		.2byte	0x4
 8445 0d53 F3       		.byte	0xf3
 8446 0d54 01       		.uleb128 0x1
 8447 0d55 50       		.byte	0x50
 8448 0d56 9F       		.byte	0x9f
 8449 0d57 00000000 		.4byte	0
 8450 0d5b 00000000 		.4byte	0
 8451              	.LLST83:
ARM GAS  C:\Users\Esteban\AppData\Local\Temp\ccHxlO6N.s 			page 217


 8452 0d5f 06000000 		.4byte	.LVL265
 8453 0d63 08000000 		.4byte	.LVL266
 8454 0d67 0100     		.2byte	0x1
 8455 0d69 50       		.byte	0x50
 8456 0d6a 08000000 		.4byte	.LVL266
 8457 0d6e 0A000000 		.4byte	.LVL267
 8458 0d72 0300     		.2byte	0x3
 8459 0d74 70       		.byte	0x70
 8460 0d75 02       		.sleb128 2
 8461 0d76 9F       		.byte	0x9f
 8462 0d77 0E000000 		.4byte	.LVL268
 8463 0d7b 14000000 		.4byte	.LVL269
 8464 0d7f 0100     		.2byte	0x1
 8465 0d81 50       		.byte	0x50
 8466 0d82 00000000 		.4byte	0
 8467 0d86 00000000 		.4byte	0
 8468              	.LLST84:
 8469 0d8a 1E000000 		.4byte	.LVL271
 8470 0d8e 24000000 		.4byte	.LVL273
 8471 0d92 0100     		.2byte	0x1
 8472 0d94 53       		.byte	0x53
 8473 0d95 00000000 		.4byte	0
 8474 0d99 00000000 		.4byte	0
 8475              	.LLST85:
 8476 0d9d 1A000000 		.4byte	.LVL270
 8477 0da1 22000000 		.4byte	.LVL272
 8478 0da5 0500     		.2byte	0x5
 8479 0da7 70       		.byte	0x70
 8480 0da8 00       		.sleb128 0
 8481 0da9 38       		.byte	0x38
 8482 0daa 24       		.byte	0x24
 8483 0dab 9F       		.byte	0x9f
 8484 0dac 00000000 		.4byte	0
 8485 0db0 00000000 		.4byte	0
 8486              	.LLST86:
 8487 0db4 22000000 		.4byte	.LVL272
 8488 0db8 24000000 		.4byte	.LVL273
 8489 0dbc 0100     		.2byte	0x1
 8490 0dbe 50       		.byte	0x50
 8491 0dbf 26000000 		.4byte	.LVL274
 8492 0dc3 2C000000 		.4byte	.LFE37
 8493 0dc7 0100     		.2byte	0x1
 8494 0dc9 50       		.byte	0x50
 8495 0dca 00000000 		.4byte	0
 8496 0dce 00000000 		.4byte	0
 8497              	.LLST87:
 8498 0dd2 00000000 		.4byte	.LVL275
 8499 0dd6 28000000 		.4byte	.LVL282
 8500 0dda 0100     		.2byte	0x1
 8501 0ddc 50       		.byte	0x50
 8502 0ddd 28000000 		.4byte	.LVL282
 8503 0de1 38010000 		.4byte	.LFE20
 8504 0de5 0400     		.2byte	0x4
 8505 0de7 F3       		.byte	0xf3
 8506 0de8 01       		.uleb128 0x1
 8507 0de9 50       		.byte	0x50
 8508 0dea 9F       		.byte	0x9f
ARM GAS  C:\Users\Esteban\AppData\Local\Temp\ccHxlO6N.s 			page 218


 8509 0deb 00000000 		.4byte	0
 8510 0def 00000000 		.4byte	0
 8511              	.LLST88:
 8512 0df3 00000000 		.4byte	.LVL275
 8513 0df7 28000000 		.4byte	.LVL282
 8514 0dfb 0100     		.2byte	0x1
 8515 0dfd 51       		.byte	0x51
 8516 0dfe 28000000 		.4byte	.LVL282
 8517 0e02 38010000 		.4byte	.LFE20
 8518 0e06 0400     		.2byte	0x4
 8519 0e08 F3       		.byte	0xf3
 8520 0e09 01       		.uleb128 0x1
 8521 0e0a 51       		.byte	0x51
 8522 0e0b 9F       		.byte	0x9f
 8523 0e0c 00000000 		.4byte	0
 8524 0e10 00000000 		.4byte	0
 8525              	.LLST89:
 8526 0e14 00000000 		.4byte	.LVL275
 8527 0e18 1C000000 		.4byte	.LVL278
 8528 0e1c 0100     		.2byte	0x1
 8529 0e1e 52       		.byte	0x52
 8530 0e1f 1C000000 		.4byte	.LVL278
 8531 0e23 20000000 		.4byte	.LVL279
 8532 0e27 0400     		.2byte	0x4
 8533 0e29 F3       		.byte	0xf3
 8534 0e2a 01       		.uleb128 0x1
 8535 0e2b 52       		.byte	0x52
 8536 0e2c 9F       		.byte	0x9f
 8537 0e2d 20000000 		.4byte	.LVL279
 8538 0e31 22000000 		.4byte	.LVL280
 8539 0e35 0100     		.2byte	0x1
 8540 0e37 52       		.byte	0x52
 8541 0e38 22000000 		.4byte	.LVL280
 8542 0e3c 38010000 		.4byte	.LFE20
 8543 0e40 0400     		.2byte	0x4
 8544 0e42 F3       		.byte	0xf3
 8545 0e43 01       		.uleb128 0x1
 8546 0e44 52       		.byte	0x52
 8547 0e45 9F       		.byte	0x9f
 8548 0e46 00000000 		.4byte	0
 8549 0e4a 00000000 		.4byte	0
 8550              	.LLST90:
 8551 0e4e 00000000 		.4byte	.LVL275
 8552 0e52 0E000000 		.4byte	.LVL277
 8553 0e56 0100     		.2byte	0x1
 8554 0e58 53       		.byte	0x53
 8555 0e59 0E000000 		.4byte	.LVL277
 8556 0e5d 38010000 		.4byte	.LFE20
 8557 0e61 0400     		.2byte	0x4
 8558 0e63 F3       		.byte	0xf3
 8559 0e64 01       		.uleb128 0x1
 8560 0e65 53       		.byte	0x53
 8561 0e66 9F       		.byte	0x9f
 8562 0e67 00000000 		.4byte	0
 8563 0e6b 00000000 		.4byte	0
 8564              	.LLST91:
 8565 0e6f 24000000 		.4byte	.LVL281
ARM GAS  C:\Users\Esteban\AppData\Local\Temp\ccHxlO6N.s 			page 219


 8566 0e73 28000000 		.4byte	.LVL282
 8567 0e77 0100     		.2byte	0x1
 8568 0e79 54       		.byte	0x54
 8569 0e7a 28000000 		.4byte	.LVL282
 8570 0e7e 43000000 		.4byte	.LVL284-1
 8571 0e82 0100     		.2byte	0x1
 8572 0e84 53       		.byte	0x53
 8573 0e85 54000000 		.4byte	.LVL286
 8574 0e89 63000000 		.4byte	.LVL287-1
 8575 0e8d 0100     		.2byte	0x1
 8576 0e8f 53       		.byte	0x53
 8577 0e90 6A000000 		.4byte	.LVL288
 8578 0e94 87000000 		.4byte	.LVL289-1
 8579 0e98 0100     		.2byte	0x1
 8580 0e9a 53       		.byte	0x53
 8581 0e9b 94000000 		.4byte	.LVL290
 8582 0e9f 9B000000 		.4byte	.LVL292-1
 8583 0ea3 0100     		.2byte	0x1
 8584 0ea5 53       		.byte	0x53
 8585 0ea6 A8000000 		.4byte	.LVL293
 8586 0eaa C0000000 		.4byte	.LVL296
 8587 0eae 0100     		.2byte	0x1
 8588 0eb0 53       		.byte	0x53
 8589 0eb1 C2000000 		.4byte	.LVL297
 8590 0eb5 CC000000 		.4byte	.LVL301
 8591 0eb9 0100     		.2byte	0x1
 8592 0ebb 53       		.byte	0x53
 8593 0ebc D2000000 		.4byte	.LVL302
 8594 0ec0 EC000000 		.4byte	.LVL305
 8595 0ec4 0100     		.2byte	0x1
 8596 0ec6 53       		.byte	0x53
 8597 0ec7 EE000000 		.4byte	.LVL306
 8598 0ecb F0000000 		.4byte	.LVL307
 8599 0ecf 0100     		.2byte	0x1
 8600 0ed1 53       		.byte	0x53
 8601 0ed2 F2000000 		.4byte	.LVL308
 8602 0ed6 F8000000 		.4byte	.LVL309
 8603 0eda 0100     		.2byte	0x1
 8604 0edc 53       		.byte	0x53
 8605 0edd 08010000 		.4byte	.LVL312
 8606 0ee1 22010000 		.4byte	.LVL313
 8607 0ee5 0100     		.2byte	0x1
 8608 0ee7 54       		.byte	0x54
 8609 0ee8 24010000 		.4byte	.LVL314
 8610 0eec 28010000 		.4byte	.LVL315
 8611 0ef0 0100     		.2byte	0x1
 8612 0ef2 54       		.byte	0x54
 8613 0ef3 00000000 		.4byte	0
 8614 0ef7 00000000 		.4byte	0
 8615              	.LLST92:
 8616 0efb CC000000 		.4byte	.LVL301
 8617 0eff E8000000 		.4byte	.LVL303
 8618 0f03 0100     		.2byte	0x1
 8619 0f05 55       		.byte	0x55
 8620 0f06 EA000000 		.4byte	.LVL304
 8621 0f0a 00010000 		.4byte	.LVL310
 8622 0f0e 0100     		.2byte	0x1
ARM GAS  C:\Users\Esteban\AppData\Local\Temp\ccHxlO6N.s 			page 220


 8623 0f10 55       		.byte	0x55
 8624 0f11 02010000 		.4byte	.LVL311
 8625 0f15 2E010000 		.4byte	.LVL316
 8626 0f19 0100     		.2byte	0x1
 8627 0f1b 55       		.byte	0x55
 8628 0f1c 00000000 		.4byte	0
 8629 0f20 00000000 		.4byte	0
 8630              	.LLST93:
 8631 0f24 1C000000 		.4byte	.LVL278
 8632 0f28 20000000 		.4byte	.LVL279
 8633 0f2c 0200     		.2byte	0x2
 8634 0f2e 30       		.byte	0x30
 8635 0f2f 9F       		.byte	0x9f
 8636 0f30 22000000 		.4byte	.LVL280
 8637 0f34 24000000 		.4byte	.LVL281
 8638 0f38 0200     		.2byte	0x2
 8639 0f3a 31       		.byte	0x31
 8640 0f3b 9F       		.byte	0x9f
 8641 0f3c 24000000 		.4byte	.LVL281
 8642 0f40 96000000 		.4byte	.LVL291
 8643 0f44 0100     		.2byte	0x1
 8644 0f46 57       		.byte	0x57
 8645 0f47 A8000000 		.4byte	.LVL293
 8646 0f4b CC000000 		.4byte	.LVL301
 8647 0f4f 0100     		.2byte	0x1
 8648 0f51 57       		.byte	0x57
 8649 0f52 00000000 		.4byte	0
 8650 0f56 00000000 		.4byte	0
 8651              	.LLST94:
 8652 0f5a 3A000000 		.4byte	.LVL283
 8653 0f5e 43000000 		.4byte	.LVL284-1
 8654 0f62 0100     		.2byte	0x1
 8655 0f64 50       		.byte	0x50
 8656 0f65 00000000 		.4byte	0
 8657 0f69 00000000 		.4byte	0
 8658              	.LLST95:
 8659 0f6d 0C000000 		.4byte	.LVL276
 8660 0f71 6A000000 		.4byte	.LVL288
 8661 0f75 0200     		.2byte	0x2
 8662 0f77 30       		.byte	0x30
 8663 0f78 9F       		.byte	0x9f
 8664 0f79 6A000000 		.4byte	.LVL288
 8665 0f7d 87000000 		.4byte	.LVL289-1
 8666 0f81 0100     		.2byte	0x1
 8667 0f83 52       		.byte	0x52
 8668 0f84 94000000 		.4byte	.LVL290
 8669 0f88 9B000000 		.4byte	.LVL292-1
 8670 0f8c 0100     		.2byte	0x1
 8671 0f8e 52       		.byte	0x52
 8672 0f8f A8000000 		.4byte	.LVL293
 8673 0f93 BC000000 		.4byte	.LVL294
 8674 0f97 0100     		.2byte	0x1
 8675 0f99 52       		.byte	0x52
 8676 0f9a BE000000 		.4byte	.LVL295
 8677 0f9e C4000000 		.4byte	.LVL298
 8678 0fa2 0100     		.2byte	0x1
 8679 0fa4 52       		.byte	0x52
ARM GAS  C:\Users\Esteban\AppData\Local\Temp\ccHxlO6N.s 			page 221


 8680 0fa5 C4000000 		.4byte	.LVL298
 8681 0fa9 C8000000 		.4byte	.LVL300
 8682 0fad 0200     		.2byte	0x2
 8683 0faf 30       		.byte	0x30
 8684 0fb0 9F       		.byte	0x9f
 8685 0fb1 C8000000 		.4byte	.LVL300
 8686 0fb5 CC000000 		.4byte	.LVL301
 8687 0fb9 0100     		.2byte	0x1
 8688 0fbb 52       		.byte	0x52
 8689 0fbc 00000000 		.4byte	0
 8690 0fc0 00000000 		.4byte	0
 8691              	.LLST96:
 8692 0fc4 1C000000 		.4byte	.LVL278
 8693 0fc8 20000000 		.4byte	.LVL279
 8694 0fcc 0100     		.2byte	0x1
 8695 0fce 50       		.byte	0x50
 8696 0fcf 22000000 		.4byte	.LVL280
 8697 0fd3 43000000 		.4byte	.LVL284-1
 8698 0fd7 0100     		.2byte	0x1
 8699 0fd9 52       		.byte	0x52
 8700 0fda 50000000 		.4byte	.LVL285
 8701 0fde 63000000 		.4byte	.LVL287-1
 8702 0fe2 0100     		.2byte	0x1
 8703 0fe4 52       		.byte	0x52
 8704 0fe5 C4000000 		.4byte	.LVL298
 8705 0fe9 C6000000 		.4byte	.LVL299
 8706 0fed 0100     		.2byte	0x1
 8707 0fef 52       		.byte	0x52
 8708 0ff0 00000000 		.4byte	0
 8709 0ff4 00000000 		.4byte	0
 8710              	.LLST97:
 8711 0ff8 00000000 		.4byte	.LVL317
 8712 0ffc 09000000 		.4byte	.LVL319-1
 8713 1000 0100     		.2byte	0x1
 8714 1002 50       		.byte	0x50
 8715 1003 09000000 		.4byte	.LVL319-1
 8716 1007 2E000000 		.4byte	.LVL327
 8717 100b 0100     		.2byte	0x1
 8718 100d 57       		.byte	0x57
 8719 100e 2E000000 		.4byte	.LVL327
 8720 1012 34000000 		.4byte	.LFE22
 8721 1016 0400     		.2byte	0x4
 8722 1018 F3       		.byte	0xf3
 8723 1019 01       		.uleb128 0x1
 8724 101a 50       		.byte	0x50
 8725 101b 9F       		.byte	0x9f
 8726 101c 00000000 		.4byte	0
 8727 1020 00000000 		.4byte	0
 8728              	.LLST98:
 8729 1024 00000000 		.4byte	.LVL317
 8730 1028 09000000 		.4byte	.LVL319-1
 8731 102c 0100     		.2byte	0x1
 8732 102e 51       		.byte	0x51
 8733 102f 09000000 		.4byte	.LVL319-1
 8734 1033 34000000 		.4byte	.LFE22
 8735 1037 0400     		.2byte	0x4
 8736 1039 F3       		.byte	0xf3
ARM GAS  C:\Users\Esteban\AppData\Local\Temp\ccHxlO6N.s 			page 222


 8737 103a 01       		.uleb128 0x1
 8738 103b 51       		.byte	0x51
 8739 103c 9F       		.byte	0x9f
 8740 103d 00000000 		.4byte	0
 8741 1041 00000000 		.4byte	0
 8742              	.LLST99:
 8743 1045 0E000000 		.4byte	.LVL320
 8744 1049 26000000 		.4byte	.LVL325
 8745 104d 0100     		.2byte	0x1
 8746 104f 54       		.byte	0x54
 8747 1050 28000000 		.4byte	.LVL326
 8748 1054 2E000000 		.4byte	.LVL327
 8749 1058 0100     		.2byte	0x1
 8750 105a 54       		.byte	0x54
 8751 105b 00000000 		.4byte	0
 8752 105f 00000000 		.4byte	0
 8753              	.LLST100:
 8754 1063 0E000000 		.4byte	.LVL320
 8755 1067 2E000000 		.4byte	.LVL327
 8756 106b 0100     		.2byte	0x1
 8757 106d 56       		.byte	0x56
 8758 106e 00000000 		.4byte	0
 8759 1072 00000000 		.4byte	0
 8760              	.LLST101:
 8761 1076 06000000 		.4byte	.LVL318
 8762 107a 12000000 		.4byte	.LVL321
 8763 107e 0200     		.2byte	0x2
 8764 1080 30       		.byte	0x30
 8765 1081 9F       		.byte	0x9f
 8766 1082 12000000 		.4byte	.LVL321
 8767 1086 22000000 		.4byte	.LVL323
 8768 108a 0100     		.2byte	0x1
 8769 108c 55       		.byte	0x55
 8770 108d 24000000 		.4byte	.LVL324
 8771 1091 2E000000 		.4byte	.LVL327
 8772 1095 0100     		.2byte	0x1
 8773 1097 55       		.byte	0x55
 8774 1098 00000000 		.4byte	0
 8775 109c 00000000 		.4byte	0
 8776              	.LLST102:
 8777 10a0 1C000000 		.4byte	.LVL322
 8778 10a4 24000000 		.4byte	.LVL324
 8779 10a8 0100     		.2byte	0x1
 8780 10aa 50       		.byte	0x50
 8781 10ab 00000000 		.4byte	0
 8782 10af 00000000 		.4byte	0
 8783              	.LLST103:
 8784 10b3 00000000 		.4byte	.LVL328
 8785 10b7 0B000000 		.4byte	.LVL329-1
 8786 10bb 0100     		.2byte	0x1
 8787 10bd 50       		.byte	0x50
 8788 10be 0B000000 		.4byte	.LVL329-1
 8789 10c2 12000000 		.4byte	.LVL330
 8790 10c6 0400     		.2byte	0x4
 8791 10c8 F3       		.byte	0xf3
 8792 10c9 01       		.uleb128 0x1
 8793 10ca 50       		.byte	0x50
ARM GAS  C:\Users\Esteban\AppData\Local\Temp\ccHxlO6N.s 			page 223


 8794 10cb 9F       		.byte	0x9f
 8795 10cc 12000000 		.4byte	.LVL330
 8796 10d0 18000000 		.4byte	.LFE23
 8797 10d4 0100     		.2byte	0x1
 8798 10d6 50       		.byte	0x50
 8799 10d7 00000000 		.4byte	0
 8800 10db 00000000 		.4byte	0
 8801              	.LLST104:
 8802 10df 00000000 		.4byte	.LVL328
 8803 10e3 0B000000 		.4byte	.LVL329-1
 8804 10e7 0100     		.2byte	0x1
 8805 10e9 51       		.byte	0x51
 8806 10ea 0B000000 		.4byte	.LVL329-1
 8807 10ee 12000000 		.4byte	.LVL330
 8808 10f2 0400     		.2byte	0x4
 8809 10f4 F3       		.byte	0xf3
 8810 10f5 01       		.uleb128 0x1
 8811 10f6 51       		.byte	0x51
 8812 10f7 9F       		.byte	0x9f
 8813 10f8 12000000 		.4byte	.LVL330
 8814 10fc 18000000 		.4byte	.LFE23
 8815 1100 0100     		.2byte	0x1
 8816 1102 51       		.byte	0x51
 8817 1103 00000000 		.4byte	0
 8818 1107 00000000 		.4byte	0
 8819              	.LLST105:
 8820 110b 0C000000 		.4byte	.LVL329
 8821 110f 12000000 		.4byte	.LVL330
 8822 1113 0100     		.2byte	0x1
 8823 1115 50       		.byte	0x50
 8824 1116 00000000 		.4byte	0
 8825 111a 00000000 		.4byte	0
 8826              	.LLST106:
 8827 111e 00000000 		.4byte	.LVL331
 8828 1122 04000000 		.4byte	.LVL332
 8829 1126 0100     		.2byte	0x1
 8830 1128 50       		.byte	0x50
 8831 1129 04000000 		.4byte	.LVL332
 8832 112d 1C000000 		.4byte	.LFE38
 8833 1131 0400     		.2byte	0x4
 8834 1133 F3       		.byte	0xf3
 8835 1134 01       		.uleb128 0x1
 8836 1135 50       		.byte	0x50
 8837 1136 9F       		.byte	0x9f
 8838 1137 00000000 		.4byte	0
 8839 113b 00000000 		.4byte	0
 8840              	.LLST107:
 8841 113f 04000000 		.4byte	.LVL332
 8842 1143 0C000000 		.4byte	.LVL333
 8843 1147 0100     		.2byte	0x1
 8844 1149 50       		.byte	0x50
 8845 114a 00000000 		.4byte	0
 8846 114e 00000000 		.4byte	0
 8847              	.LLST108:
 8848 1152 0C000000 		.4byte	.LVL333
 8849 1156 14000000 		.4byte	.LVL335
 8850 115a 0500     		.2byte	0x5
ARM GAS  C:\Users\Esteban\AppData\Local\Temp\ccHxlO6N.s 			page 224


 8851 115c 70       		.byte	0x70
 8852 115d 00       		.sleb128 0
 8853 115e 38       		.byte	0x38
 8854 115f 24       		.byte	0x24
 8855 1160 9F       		.byte	0x9f
 8856 1161 00000000 		.4byte	0
 8857 1165 00000000 		.4byte	0
 8858              	.LLST109:
 8859 1169 10000000 		.4byte	.LVL334
 8860 116d 14000000 		.4byte	.LVL335
 8861 1171 0800     		.2byte	0x8
 8862 1173 70       		.byte	0x70
 8863 1174 00       		.sleb128 0
 8864 1175 38       		.byte	0x38
 8865 1176 24       		.byte	0x24
 8866 1177 73       		.byte	0x73
 8867 1178 00       		.sleb128 0
 8868 1179 21       		.byte	0x21
 8869 117a 9F       		.byte	0x9f
 8870 117b 00000000 		.4byte	0
 8871 117f 00000000 		.4byte	0
 8872              	.LLST110:
 8873 1183 00000000 		.4byte	.LVL336
 8874 1187 1C000000 		.4byte	.LVL339
 8875 118b 0100     		.2byte	0x1
 8876 118d 50       		.byte	0x50
 8877 118e 1C000000 		.4byte	.LVL339
 8878 1192 C8000000 		.4byte	.LFE27
 8879 1196 0400     		.2byte	0x4
 8880 1198 F3       		.byte	0xf3
 8881 1199 01       		.uleb128 0x1
 8882 119a 50       		.byte	0x50
 8883 119b 9F       		.byte	0x9f
 8884 119c 00000000 		.4byte	0
 8885 11a0 00000000 		.4byte	0
 8886              	.LLST111:
 8887 11a4 00000000 		.4byte	.LVL336
 8888 11a8 1C000000 		.4byte	.LVL339
 8889 11ac 0100     		.2byte	0x1
 8890 11ae 51       		.byte	0x51
 8891 11af 1C000000 		.4byte	.LVL339
 8892 11b3 C8000000 		.4byte	.LFE27
 8893 11b7 0400     		.2byte	0x4
 8894 11b9 F3       		.byte	0xf3
 8895 11ba 01       		.uleb128 0x1
 8896 11bb 51       		.byte	0x51
 8897 11bc 9F       		.byte	0x9f
 8898 11bd 00000000 		.4byte	0
 8899 11c1 00000000 		.4byte	0
 8900              	.LLST112:
 8901 11c5 00000000 		.4byte	.LVL336
 8902 11c9 1C000000 		.4byte	.LVL339
 8903 11cd 0100     		.2byte	0x1
 8904 11cf 52       		.byte	0x52
 8905 11d0 1C000000 		.4byte	.LVL339
 8906 11d4 C8000000 		.4byte	.LFE27
 8907 11d8 0400     		.2byte	0x4
ARM GAS  C:\Users\Esteban\AppData\Local\Temp\ccHxlO6N.s 			page 225


 8908 11da F3       		.byte	0xf3
 8909 11db 01       		.uleb128 0x1
 8910 11dc 52       		.byte	0x52
 8911 11dd 9F       		.byte	0x9f
 8912 11de 00000000 		.4byte	0
 8913 11e2 00000000 		.4byte	0
 8914              	.LLST113:
 8915 11e6 00000000 		.4byte	.LVL336
 8916 11ea 10000000 		.4byte	.LVL337
 8917 11ee 0100     		.2byte	0x1
 8918 11f0 53       		.byte	0x53
 8919 11f1 10000000 		.4byte	.LVL337
 8920 11f5 C8000000 		.4byte	.LFE27
 8921 11f9 0400     		.2byte	0x4
 8922 11fb F3       		.byte	0xf3
 8923 11fc 01       		.uleb128 0x1
 8924 11fd 53       		.byte	0x53
 8925 11fe 9F       		.byte	0x9f
 8926 11ff 00000000 		.4byte	0
 8927 1203 00000000 		.4byte	0
 8928              	.LLST114:
 8929 1207 18000000 		.4byte	.LVL338
 8930 120b 1C000000 		.4byte	.LVL339
 8931 120f 0100     		.2byte	0x1
 8932 1211 52       		.byte	0x52
 8933 1212 1C000000 		.4byte	.LVL339
 8934 1216 25000000 		.4byte	.LVL340-1
 8935 121a 0100     		.2byte	0x1
 8936 121c 53       		.byte	0x53
 8937 121d 34000000 		.4byte	.LVL342
 8938 1221 5A000000 		.4byte	.LVL343
 8939 1225 0100     		.2byte	0x1
 8940 1227 53       		.byte	0x53
 8941 1228 5C000000 		.4byte	.LVL344
 8942 122c 82000000 		.4byte	.LVL348
 8943 1230 0100     		.2byte	0x1
 8944 1232 53       		.byte	0x53
 8945 1233 84000000 		.4byte	.LVL349
 8946 1237 8E000000 		.4byte	.LVL351
 8947 123b 0100     		.2byte	0x1
 8948 123d 53       		.byte	0x53
 8949 123e 9E000000 		.4byte	.LVL354
 8950 1242 B8000000 		.4byte	.LVL355
 8951 1246 0100     		.2byte	0x1
 8952 1248 54       		.byte	0x54
 8953 1249 BA000000 		.4byte	.LVL356
 8954 124d BE000000 		.4byte	.LVL357
 8955 1251 0100     		.2byte	0x1
 8956 1253 54       		.byte	0x54
 8957 1254 00000000 		.4byte	0
 8958 1258 00000000 		.4byte	0
 8959              	.LLST115:
 8960 125c 60000000 		.4byte	.LVL345
 8961 1260 7E000000 		.4byte	.LVL346
 8962 1264 0100     		.2byte	0x1
 8963 1266 56       		.byte	0x56
 8964 1267 80000000 		.4byte	.LVL347
ARM GAS  C:\Users\Esteban\AppData\Local\Temp\ccHxlO6N.s 			page 226


 8965 126b 96000000 		.4byte	.LVL352
 8966 126f 0100     		.2byte	0x1
 8967 1271 56       		.byte	0x56
 8968 1272 98000000 		.4byte	.LVL353
 8969 1276 C4000000 		.4byte	.LVL358
 8970 127a 0100     		.2byte	0x1
 8971 127c 56       		.byte	0x56
 8972 127d 00000000 		.4byte	0
 8973 1281 00000000 		.4byte	0
 8974              	.LLST116:
 8975 1285 1C000000 		.4byte	.LVL339
 8976 1289 32000000 		.4byte	.LVL341
 8977 128d 0500     		.2byte	0x5
 8978 128f 77       		.byte	0x77
 8979 1290 00       		.sleb128 0
 8980 1291 3F       		.byte	0x3f
 8981 1292 1A       		.byte	0x1a
 8982 1293 9F       		.byte	0x9f
 8983 1294 00000000 		.4byte	0
 8984 1298 00000000 		.4byte	0
 8985              	.LLST117:
 8986 129c 18000000 		.4byte	.LVL338
 8987 12a0 1C000000 		.4byte	.LVL339
 8988 12a4 0100     		.2byte	0x1
 8989 12a6 50       		.byte	0x50
 8990 12a7 1C000000 		.4byte	.LVL339
 8991 12ab C4000000 		.4byte	.LVL358
 8992 12af 0100     		.2byte	0x1
 8993 12b1 57       		.byte	0x57
 8994 12b2 00000000 		.4byte	0
 8995 12b6 00000000 		.4byte	0
 8996              	.LLST118:
 8997 12ba 00000000 		.4byte	.LVL359
 8998 12be 0F000000 		.4byte	.LVL360-1
 8999 12c2 0100     		.2byte	0x1
 9000 12c4 50       		.byte	0x50
 9001 12c5 0F000000 		.4byte	.LVL360-1
 9002 12c9 16000000 		.4byte	.LVL361
 9003 12cd 0400     		.2byte	0x4
 9004 12cf F3       		.byte	0xf3
 9005 12d0 01       		.uleb128 0x1
 9006 12d1 50       		.byte	0x50
 9007 12d2 9F       		.byte	0x9f
 9008 12d3 16000000 		.4byte	.LVL361
 9009 12d7 1C000000 		.4byte	.LFE30
 9010 12db 0100     		.2byte	0x1
 9011 12dd 50       		.byte	0x50
 9012 12de 00000000 		.4byte	0
 9013 12e2 00000000 		.4byte	0
 9014              	.LLST119:
 9015 12e6 00000000 		.4byte	.LVL359
 9016 12ea 0F000000 		.4byte	.LVL360-1
 9017 12ee 0100     		.2byte	0x1
 9018 12f0 51       		.byte	0x51
 9019 12f1 0F000000 		.4byte	.LVL360-1
 9020 12f5 16000000 		.4byte	.LVL361
 9021 12f9 0400     		.2byte	0x4
ARM GAS  C:\Users\Esteban\AppData\Local\Temp\ccHxlO6N.s 			page 227


 9022 12fb F3       		.byte	0xf3
 9023 12fc 01       		.uleb128 0x1
 9024 12fd 51       		.byte	0x51
 9025 12fe 9F       		.byte	0x9f
 9026 12ff 16000000 		.4byte	.LVL361
 9027 1303 1C000000 		.4byte	.LFE30
 9028 1307 0100     		.2byte	0x1
 9029 1309 51       		.byte	0x51
 9030 130a 00000000 		.4byte	0
 9031 130e 00000000 		.4byte	0
 9032              	.LLST120:
 9033 1312 10000000 		.4byte	.LVL360
 9034 1316 16000000 		.4byte	.LVL361
 9035 131a 0100     		.2byte	0x1
 9036 131c 50       		.byte	0x50
 9037 131d 00000000 		.4byte	0
 9038 1321 00000000 		.4byte	0
 9039              	.LLST121:
 9040 1325 00000000 		.4byte	.LVL362
 9041 1329 0B000000 		.4byte	.LVL363-1
 9042 132d 0100     		.2byte	0x1
 9043 132f 50       		.byte	0x50
 9044 1330 0B000000 		.4byte	.LVL363-1
 9045 1334 12000000 		.4byte	.LVL364
 9046 1338 0400     		.2byte	0x4
 9047 133a F3       		.byte	0xf3
 9048 133b 01       		.uleb128 0x1
 9049 133c 50       		.byte	0x50
 9050 133d 9F       		.byte	0x9f
 9051 133e 12000000 		.4byte	.LVL364
 9052 1342 18000000 		.4byte	.LFE31
 9053 1346 0100     		.2byte	0x1
 9054 1348 50       		.byte	0x50
 9055 1349 00000000 		.4byte	0
 9056 134d 00000000 		.4byte	0
 9057              	.LLST122:
 9058 1351 00000000 		.4byte	.LVL362
 9059 1355 0B000000 		.4byte	.LVL363-1
 9060 1359 0100     		.2byte	0x1
 9061 135b 51       		.byte	0x51
 9062 135c 0B000000 		.4byte	.LVL363-1
 9063 1360 12000000 		.4byte	.LVL364
 9064 1364 0400     		.2byte	0x4
 9065 1366 F3       		.byte	0xf3
 9066 1367 01       		.uleb128 0x1
 9067 1368 51       		.byte	0x51
 9068 1369 9F       		.byte	0x9f
 9069 136a 12000000 		.4byte	.LVL364
 9070 136e 18000000 		.4byte	.LFE31
 9071 1372 0100     		.2byte	0x1
 9072 1374 51       		.byte	0x51
 9073 1375 00000000 		.4byte	0
 9074 1379 00000000 		.4byte	0
 9075              	.LLST123:
 9076 137d 0C000000 		.4byte	.LVL363
 9077 1381 12000000 		.4byte	.LVL364
 9078 1385 0100     		.2byte	0x1
ARM GAS  C:\Users\Esteban\AppData\Local\Temp\ccHxlO6N.s 			page 228


 9079 1387 50       		.byte	0x50
 9080 1388 00000000 		.4byte	0
 9081 138c 00000000 		.4byte	0
 9082              	.LLST124:
 9083 1390 00000000 		.4byte	.LVL365
 9084 1394 06000000 		.4byte	.LVL367
 9085 1398 0100     		.2byte	0x1
 9086 139a 50       		.byte	0x50
 9087 139b 06000000 		.4byte	.LVL367
 9088 139f 2C000000 		.4byte	.LFE39
 9089 13a3 0400     		.2byte	0x4
 9090 13a5 F3       		.byte	0xf3
 9091 13a6 01       		.uleb128 0x1
 9092 13a7 50       		.byte	0x50
 9093 13a8 9F       		.byte	0x9f
 9094 13a9 00000000 		.4byte	0
 9095 13ad 00000000 		.4byte	0
 9096              	.LLST125:
 9097 13b1 06000000 		.4byte	.LVL367
 9098 13b5 08000000 		.4byte	.LVL368
 9099 13b9 0100     		.2byte	0x1
 9100 13bb 50       		.byte	0x50
 9101 13bc 08000000 		.4byte	.LVL368
 9102 13c0 0A000000 		.4byte	.LVL369
 9103 13c4 0300     		.2byte	0x3
 9104 13c6 70       		.byte	0x70
 9105 13c7 02       		.sleb128 2
 9106 13c8 9F       		.byte	0x9f
 9107 13c9 0E000000 		.4byte	.LVL370
 9108 13cd 14000000 		.4byte	.LVL371
 9109 13d1 0100     		.2byte	0x1
 9110 13d3 50       		.byte	0x50
 9111 13d4 00000000 		.4byte	0
 9112 13d8 00000000 		.4byte	0
 9113              	.LLST126:
 9114 13dc 1E000000 		.4byte	.LVL373
 9115 13e0 24000000 		.4byte	.LVL375
 9116 13e4 0100     		.2byte	0x1
 9117 13e6 53       		.byte	0x53
 9118 13e7 00000000 		.4byte	0
 9119 13eb 00000000 		.4byte	0
 9120              	.LLST127:
 9121 13ef 1A000000 		.4byte	.LVL372
 9122 13f3 22000000 		.4byte	.LVL374
 9123 13f7 0500     		.2byte	0x5
 9124 13f9 70       		.byte	0x70
 9125 13fa 00       		.sleb128 0
 9126 13fb 38       		.byte	0x38
 9127 13fc 24       		.byte	0x24
 9128 13fd 9F       		.byte	0x9f
 9129 13fe 00000000 		.4byte	0
 9130 1402 00000000 		.4byte	0
 9131              	.LLST128:
 9132 1406 22000000 		.4byte	.LVL374
 9133 140a 24000000 		.4byte	.LVL375
 9134 140e 0100     		.2byte	0x1
 9135 1410 50       		.byte	0x50
ARM GAS  C:\Users\Esteban\AppData\Local\Temp\ccHxlO6N.s 			page 229


 9136 1411 26000000 		.4byte	.LVL376
 9137 1415 2C000000 		.4byte	.LFE39
 9138 1419 0100     		.2byte	0x1
 9139 141b 50       		.byte	0x50
 9140 141c 00000000 		.4byte	0
 9141 1420 00000000 		.4byte	0
 9142              	.LLST129:
 9143 1424 00000000 		.4byte	.LVL377
 9144 1428 28000000 		.4byte	.LVL384
 9145 142c 0100     		.2byte	0x1
 9146 142e 50       		.byte	0x50
 9147 142f 28000000 		.4byte	.LVL384
 9148 1433 38010000 		.4byte	.LFE26
 9149 1437 0400     		.2byte	0x4
 9150 1439 F3       		.byte	0xf3
 9151 143a 01       		.uleb128 0x1
 9152 143b 50       		.byte	0x50
 9153 143c 9F       		.byte	0x9f
 9154 143d 00000000 		.4byte	0
 9155 1441 00000000 		.4byte	0
 9156              	.LLST130:
 9157 1445 00000000 		.4byte	.LVL377
 9158 1449 28000000 		.4byte	.LVL384
 9159 144d 0100     		.2byte	0x1
 9160 144f 51       		.byte	0x51
 9161 1450 28000000 		.4byte	.LVL384
 9162 1454 38010000 		.4byte	.LFE26
 9163 1458 0400     		.2byte	0x4
 9164 145a F3       		.byte	0xf3
 9165 145b 01       		.uleb128 0x1
 9166 145c 51       		.byte	0x51
 9167 145d 9F       		.byte	0x9f
 9168 145e 00000000 		.4byte	0
 9169 1462 00000000 		.4byte	0
 9170              	.LLST131:
 9171 1466 00000000 		.4byte	.LVL377
 9172 146a 1C000000 		.4byte	.LVL380
 9173 146e 0100     		.2byte	0x1
 9174 1470 52       		.byte	0x52
 9175 1471 1C000000 		.4byte	.LVL380
 9176 1475 20000000 		.4byte	.LVL381
 9177 1479 0400     		.2byte	0x4
 9178 147b F3       		.byte	0xf3
 9179 147c 01       		.uleb128 0x1
 9180 147d 52       		.byte	0x52
 9181 147e 9F       		.byte	0x9f
 9182 147f 20000000 		.4byte	.LVL381
 9183 1483 22000000 		.4byte	.LVL382
 9184 1487 0100     		.2byte	0x1
 9185 1489 52       		.byte	0x52
 9186 148a 22000000 		.4byte	.LVL382
 9187 148e 38010000 		.4byte	.LFE26
 9188 1492 0400     		.2byte	0x4
 9189 1494 F3       		.byte	0xf3
 9190 1495 01       		.uleb128 0x1
 9191 1496 52       		.byte	0x52
 9192 1497 9F       		.byte	0x9f
ARM GAS  C:\Users\Esteban\AppData\Local\Temp\ccHxlO6N.s 			page 230


 9193 1498 00000000 		.4byte	0
 9194 149c 00000000 		.4byte	0
 9195              	.LLST132:
 9196 14a0 00000000 		.4byte	.LVL377
 9197 14a4 0E000000 		.4byte	.LVL379
 9198 14a8 0100     		.2byte	0x1
 9199 14aa 53       		.byte	0x53
 9200 14ab 0E000000 		.4byte	.LVL379
 9201 14af 38010000 		.4byte	.LFE26
 9202 14b3 0400     		.2byte	0x4
 9203 14b5 F3       		.byte	0xf3
 9204 14b6 01       		.uleb128 0x1
 9205 14b7 53       		.byte	0x53
 9206 14b8 9F       		.byte	0x9f
 9207 14b9 00000000 		.4byte	0
 9208 14bd 00000000 		.4byte	0
 9209              	.LLST133:
 9210 14c1 24000000 		.4byte	.LVL383
 9211 14c5 28000000 		.4byte	.LVL384
 9212 14c9 0100     		.2byte	0x1
 9213 14cb 54       		.byte	0x54
 9214 14cc 28000000 		.4byte	.LVL384
 9215 14d0 43000000 		.4byte	.LVL386-1
 9216 14d4 0100     		.2byte	0x1
 9217 14d6 53       		.byte	0x53
 9218 14d7 54000000 		.4byte	.LVL388
 9219 14db 63000000 		.4byte	.LVL389-1
 9220 14df 0100     		.2byte	0x1
 9221 14e1 53       		.byte	0x53
 9222 14e2 6A000000 		.4byte	.LVL390
 9223 14e6 87000000 		.4byte	.LVL391-1
 9224 14ea 0100     		.2byte	0x1
 9225 14ec 53       		.byte	0x53
 9226 14ed 94000000 		.4byte	.LVL392
 9227 14f1 9B000000 		.4byte	.LVL394-1
 9228 14f5 0100     		.2byte	0x1
 9229 14f7 53       		.byte	0x53
 9230 14f8 A8000000 		.4byte	.LVL395
 9231 14fc C0000000 		.4byte	.LVL398
 9232 1500 0100     		.2byte	0x1
 9233 1502 53       		.byte	0x53
 9234 1503 C2000000 		.4byte	.LVL399
 9235 1507 CC000000 		.4byte	.LVL403
 9236 150b 0100     		.2byte	0x1
 9237 150d 53       		.byte	0x53
 9238 150e D2000000 		.4byte	.LVL404
 9239 1512 EC000000 		.4byte	.LVL407
 9240 1516 0100     		.2byte	0x1
 9241 1518 53       		.byte	0x53
 9242 1519 EE000000 		.4byte	.LVL408
 9243 151d F0000000 		.4byte	.LVL409
 9244 1521 0100     		.2byte	0x1
 9245 1523 53       		.byte	0x53
 9246 1524 F2000000 		.4byte	.LVL410
 9247 1528 F8000000 		.4byte	.LVL411
 9248 152c 0100     		.2byte	0x1
 9249 152e 53       		.byte	0x53
ARM GAS  C:\Users\Esteban\AppData\Local\Temp\ccHxlO6N.s 			page 231


 9250 152f 08010000 		.4byte	.LVL414
 9251 1533 22010000 		.4byte	.LVL415
 9252 1537 0100     		.2byte	0x1
 9253 1539 54       		.byte	0x54
 9254 153a 24010000 		.4byte	.LVL416
 9255 153e 28010000 		.4byte	.LVL417
 9256 1542 0100     		.2byte	0x1
 9257 1544 54       		.byte	0x54
 9258 1545 00000000 		.4byte	0
 9259 1549 00000000 		.4byte	0
 9260              	.LLST134:
 9261 154d CC000000 		.4byte	.LVL403
 9262 1551 E8000000 		.4byte	.LVL405
 9263 1555 0100     		.2byte	0x1
 9264 1557 55       		.byte	0x55
 9265 1558 EA000000 		.4byte	.LVL406
 9266 155c 00010000 		.4byte	.LVL412
 9267 1560 0100     		.2byte	0x1
 9268 1562 55       		.byte	0x55
 9269 1563 02010000 		.4byte	.LVL413
 9270 1567 2E010000 		.4byte	.LVL418
 9271 156b 0100     		.2byte	0x1
 9272 156d 55       		.byte	0x55
 9273 156e 00000000 		.4byte	0
 9274 1572 00000000 		.4byte	0
 9275              	.LLST135:
 9276 1576 1C000000 		.4byte	.LVL380
 9277 157a 20000000 		.4byte	.LVL381
 9278 157e 0200     		.2byte	0x2
 9279 1580 30       		.byte	0x30
 9280 1581 9F       		.byte	0x9f
 9281 1582 22000000 		.4byte	.LVL382
 9282 1586 24000000 		.4byte	.LVL383
 9283 158a 0200     		.2byte	0x2
 9284 158c 31       		.byte	0x31
 9285 158d 9F       		.byte	0x9f
 9286 158e 24000000 		.4byte	.LVL383
 9287 1592 96000000 		.4byte	.LVL393
 9288 1596 0100     		.2byte	0x1
 9289 1598 57       		.byte	0x57
 9290 1599 A8000000 		.4byte	.LVL395
 9291 159d CC000000 		.4byte	.LVL403
 9292 15a1 0100     		.2byte	0x1
 9293 15a3 57       		.byte	0x57
 9294 15a4 00000000 		.4byte	0
 9295 15a8 00000000 		.4byte	0
 9296              	.LLST136:
 9297 15ac 3A000000 		.4byte	.LVL385
 9298 15b0 43000000 		.4byte	.LVL386-1
 9299 15b4 0100     		.2byte	0x1
 9300 15b6 50       		.byte	0x50
 9301 15b7 00000000 		.4byte	0
 9302 15bb 00000000 		.4byte	0
 9303              	.LLST137:
 9304 15bf 0C000000 		.4byte	.LVL378
 9305 15c3 6A000000 		.4byte	.LVL390
 9306 15c7 0200     		.2byte	0x2
ARM GAS  C:\Users\Esteban\AppData\Local\Temp\ccHxlO6N.s 			page 232


 9307 15c9 30       		.byte	0x30
 9308 15ca 9F       		.byte	0x9f
 9309 15cb 6A000000 		.4byte	.LVL390
 9310 15cf 87000000 		.4byte	.LVL391-1
 9311 15d3 0100     		.2byte	0x1
 9312 15d5 52       		.byte	0x52
 9313 15d6 94000000 		.4byte	.LVL392
 9314 15da 9B000000 		.4byte	.LVL394-1
 9315 15de 0100     		.2byte	0x1
 9316 15e0 52       		.byte	0x52
 9317 15e1 A8000000 		.4byte	.LVL395
 9318 15e5 BC000000 		.4byte	.LVL396
 9319 15e9 0100     		.2byte	0x1
 9320 15eb 52       		.byte	0x52
 9321 15ec BE000000 		.4byte	.LVL397
 9322 15f0 C4000000 		.4byte	.LVL400
 9323 15f4 0100     		.2byte	0x1
 9324 15f6 52       		.byte	0x52
 9325 15f7 C4000000 		.4byte	.LVL400
 9326 15fb C8000000 		.4byte	.LVL402
 9327 15ff 0200     		.2byte	0x2
 9328 1601 30       		.byte	0x30
 9329 1602 9F       		.byte	0x9f
 9330 1603 C8000000 		.4byte	.LVL402
 9331 1607 CC000000 		.4byte	.LVL403
 9332 160b 0100     		.2byte	0x1
 9333 160d 52       		.byte	0x52
 9334 160e 00000000 		.4byte	0
 9335 1612 00000000 		.4byte	0
 9336              	.LLST138:
 9337 1616 1C000000 		.4byte	.LVL380
 9338 161a 20000000 		.4byte	.LVL381
 9339 161e 0100     		.2byte	0x1
 9340 1620 50       		.byte	0x50
 9341 1621 22000000 		.4byte	.LVL382
 9342 1625 43000000 		.4byte	.LVL386-1
 9343 1629 0100     		.2byte	0x1
 9344 162b 52       		.byte	0x52
 9345 162c 50000000 		.4byte	.LVL387
 9346 1630 63000000 		.4byte	.LVL389-1
 9347 1634 0100     		.2byte	0x1
 9348 1636 52       		.byte	0x52
 9349 1637 C4000000 		.4byte	.LVL400
 9350 163b C6000000 		.4byte	.LVL401
 9351 163f 0100     		.2byte	0x1
 9352 1641 52       		.byte	0x52
 9353 1642 00000000 		.4byte	0
 9354 1646 00000000 		.4byte	0
 9355              	.LLST139:
 9356 164a 00000000 		.4byte	.LVL419
 9357 164e 09000000 		.4byte	.LVL421-1
 9358 1652 0100     		.2byte	0x1
 9359 1654 50       		.byte	0x50
 9360 1655 09000000 		.4byte	.LVL421-1
 9361 1659 2E000000 		.4byte	.LVL429
 9362 165d 0100     		.2byte	0x1
 9363 165f 57       		.byte	0x57
ARM GAS  C:\Users\Esteban\AppData\Local\Temp\ccHxlO6N.s 			page 233


 9364 1660 2E000000 		.4byte	.LVL429
 9365 1664 34000000 		.4byte	.LFE28
 9366 1668 0400     		.2byte	0x4
 9367 166a F3       		.byte	0xf3
 9368 166b 01       		.uleb128 0x1
 9369 166c 50       		.byte	0x50
 9370 166d 9F       		.byte	0x9f
 9371 166e 00000000 		.4byte	0
 9372 1672 00000000 		.4byte	0
 9373              	.LLST140:
 9374 1676 00000000 		.4byte	.LVL419
 9375 167a 09000000 		.4byte	.LVL421-1
 9376 167e 0100     		.2byte	0x1
 9377 1680 51       		.byte	0x51
 9378 1681 09000000 		.4byte	.LVL421-1
 9379 1685 34000000 		.4byte	.LFE28
 9380 1689 0400     		.2byte	0x4
 9381 168b F3       		.byte	0xf3
 9382 168c 01       		.uleb128 0x1
 9383 168d 51       		.byte	0x51
 9384 168e 9F       		.byte	0x9f
 9385 168f 00000000 		.4byte	0
 9386 1693 00000000 		.4byte	0
 9387              	.LLST141:
 9388 1697 0E000000 		.4byte	.LVL422
 9389 169b 26000000 		.4byte	.LVL427
 9390 169f 0100     		.2byte	0x1
 9391 16a1 54       		.byte	0x54
 9392 16a2 28000000 		.4byte	.LVL428
 9393 16a6 2E000000 		.4byte	.LVL429
 9394 16aa 0100     		.2byte	0x1
 9395 16ac 54       		.byte	0x54
 9396 16ad 00000000 		.4byte	0
 9397 16b1 00000000 		.4byte	0
 9398              	.LLST142:
 9399 16b5 0E000000 		.4byte	.LVL422
 9400 16b9 2E000000 		.4byte	.LVL429
 9401 16bd 0100     		.2byte	0x1
 9402 16bf 56       		.byte	0x56
 9403 16c0 00000000 		.4byte	0
 9404 16c4 00000000 		.4byte	0
 9405              	.LLST143:
 9406 16c8 06000000 		.4byte	.LVL420
 9407 16cc 12000000 		.4byte	.LVL423
 9408 16d0 0200     		.2byte	0x2
 9409 16d2 30       		.byte	0x30
 9410 16d3 9F       		.byte	0x9f
 9411 16d4 12000000 		.4byte	.LVL423
 9412 16d8 22000000 		.4byte	.LVL425
 9413 16dc 0100     		.2byte	0x1
 9414 16de 55       		.byte	0x55
 9415 16df 24000000 		.4byte	.LVL426
 9416 16e3 2E000000 		.4byte	.LVL429
 9417 16e7 0100     		.2byte	0x1
 9418 16e9 55       		.byte	0x55
 9419 16ea 00000000 		.4byte	0
 9420 16ee 00000000 		.4byte	0
ARM GAS  C:\Users\Esteban\AppData\Local\Temp\ccHxlO6N.s 			page 234


 9421              	.LLST144:
 9422 16f2 1C000000 		.4byte	.LVL424
 9423 16f6 24000000 		.4byte	.LVL426
 9424 16fa 0100     		.2byte	0x1
 9425 16fc 50       		.byte	0x50
 9426 16fd 00000000 		.4byte	0
 9427 1701 00000000 		.4byte	0
 9428              	.LLST145:
 9429 1705 00000000 		.4byte	.LVL430
 9430 1709 0B000000 		.4byte	.LVL431-1
 9431 170d 0100     		.2byte	0x1
 9432 170f 50       		.byte	0x50
 9433 1710 0B000000 		.4byte	.LVL431-1
 9434 1714 12000000 		.4byte	.LVL432
 9435 1718 0400     		.2byte	0x4
 9436 171a F3       		.byte	0xf3
 9437 171b 01       		.uleb128 0x1
 9438 171c 50       		.byte	0x50
 9439 171d 9F       		.byte	0x9f
 9440 171e 12000000 		.4byte	.LVL432
 9441 1722 18000000 		.4byte	.LFE29
 9442 1726 0100     		.2byte	0x1
 9443 1728 50       		.byte	0x50
 9444 1729 00000000 		.4byte	0
 9445 172d 00000000 		.4byte	0
 9446              	.LLST146:
 9447 1731 00000000 		.4byte	.LVL430
 9448 1735 0B000000 		.4byte	.LVL431-1
 9449 1739 0100     		.2byte	0x1
 9450 173b 51       		.byte	0x51
 9451 173c 0B000000 		.4byte	.LVL431-1
 9452 1740 12000000 		.4byte	.LVL432
 9453 1744 0400     		.2byte	0x4
 9454 1746 F3       		.byte	0xf3
 9455 1747 01       		.uleb128 0x1
 9456 1748 51       		.byte	0x51
 9457 1749 9F       		.byte	0x9f
 9458 174a 12000000 		.4byte	.LVL432
 9459 174e 18000000 		.4byte	.LFE29
 9460 1752 0100     		.2byte	0x1
 9461 1754 51       		.byte	0x51
 9462 1755 00000000 		.4byte	0
 9463 1759 00000000 		.4byte	0
 9464              	.LLST147:
 9465 175d 0C000000 		.4byte	.LVL431
 9466 1761 12000000 		.4byte	.LVL432
 9467 1765 0100     		.2byte	0x1
 9468 1767 50       		.byte	0x50
 9469 1768 00000000 		.4byte	0
 9470 176c 00000000 		.4byte	0
 9471              	.LLST148:
 9472 1770 00000000 		.4byte	.LVL433
 9473 1774 20000000 		.4byte	.LVL434
 9474 1778 0100     		.2byte	0x1
 9475 177a 50       		.byte	0x50
 9476 177b 20000000 		.4byte	.LVL434
 9477 177f 3C000000 		.4byte	.LFE40
ARM GAS  C:\Users\Esteban\AppData\Local\Temp\ccHxlO6N.s 			page 235


 9478 1783 0400     		.2byte	0x4
 9479 1785 F3       		.byte	0xf3
 9480 1786 01       		.uleb128 0x1
 9481 1787 50       		.byte	0x50
 9482 1788 9F       		.byte	0x9f
 9483 1789 00000000 		.4byte	0
 9484 178d 00000000 		.4byte	0
 9485              	.LLST149:
 9486 1791 00000000 		.4byte	.LVL433
 9487 1795 28000000 		.4byte	.LVL435
 9488 1799 0100     		.2byte	0x1
 9489 179b 51       		.byte	0x51
 9490 179c 28000000 		.4byte	.LVL435
 9491 17a0 3C000000 		.4byte	.LFE40
 9492 17a4 0400     		.2byte	0x4
 9493 17a6 F3       		.byte	0xf3
 9494 17a7 01       		.uleb128 0x1
 9495 17a8 51       		.byte	0x51
 9496 17a9 9F       		.byte	0x9f
 9497 17aa 00000000 		.4byte	0
 9498 17ae 00000000 		.4byte	0
 9499              	.LLST150:
 9500 17b2 00000000 		.4byte	.LVL436
 9501 17b6 04000000 		.4byte	.LVL437
 9502 17ba 0100     		.2byte	0x1
 9503 17bc 50       		.byte	0x50
 9504 17bd 04000000 		.4byte	.LVL437
 9505 17c1 0C000000 		.4byte	.LFE41
 9506 17c5 0400     		.2byte	0x4
 9507 17c7 F3       		.byte	0xf3
 9508 17c8 01       		.uleb128 0x1
 9509 17c9 50       		.byte	0x50
 9510 17ca 9F       		.byte	0x9f
 9511 17cb 00000000 		.4byte	0
 9512 17cf 00000000 		.4byte	0
 9513              		.section	.debug_aranges,"",%progbits
 9514 0000 64010000 		.4byte	0x164
 9515 0004 0200     		.2byte	0x2
 9516 0006 00000000 		.4byte	.Ldebug_info0
 9517 000a 04       		.byte	0x4
 9518 000b 00       		.byte	0
 9519 000c 0000     		.2byte	0
 9520 000e 0000     		.2byte	0
 9521 0010 00000000 		.4byte	.LFB0
 9522 0014 60010000 		.4byte	.LFE0-.LFB0
 9523 0018 00000000 		.4byte	.LFB1
 9524 001c 3C000000 		.4byte	.LFE1-.LFB1
 9525 0020 00000000 		.4byte	.LFB2
 9526 0024 6C000000 		.4byte	.LFE2-.LFB2
 9527 0028 00000000 		.4byte	.LFB4
 9528 002c 24000000 		.4byte	.LFE4-.LFB4
 9529 0030 00000000 		.4byte	.LFB7
 9530 0034 10000000 		.4byte	.LFE7-.LFB7
 9531 0038 00000000 		.4byte	.LFB8
 9532 003c 1C000000 		.4byte	.LFE8-.LFB8
 9533 0040 00000000 		.4byte	.LFB9
 9534 0044 20000000 		.4byte	.LFE9-.LFB9
ARM GAS  C:\Users\Esteban\AppData\Local\Temp\ccHxlO6N.s 			page 236


 9535 0048 00000000 		.4byte	.LFB10
 9536 004c 1C000000 		.4byte	.LFE10-.LFB10
 9537 0050 00000000 		.4byte	.LFB11
 9538 0054 24000000 		.4byte	.LFE11-.LFB11
 9539 0058 00000000 		.4byte	.LFB12
 9540 005c 10000000 		.4byte	.LFE12-.LFB12
 9541 0060 00000000 		.4byte	.LFB13
 9542 0064 18000000 		.4byte	.LFE13-.LFB13
 9543 0068 00000000 		.4byte	.LFB3
 9544 006c 30000000 		.4byte	.LFE3-.LFB3
 9545 0070 00000000 		.4byte	.LFB5
 9546 0074 1C000000 		.4byte	.LFE5-.LFB5
 9547 0078 00000000 		.4byte	.LFB6
 9548 007c 20000000 		.4byte	.LFE6-.LFB6
 9549 0080 00000000 		.4byte	.LFB32
 9550 0084 24000000 		.4byte	.LFE32-.LFB32
 9551 0088 00000000 		.4byte	.LFB33
 9552 008c 14000000 		.4byte	.LFE33-.LFB33
 9553 0090 00000000 		.4byte	.LFB34
 9554 0094 10000000 		.4byte	.LFE34-.LFB34
 9555 0098 00000000 		.4byte	.LFB15
 9556 009c 24010000 		.4byte	.LFE15-.LFB15
 9557 00a0 00000000 		.4byte	.LFB18
 9558 00a4 1C000000 		.4byte	.LFE18-.LFB18
 9559 00a8 00000000 		.4byte	.LFB19
 9560 00ac 18000000 		.4byte	.LFE19-.LFB19
 9561 00b0 00000000 		.4byte	.LFB35
 9562 00b4 24000000 		.4byte	.LFE35-.LFB35
 9563 00b8 00000000 		.4byte	.LFB14
 9564 00bc 80010000 		.4byte	.LFE14-.LFB14
 9565 00c0 00000000 		.4byte	.LFB16
 9566 00c4 38000000 		.4byte	.LFE16-.LFB16
 9567 00c8 00000000 		.4byte	.LFB17
 9568 00cc 18000000 		.4byte	.LFE17-.LFB17
 9569 00d0 00000000 		.4byte	.LFB36
 9570 00d4 1C000000 		.4byte	.LFE36-.LFB36
 9571 00d8 00000000 		.4byte	.LFB21
 9572 00dc C8000000 		.4byte	.LFE21-.LFB21
 9573 00e0 00000000 		.4byte	.LFB24
 9574 00e4 1C000000 		.4byte	.LFE24-.LFB24
 9575 00e8 00000000 		.4byte	.LFB25
 9576 00ec 18000000 		.4byte	.LFE25-.LFB25
 9577 00f0 00000000 		.4byte	.LFB37
 9578 00f4 2C000000 		.4byte	.LFE37-.LFB37
 9579 00f8 00000000 		.4byte	.LFB20
 9580 00fc 38010000 		.4byte	.LFE20-.LFB20
 9581 0100 00000000 		.4byte	.LFB22
 9582 0104 34000000 		.4byte	.LFE22-.LFB22
 9583 0108 00000000 		.4byte	.LFB23
 9584 010c 18000000 		.4byte	.LFE23-.LFB23
 9585 0110 00000000 		.4byte	.LFB38
 9586 0114 1C000000 		.4byte	.LFE38-.LFB38
 9587 0118 00000000 		.4byte	.LFB27
 9588 011c C8000000 		.4byte	.LFE27-.LFB27
 9589 0120 00000000 		.4byte	.LFB30
 9590 0124 1C000000 		.4byte	.LFE30-.LFB30
 9591 0128 00000000 		.4byte	.LFB31
ARM GAS  C:\Users\Esteban\AppData\Local\Temp\ccHxlO6N.s 			page 237


 9592 012c 18000000 		.4byte	.LFE31-.LFB31
 9593 0130 00000000 		.4byte	.LFB39
 9594 0134 2C000000 		.4byte	.LFE39-.LFB39
 9595 0138 00000000 		.4byte	.LFB26
 9596 013c 38010000 		.4byte	.LFE26-.LFB26
 9597 0140 00000000 		.4byte	.LFB28
 9598 0144 34000000 		.4byte	.LFE28-.LFB28
 9599 0148 00000000 		.4byte	.LFB29
 9600 014c 18000000 		.4byte	.LFE29-.LFB29
 9601 0150 00000000 		.4byte	.LFB40
 9602 0154 3C000000 		.4byte	.LFE40-.LFB40
 9603 0158 00000000 		.4byte	.LFB41
 9604 015c 0C000000 		.4byte	.LFE41-.LFB41
 9605 0160 00000000 		.4byte	0
 9606 0164 00000000 		.4byte	0
 9607              		.section	.debug_ranges,"",%progbits
 9608              	.Ldebug_ranges0:
 9609 0000 00000000 		.4byte	.LFB0
 9610 0004 60010000 		.4byte	.LFE0
 9611 0008 00000000 		.4byte	.LFB1
 9612 000c 3C000000 		.4byte	.LFE1
 9613 0010 00000000 		.4byte	.LFB2
 9614 0014 6C000000 		.4byte	.LFE2
 9615 0018 00000000 		.4byte	.LFB4
 9616 001c 24000000 		.4byte	.LFE4
 9617 0020 00000000 		.4byte	.LFB7
 9618 0024 10000000 		.4byte	.LFE7
 9619 0028 00000000 		.4byte	.LFB8
 9620 002c 1C000000 		.4byte	.LFE8
 9621 0030 00000000 		.4byte	.LFB9
 9622 0034 20000000 		.4byte	.LFE9
 9623 0038 00000000 		.4byte	.LFB10
 9624 003c 1C000000 		.4byte	.LFE10
 9625 0040 00000000 		.4byte	.LFB11
 9626 0044 24000000 		.4byte	.LFE11
 9627 0048 00000000 		.4byte	.LFB12
 9628 004c 10000000 		.4byte	.LFE12
 9629 0050 00000000 		.4byte	.LFB13
 9630 0054 18000000 		.4byte	.LFE13
 9631 0058 00000000 		.4byte	.LFB3
 9632 005c 30000000 		.4byte	.LFE3
 9633 0060 00000000 		.4byte	.LFB5
 9634 0064 1C000000 		.4byte	.LFE5
 9635 0068 00000000 		.4byte	.LFB6
 9636 006c 20000000 		.4byte	.LFE6
 9637 0070 00000000 		.4byte	.LFB32
 9638 0074 24000000 		.4byte	.LFE32
 9639 0078 00000000 		.4byte	.LFB33
 9640 007c 14000000 		.4byte	.LFE33
 9641 0080 00000000 		.4byte	.LFB34
 9642 0084 10000000 		.4byte	.LFE34
 9643 0088 00000000 		.4byte	.LFB15
 9644 008c 24010000 		.4byte	.LFE15
 9645 0090 00000000 		.4byte	.LFB18
 9646 0094 1C000000 		.4byte	.LFE18
 9647 0098 00000000 		.4byte	.LFB19
 9648 009c 18000000 		.4byte	.LFE19
ARM GAS  C:\Users\Esteban\AppData\Local\Temp\ccHxlO6N.s 			page 238


 9649 00a0 00000000 		.4byte	.LFB35
 9650 00a4 24000000 		.4byte	.LFE35
 9651 00a8 00000000 		.4byte	.LFB14
 9652 00ac 80010000 		.4byte	.LFE14
 9653 00b0 00000000 		.4byte	.LFB16
 9654 00b4 38000000 		.4byte	.LFE16
 9655 00b8 00000000 		.4byte	.LFB17
 9656 00bc 18000000 		.4byte	.LFE17
 9657 00c0 00000000 		.4byte	.LFB36
 9658 00c4 1C000000 		.4byte	.LFE36
 9659 00c8 00000000 		.4byte	.LFB21
 9660 00cc C8000000 		.4byte	.LFE21
 9661 00d0 00000000 		.4byte	.LFB24
 9662 00d4 1C000000 		.4byte	.LFE24
 9663 00d8 00000000 		.4byte	.LFB25
 9664 00dc 18000000 		.4byte	.LFE25
 9665 00e0 00000000 		.4byte	.LFB37
 9666 00e4 2C000000 		.4byte	.LFE37
 9667 00e8 00000000 		.4byte	.LFB20
 9668 00ec 38010000 		.4byte	.LFE20
 9669 00f0 00000000 		.4byte	.LFB22
 9670 00f4 34000000 		.4byte	.LFE22
 9671 00f8 00000000 		.4byte	.LFB23
 9672 00fc 18000000 		.4byte	.LFE23
 9673 0100 00000000 		.4byte	.LFB38
 9674 0104 1C000000 		.4byte	.LFE38
 9675 0108 00000000 		.4byte	.LFB27
 9676 010c C8000000 		.4byte	.LFE27
 9677 0110 00000000 		.4byte	.LFB30
 9678 0114 1C000000 		.4byte	.LFE30
 9679 0118 00000000 		.4byte	.LFB31
 9680 011c 18000000 		.4byte	.LFE31
 9681 0120 00000000 		.4byte	.LFB39
 9682 0124 2C000000 		.4byte	.LFE39
 9683 0128 00000000 		.4byte	.LFB26
 9684 012c 38010000 		.4byte	.LFE26
 9685 0130 00000000 		.4byte	.LFB28
 9686 0134 34000000 		.4byte	.LFE28
 9687 0138 00000000 		.4byte	.LFB29
 9688 013c 18000000 		.4byte	.LFE29
 9689 0140 00000000 		.4byte	.LFB40
 9690 0144 3C000000 		.4byte	.LFE40
 9691 0148 00000000 		.4byte	.LFB41
 9692 014c 0C000000 		.4byte	.LFE41
 9693 0150 00000000 		.4byte	0
 9694 0154 00000000 		.4byte	0
 9695              		.section	.debug_line,"",%progbits
 9696              	.Ldebug_line0:
 9697 0000 38080000 		.section	.debug_str,"MS",%progbits,1
 9697      02002B01 
 9697      00000201 
 9697      FB0E0D00 
 9697      01010101 
 9698              	.LASF96:
 9699 0000 5365676D 		.ascii	"Segments_EncodeNumber16Seg\000"
 9699      656E7473 
 9699      5F456E63 
ARM GAS  C:\Users\Esteban\AppData\Local\Temp\ccHxlO6N.s 			page 239


 9699      6F64654E 
 9699      756D6265 
 9700              	.LASF79:
 9701 001b 5365676D 		.ascii	"Segments_PutChar7Seg\000"
 9701      656E7473 
 9701      5F507574 
 9701      43686172 
 9701      37536567 
 9702              	.LASF84:
 9703 0030 5365676D 		.ascii	"Segments_Write14SegDigitDec\000"
 9703      656E7473 
 9703      5F577269 
 9703      74653134 
 9703      53656744 
 9704              	.LASF132:
 9705 004c 5365676D 		.ascii	"Segments_Com_Driver_Write\000"
 9705      656E7473 
 9705      5F436F6D 
 9705      5F447269 
 9705      7665725F 
 9706              	.LASF44:
 9707 0066 5365676D 		.ascii	"Segments_ClearDisplayAll\000"
 9707      656E7473 
 9707      5F436C65 
 9707      61724469 
 9707      73706C61 
 9708              	.LASF70:
 9709 007f 696E7075 		.ascii	"input\000"
 9709      7400
 9710              	.LASF134:
 9711 0085 7374726C 		.ascii	"strlen\000"
 9711      656E00
 9712              	.LASF25:
 9713 008c 5365676D 		.ascii	"Segments_DmaInit\000"
 9713      656E7473 
 9713      5F446D61 
 9713      496E6974 
 9713      00
 9714              	.LASF107:
 9715 009d 5365676D 		.ascii	"Segments_PutChar16Seg\000"
 9715      656E7473 
 9715      5F507574 
 9715      43686172 
 9715      31365365 
 9716              	.LASF22:
 9717 00b3 62617369 		.ascii	"basic_status\000"
 9717      635F7374 
 9717      61747573 
 9717      00
 9718              	.LASF113:
 9719 00c0 5365676D 		.ascii	"Segments_brightnessReg\000"
 9719      656E7473 
 9719      5F627269 
 9719      6768746E 
 9719      65737352 
 9720              	.LASF87:
 9721 00d7 5365676D 		.ascii	"Segments_EncodeChar14Seg\000"
ARM GAS  C:\Users\Esteban\AppData\Local\Temp\ccHxlO6N.s 			page 240


 9721      656E7473 
 9721      5F456E63 
 9721      6F646543 
 9721      68617231 
 9722              	.LASF35:
 9723 00f0 5365676D 		.ascii	"Segments_SetRC\000"
 9723      656E7473 
 9723      5F536574 
 9723      524300
 9724              	.LASF42:
 9725 00ff 726F7753 		.ascii	"rowSegSelect\000"
 9725      65675365 
 9725      6C656374 
 9725      00
 9726              	.LASF62:
 9727 010c 73656C65 		.ascii	"selectVal\000"
 9727      63745661 
 9727      6C00
 9728              	.LASF8:
 9729 0116 756E7369 		.ascii	"unsigned int\000"
 9729      676E6564 
 9729      20696E74 
 9729      00
 9730              	.LASF125:
 9731 0123 4379446D 		.ascii	"CyDmaTdSetConfiguration\000"
 9731      61546453 
 9731      6574436F 
 9731      6E666967 
 9731      75726174 
 9732              	.LASF37:
 9733 013b 726F7753 		.ascii	"rowSeg\000"
 9733      656700
 9734              	.LASF122:
 9735 0142 5365676D 		.ascii	"Segments_segLBuffer\000"
 9735      656E7473 
 9735      5F736567 
 9735      4C427566 
 9735      66657200 
 9736              	.LASF17:
 9737 0156 72656738 		.ascii	"reg8\000"
 9737      00
 9738              	.LASF71:
 9739 015b 5365676D 		.ascii	"Segments_7SegASCII\000"
 9739      656E7473 
 9739      5F375365 
 9739      67415343 
 9739      494900
 9740              	.LASF127:
 9741 016e 5365676D 		.ascii	"Segments_DMA_Seg_DmaInitialize\000"
 9741      656E7473 
 9741      5F444D41 
 9741      5F536567 
 9741      5F446D61 
 9742              	.LASF128:
 9743 018d 5365676D 		.ascii	"Segments_DMA_BC_DmaInitialize\000"
 9743      656E7473 
 9743      5F444D41 
ARM GAS  C:\Users\Esteban\AppData\Local\Temp\ccHxlO6N.s 			page 241


 9743      5F42435F 
 9743      446D6149 
 9744              	.LASF56:
 9745 01ab 76616C4E 		.ascii	"valNum\000"
 9745      756D00
 9746              	.LASF105:
 9747 01b2 5365676D 		.ascii	"Segments_Write16SegNumberDec\000"
 9747      656E7473 
 9747      5F577269 
 9747      74653136 
 9747      5365674E 
 9748              	.LASF74:
 9749 01cf 5365676D 		.ascii	"Segments_Write7SegNumberDec\000"
 9749      656E7473 
 9749      5F577269 
 9749      74653753 
 9749      65674E75 
 9750              	.LASF131:
 9751 01eb 4379446D 		.ascii	"CyDmaChDisable\000"
 9751      61436844 
 9751      69736162 
 9751      6C6500
 9752              	.LASF123:
 9753 01fa 5365676D 		.ascii	"Segments_DMA_Com_DmaInitialize\000"
 9753      656E7473 
 9753      5F444D41 
 9753      5F436F6D 
 9753      5F446D61 
 9754              	.LASF40:
 9755 0219 5365676D 		.ascii	"Segments_ToggleRC\000"
 9755      656E7473 
 9755      5F546F67 
 9755      676C6552 
 9755      4300
 9756              	.LASF120:
 9757 022b 5365676D 		.ascii	"Segments_initVar\000"
 9757      656E7473 
 9757      5F696E69 
 9757      74566172 
 9757      00
 9758              	.LASF43:
 9759 023c 5365676D 		.ascii	"Segments_ClearDisplay\000"
 9759      656E7473 
 9759      5F436C65 
 9759      61724469 
 9759      73706C61 
 9760              	.LASF13:
 9761 0252 666C6F61 		.ascii	"float\000"
 9761      7400
 9762              	.LASF92:
 9763 0258 5365676D 		.ascii	"Segments_Write14SegNumberDec\000"
 9763      656E7473 
 9763      5F577269 
 9763      74653134 
 9763      5365674E 
 9764              	.LASF12:
 9765 0275 696E7433 		.ascii	"int32\000"
ARM GAS  C:\Users\Esteban\AppData\Local\Temp\ccHxlO6N.s 			page 242


 9765      3200
 9766              	.LASF7:
 9767 027b 6C6F6E67 		.ascii	"long long unsigned int\000"
 9767      206C6F6E 
 9767      6720756E 
 9767      7369676E 
 9767      65642069 
 9768              	.LASF50:
 9769 0292 5365676D 		.ascii	"Segments_GetRC\000"
 9769      656E7473 
 9769      5F476574 
 9769      524300
 9770              	.LASF48:
 9771 02a1 5365676D 		.ascii	"Segments_Stop\000"
 9771      656E7473 
 9771      5F53746F 
 9771      7000
 9772              	.LASF59:
 9773 02af 64696769 		.ascii	"digits\000"
 9773      747300
 9774              	.LASF101:
 9775 02b6 5365676D 		.ascii	"Segments_Write16SegDigitHex\000"
 9775      656E7473 
 9775      5F577269 
 9775      74653136 
 9775      53656744 
 9776              	.LASF32:
 9777 02d2 76616C75 		.ascii	"value\000"
 9777      6500
 9778              	.LASF102:
 9779 02d8 5365676D 		.ascii	"Segments_EncodeChar16Seg\000"
 9779      656E7473 
 9779      5F456E63 
 9779      6F646543 
 9779      68617231 
 9780              	.LASF135:
 9781 02f1 474E5520 		.ascii	"GNU C11 5.4.1 20160609 (release) [ARM/embedded-5-br"
 9781      43313120 
 9781      352E342E 
 9781      31203230 
 9781      31363036 
 9782 0324 616E6368 		.ascii	"anch revision 237715] -mcpu=cortex-m3 -mthumb -g -O"
 9782      20726576 
 9782      6973696F 
 9782      6E203233 
 9782      37373135 
 9783 0357 67202D66 		.ascii	"g -ffunction-sections -ffat-lto-objects\000"
 9783      66756E63 
 9783      74696F6E 
 9783      2D736563 
 9783      74696F6E 
 9784              	.LASF133:
 9785 037f 4379446D 		.ascii	"CyDmaChSetRequest\000"
 9785      61436853 
 9785      65745265 
 9785      71756573 
 9785      7400
ARM GAS  C:\Users\Esteban\AppData\Local\Temp\ccHxlO6N.s 			page 243


 9786              	.LASF117:
 9787 0391 5365676D 		.ascii	"Segments_dmaSegLTd\000"
 9787      656E7473 
 9787      5F646D61 
 9787      5365674C 
 9787      546400
 9788              	.LASF29:
 9789 03a4 646D6143 		.ascii	"dmaChannelList\000"
 9789      68616E6E 
 9789      656C4C69 
 9789      737400
 9790              	.LASF38:
 9791 03b3 5365676D 		.ascii	"Segments_ClearRC\000"
 9791      656E7473 
 9791      5F436C65 
 9791      61725243 
 9791      00
 9792              	.LASF94:
 9793 03c4 63757272 		.ascii	"currPosition\000"
 9793      506F7369 
 9793      74696F6E 
 9793      00
 9794              	.LASF47:
 9795 03d1 5365676D 		.ascii	"Segments_Start\000"
 9795      656E7473 
 9795      5F537461 
 9795      727400
 9796              	.LASF65:
 9797 03e0 6E756D62 		.ascii	"numberVal\000"
 9797      65725661 
 9797      6C00
 9798              	.LASF77:
 9799 03ea 63686172 		.ascii	"character\000"
 9799      61637465 
 9799      7200
 9800              	.LASF51:
 9801 03f4 5365676D 		.ascii	"Segments_GetDecimalPoint\000"
 9801      656E7473 
 9801      5F476574 
 9801      44656369 
 9801      6D616C50 
 9802              	.LASF41:
 9803 040d 76616C75 		.ascii	"valueRC\000"
 9803      65524300 
 9804              	.LASF104:
 9805 0415 5365676D 		.ascii	"Segments_16SegASCIIHigh\000"
 9805      656E7473 
 9805      5F313653 
 9805      65674153 
 9805      43494948 
 9806              	.LASF124:
 9807 042d 4379446D 		.ascii	"CyDmaTdAllocate\000"
 9807      61546441 
 9807      6C6C6F63 
 9807      61746500 
 9808              	.LASF73:
 9809 043d 76616C48 		.ascii	"valHigh\000"
ARM GAS  C:\Users\Esteban\AppData\Local\Temp\ccHxlO6N.s 			page 244


 9809      69676800 
 9810              	.LASF30:
 9811 0445 5365676D 		.ascii	"Segments_Enable\000"
 9811      656E7473 
 9811      5F456E61 
 9811      626C6500 
 9812              	.LASF89:
 9813 0455 5365676D 		.ascii	"Segments_14SegASCIIHigh\000"
 9813      656E7473 
 9813      5F313453 
 9813      65674153 
 9813      43494948 
 9814              	.LASF108:
 9815 046d 5365676D 		.ascii	"Segments_SetBrightness\000"
 9815      656E7473 
 9815      5F536574 
 9815      42726967 
 9815      68746E65 
 9816              	.LASF119:
 9817 0484 5365676D 		.ascii	"Segments_dmaBCTd\000"
 9817      656E7473 
 9817      5F646D61 
 9817      42435464 
 9817      00
 9818              	.LASF81:
 9819 0495 5365676D 		.ascii	"Segments_14SegDigitsLow\000"
 9819      656E7473 
 9819      5F313453 
 9819      65674469 
 9819      67697473 
 9820              	.LASF90:
 9821 04ad 76616C48 		.ascii	"valHexLow\000"
 9821      65784C6F 
 9821      7700
 9822              	.LASF16:
 9823 04b7 63686172 		.ascii	"char\000"
 9823      00
 9824              	.LASF121:
 9825 04bc 5365676D 		.ascii	"Segments_enableVar\000"
 9825      656E7473 
 9825      5F656E61 
 9825      626C6556 
 9825      617200
 9826              	.LASF109:
 9827 04cf 62726967 		.ascii	"bright\000"
 9827      687400
 9828              	.LASF10:
 9829 04d6 75696E74 		.ascii	"uint16\000"
 9829      313600
 9830              	.LASF39:
 9831 04dd 726F7753 		.ascii	"rowSelect\000"
 9831      656C6563 
 9831      7400
 9832              	.LASF20:
 9833 04e7 62617369 		.ascii	"basic_cfg\000"
 9833      635F6366 
 9833      6700
ARM GAS  C:\Users\Esteban\AppData\Local\Temp\ccHxlO6N.s 			page 245


 9834              	.LASF15:
 9835 04f1 63686172 		.ascii	"char8\000"
 9835      3800
 9836              	.LASF97:
 9837 04f7 5365676D 		.ascii	"Segments_16SegDigitsLow\000"
 9837      656E7473 
 9837      5F313653 
 9837      65674469 
 9837      67697473 
 9838              	.LASF93:
 9839 050f 5365676D 		.ascii	"Segments_WriteString14Seg\000"
 9839      656E7473 
 9839      5F577269 
 9839      74655374 
 9839      72696E67 
 9840              	.LASF69:
 9841 0529 5365676D 		.ascii	"Segments_EncodeChar7Seg\000"
 9841      656E7473 
 9841      5F456E63 
 9841      6F646543 
 9841      68617237 
 9842              	.LASF26:
 9843 0541 5365676D 		.ascii	"Segments_DmaEnable\000"
 9843      656E7473 
 9843      5F446D61 
 9843      456E6162 
 9843      6C6500
 9844              	.LASF6:
 9845 0554 6C6F6E67 		.ascii	"long long int\000"
 9845      206C6F6E 
 9845      6720696E 
 9845      7400
 9846              	.LASF103:
 9847 0562 5365676D 		.ascii	"Segments_16SegASCIILow\000"
 9847      656E7473 
 9847      5F313653 
 9847      65674153 
 9847      4349494C 
 9848              	.LASF27:
 9849 0579 5365676D 		.ascii	"Segments_DmaDisable\000"
 9849      656E7473 
 9849      5F446D61 
 9849      44697361 
 9849      626C6500 
 9850              	.LASF67:
 9851 058d 64696769 		.ascii	"digit\000"
 9851      7400
 9852              	.LASF52:
 9853 0593 64656350 		.ascii	"decPointVal\000"
 9853      6F696E74 
 9853      56616C00 
 9854              	.LASF31:
 9855 059f 5365676D 		.ascii	"Segments_SetDisplayRAM\000"
 9855      656E7473 
 9855      5F536574 
 9855      44697370 
 9855      6C617952 
ARM GAS  C:\Users\Esteban\AppData\Local\Temp\ccHxlO6N.s 			page 246


 9856              	.LASF110:
 9857 05b6 5365676D 		.ascii	"Segments_tempCom\000"
 9857      656E7473 
 9857      5F74656D 
 9857      70436F6D 
 9857      00
 9858              	.LASF112:
 9859 05c7 5365676D 		.ascii	"Segments_comBuffer\000"
 9859      656E7473 
 9859      5F636F6D 
 9859      42756666 
 9859      657200
 9860              	.LASF111:
 9861 05da 5365676D 		.ascii	"Segments_GetBrightness\000"
 9861      656E7473 
 9861      5F476574 
 9861      42726967 
 9861      68746E65 
 9862              	.LASF11:
 9863 05f1 75696E74 		.ascii	"uint32\000"
 9863      333200
 9864              	.LASF68:
 9865 05f8 5365676D 		.ascii	"Segments_Write7SegDigitHex\000"
 9865      656E7473 
 9865      5F577269 
 9865      74653753 
 9865      65674469 
 9866              	.LASF106:
 9867 0613 5365676D 		.ascii	"Segments_WriteString16Seg\000"
 9867      656E7473 
 9867      5F577269 
 9867      74655374 
 9867      72696E67 
 9868              	.LASF19:
 9869 062d 6C6F6E67 		.ascii	"long double\000"
 9869      20646F75 
 9869      626C6500 
 9870              	.LASF86:
 9871 0639 5365676D 		.ascii	"Segments_Write14SegDigitHex\000"
 9871      656E7473 
 9871      5F577269 
 9871      74653134 
 9871      53656744 
 9872              	.LASF49:
 9873 0655 5365676D 		.ascii	"Segments_PutDecimalPoint\000"
 9873      656E7473 
 9873      5F507574 
 9873      44656369 
 9873      6D616C50 
 9874              	.LASF137:
 9875 066e 433A5C55 		.ascii	"C:\\Users\\Esteban\\OneDrive - Universidad de Antio"
 9875      73657273 
 9875      5C457374 
 9875      6562616E 
 9875      5C4F6E65 
 9876 069e 71756961 		.ascii	"quia\\SEMESTRE 2023-1\\DISPOSITIVOS PROGRAMABLES\\I"
 9876      5C53454D 
ARM GAS  C:\Users\Esteban\AppData\Local\Temp\ccHxlO6N.s 			page 247


 9876      45535452 
 9876      45203230 
 9876      32332D31 
 9877 06ce 4E444956 		.ascii	"NDIVIDUAL\\Practica5\\PRACTICA 5.cydsn\000"
 9877      49445541 
 9877      4C5C5072 
 9877      61637469 
 9877      6361355C 
 9878              	.LASF28:
 9879 06f3 6368616E 		.ascii	"channel\000"
 9879      6E656C00 
 9880              	.LASF61:
 9881 06fb 63686F69 		.ascii	"choiceReg\000"
 9881      63655265 
 9881      6700
 9882              	.LASF126:
 9883 0705 4379446D 		.ascii	"CyDmaTdSetAddress\000"
 9883      61546453 
 9883      65744164 
 9883      64726573 
 9883      7300
 9884              	.LASF2:
 9885 0717 73686F72 		.ascii	"short int\000"
 9885      7420696E 
 9885      7400
 9886              	.LASF100:
 9887 0721 5365676D 		.ascii	"Segments_Write16SegDigitDec\000"
 9887      656E7473 
 9887      5F577269 
 9887      74653136 
 9887      53656744 
 9888              	.LASF4:
 9889 073d 6C6F6E67 		.ascii	"long int\000"
 9889      20696E74 
 9889      00
 9890              	.LASF116:
 9891 0746 5365676D 		.ascii	"Segments_dmaSegChannel\000"
 9891      656E7473 
 9891      5F646D61 
 9891      53656743 
 9891      68616E6E 
 9892              	.LASF78:
 9893 075d 73697A65 		.ascii	"sizeLimit\000"
 9893      4C696D69 
 9893      7400
 9894              	.LASF130:
 9895 0767 4379446D 		.ascii	"CyDmaChEnable\000"
 9895      61436845 
 9895      6E61626C 
 9895      6500
 9896              	.LASF45:
 9897 0775 5365676D 		.ascii	"Segments_Init\000"
 9897      656E7473 
 9897      5F496E69 
 9897      7400
 9898              	.LASF21:
 9899 0783 61637469 		.ascii	"action\000"
ARM GAS  C:\Users\Esteban\AppData\Local\Temp\ccHxlO6N.s 			page 248


 9899      6F6E00
 9900              	.LASF36:
 9901 078a 636F6C75 		.ascii	"column\000"
 9901      6D6E00
 9902              	.LASF118:
 9903 0791 5365676D 		.ascii	"Segments_dmaBCChannel\000"
 9903      656E7473 
 9903      5F646D61 
 9903      42434368 
 9903      616E6E65 
 9904              	.LASF57:
 9905 07a7 76616C48 		.ascii	"valHex\000"
 9905      657800
 9906              	.LASF54:
 9907 07ae 6E756D62 		.ascii	"number\000"
 9907      657200
 9908              	.LASF46:
 9909 07b5 5365676D 		.ascii	"Segments_dmaInitDone\000"
 9909      656E7473 
 9909      5F646D61 
 9909      496E6974 
 9909      446F6E65 
 9910              	.LASF99:
 9911 07ca 5365676D 		.ascii	"Segments_Write16SegNumberHex\000"
 9911      656E7473 
 9911      5F577269 
 9911      74653136 
 9911      5365674E 
 9912              	.LASF18:
 9913 07e7 73697A65 		.ascii	"sizetype\000"
 9913      74797065 
 9913      00
 9914              	.LASF5:
 9915 07f0 6C6F6E67 		.ascii	"long unsigned int\000"
 9915      20756E73 
 9915      69676E65 
 9915      6420696E 
 9915      7400
 9916              	.LASF91:
 9917 0802 76616C48 		.ascii	"valHexHigh\000"
 9917      65784869 
 9917      676800
 9918              	.LASF58:
 9919 080d 5365676D 		.ascii	"Segments_Write7SegNumberHex\000"
 9919      656E7473 
 9919      5F577269 
 9919      74653753 
 9919      65674E75 
 9920              	.LASF83:
 9921 0829 5365676D 		.ascii	"Segments_Write14SegNumberHex\000"
 9921      656E7473 
 9921      5F577269 
 9921      74653134 
 9921      5365674E 
 9922              	.LASF1:
 9923 0846 756E7369 		.ascii	"unsigned char\000"
 9923      676E6564 
ARM GAS  C:\Users\Esteban\AppData\Local\Temp\ccHxlO6N.s 			page 249


 9923      20636861 
 9923      7200
 9924              	.LASF55:
 9925 0854 5365676D 		.ascii	"Segments_7SegDigits\000"
 9925      656E7473 
 9925      5F375365 
 9925      67446967 
 9925      69747300 
 9926              	.LASF80:
 9927 0868 5365676D 		.ascii	"Segments_EncodeNumber14Seg\000"
 9927      656E7473 
 9927      5F456E63 
 9927      6F64654E 
 9927      756D6265 
 9928              	.LASF88:
 9929 0883 5365676D 		.ascii	"Segments_14SegASCIILow\000"
 9929      656E7473 
 9929      5F313453 
 9929      65674153 
 9929      4349494C 
 9930              	.LASF24:
 9931 089a 646D6163 		.ascii	"dmac_ch\000"
 9931      5F636800 
 9932              	.LASF115:
 9933 08a2 5365676D 		.ascii	"Segments_dmaComTd\000"
 9933      656E7473 
 9933      5F646D61 
 9933      436F6D54 
 9933      6400
 9934              	.LASF85:
 9935 08b4 63686172 		.ascii	"charDisplay\000"
 9935      44697370 
 9935      6C617900 
 9936              	.LASF75:
 9937 08c0 6E756D62 		.ascii	"numberSign\000"
 9937      65725369 
 9937      676E00
 9938              	.LASF76:
 9939 08cb 5365676D 		.ascii	"Segments_WriteString7Seg\000"
 9939      656E7473 
 9939      5F577269 
 9939      74655374 
 9939      72696E67 
 9940              	.LASF95:
 9941 08e4 5365676D 		.ascii	"Segments_PutChar14Seg\000"
 9941      656E7473 
 9941      5F507574 
 9941      43686172 
 9941      31345365 
 9942              	.LASF64:
 9943 08fa 62756641 		.ascii	"bufArray\000"
 9943      72726179 
 9943      00
 9944              	.LASF0:
 9945 0903 7369676E 		.ascii	"signed char\000"
 9945      65642063 
 9945      68617200 
ARM GAS  C:\Users\Esteban\AppData\Local\Temp\ccHxlO6N.s 			page 250


 9946              	.LASF138:
 9947 090f 646D6163 		.ascii	"dmac_ch_struct\000"
 9947      5F63685F 
 9947      73747275 
 9947      637400
 9948              	.LASF129:
 9949 091e 4379446D 		.ascii	"CyDmaChSetInitialTd\000"
 9949      61436853 
 9949      6574496E 
 9949      69746961 
 9949      6C546400 
 9950              	.LASF3:
 9951 0932 73686F72 		.ascii	"short unsigned int\000"
 9951      7420756E 
 9951      7369676E 
 9951      65642069 
 9951      6E7400
 9952              	.LASF136:
 9953 0945 47656E65 		.ascii	"Generated_Source\\PSoC5\\Segments.c\000"
 9953      72617465 
 9953      645F536F 
 9953      75726365 
 9953      5C50536F 
 9954              	.LASF23:
 9955 0967 72657365 		.ascii	"reserved\000"
 9955      72766564 
 9955      00
 9956              	.LASF9:
 9957 0970 75696E74 		.ascii	"uint8\000"
 9957      3800
 9958              	.LASF14:
 9959 0976 646F7562 		.ascii	"double\000"
 9959      6C6500
 9960              	.LASF60:
 9961 097d 616C6967 		.ascii	"alignment\000"
 9961      6E6D656E 
 9961      7400
 9962              	.LASF53:
 9963 0987 5365676D 		.ascii	"Segments_EncodeNumber7Seg\000"
 9963      656E7473 
 9963      5F456E63 
 9963      6F64654E 
 9963      756D6265 
 9964              	.LASF82:
 9965 09a1 5365676D 		.ascii	"Segments_14SegDigitsHigh\000"
 9965      656E7473 
 9965      5F313453 
 9965      65674469 
 9965      67697473 
 9966              	.LASF63:
 9967 09ba 7A65726F 		.ascii	"zeroCount\000"
 9967      436F756E 
 9967      7400
 9968              	.LASF114:
 9969 09c4 5365676D 		.ascii	"Segments_dmaComChannel\000"
 9969      656E7473 
 9969      5F646D61 
ARM GAS  C:\Users\Esteban\AppData\Local\Temp\ccHxlO6N.s 			page 251


 9969      436F6D43 
 9969      68616E6E 
 9970              	.LASF66:
 9971 09db 5365676D 		.ascii	"Segments_Write7SegDigitDec\000"
 9971      656E7473 
 9971      5F577269 
 9971      74653753 
 9971      65674469 
 9972              	.LASF72:
 9973 09f6 76616C4C 		.ascii	"valLow\000"
 9973      6F7700
 9974              	.LASF33:
 9975 09fd 706F7369 		.ascii	"position\000"
 9975      74696F6E 
 9975      00
 9976              	.LASF98:
 9977 0a06 5365676D 		.ascii	"Segments_16SegDigitsHigh\000"
 9977      656E7473 
 9977      5F313653 
 9977      65674469 
 9977      67697473 
 9978              	.LASF34:
 9979 0a1f 72656C50 		.ascii	"relPosition\000"
 9979      6F736974 
 9979      696F6E00 
 9980              		.ident	"GCC: (GNU Tools for ARM Embedded Processors) 5.4.1 20160609 (release) [ARM/embedded-5-bran
