ARM GAS  C:\Users\Esteban\AppData\Local\Temp\ccHxlO6N.s 			page 1


   1              		.syntax unified
   2              		.cpu cortex-m3
   3              		.fpu softvfp
   4              		.eabi_attribute 20, 1
   5              		.eabi_attribute 21, 1
   6              		.eabi_attribute 23, 3
   7              		.eabi_attribute 24, 1
   8              		.eabi_attribute 25, 1
   9              		.eabi_attribute 26, 1
  10              		.eabi_attribute 30, 1
  11              		.eabi_attribute 34, 1
  12              		.eabi_attribute 18, 4
  13              		.thumb
  14              		.syntax unified
  15              		.file	"Segments.c"
  16              		.text
  17              	.Ltext0:
  18              		.cfi_sections	.debug_frame
  19              		.section	.text.Segments_DmaInit,"ax",%progbits
  20              		.align	2
  21              		.thumb
  22              		.thumb_func
  23              		.type	Segments_DmaInit, %function
  24              	Segments_DmaInit:
  25              	.LFB0:
  26              		.file 1 "Generated_Source\\PSoC5\\Segments.c"
   1:Generated_Source\PSoC5/Segments.c **** /*******************************************************************************
   2:Generated_Source\PSoC5/Segments.c **** * File Name: Segments.c
   3:Generated_Source\PSoC5/Segments.c **** * Version 1.10
   4:Generated_Source\PSoC5/Segments.c **** *
   5:Generated_Source\PSoC5/Segments.c **** * Description:
   6:Generated_Source\PSoC5/Segments.c **** *  This file contains the setup, control and status commands for the 
   7:Generated_Source\PSoC5/Segments.c **** *  LED Driver component.
   8:Generated_Source\PSoC5/Segments.c **** *
   9:Generated_Source\PSoC5/Segments.c **** * Note:
  10:Generated_Source\PSoC5/Segments.c **** *  None
  11:Generated_Source\PSoC5/Segments.c **** *
  12:Generated_Source\PSoC5/Segments.c **** ********************************************************************************
  13:Generated_Source\PSoC5/Segments.c **** * Copyright 2013-2015, Cypress Semiconductor Corporation.  All rights reserved.
  14:Generated_Source\PSoC5/Segments.c **** * You may use this file only in accordance with the license, terms, conditions,
  15:Generated_Source\PSoC5/Segments.c **** * disclaimers, and limitations in the end user license agreement accompanying
  16:Generated_Source\PSoC5/Segments.c **** * the software package with which this file was provided.
  17:Generated_Source\PSoC5/Segments.c **** ********************************************************************************/
  18:Generated_Source\PSoC5/Segments.c **** 
  19:Generated_Source\PSoC5/Segments.c **** #include "Segments.h"
  20:Generated_Source\PSoC5/Segments.c **** #include <Segments_DMA_Com_dma.h>
  21:Generated_Source\PSoC5/Segments.c **** #include <Segments_DMA_Seg_dma.h>
  22:Generated_Source\PSoC5/Segments.c **** #if (Segments_BRIGHTNESS_EN == Segments_ENABLED)
  23:Generated_Source\PSoC5/Segments.c ****     #include <Segments_DMA_BC_dma.h>
  24:Generated_Source\PSoC5/Segments.c **** #endif /* (Segments_BRIGHTNESS_EN == Segments_ENABLED) */
  25:Generated_Source\PSoC5/Segments.c **** 
  26:Generated_Source\PSoC5/Segments.c **** /* Function prototypes */
  27:Generated_Source\PSoC5/Segments.c **** static void Segments_DmaInit(void) ;
  28:Generated_Source\PSoC5/Segments.c **** static void Segments_DmaEnable(void) ;
  29:Generated_Source\PSoC5/Segments.c **** static void Segments_DmaDisable(void) ;
  30:Generated_Source\PSoC5/Segments.c **** 
  31:Generated_Source\PSoC5/Segments.c **** /* Used to hold the common line output sequence */
ARM GAS  C:\Users\Esteban\AppData\Local\Temp\ccHxlO6N.s 			page 2


  32:Generated_Source\PSoC5/Segments.c **** #if(Segments_COM_DRIVE == Segments_HIGH)
  33:Generated_Source\PSoC5/Segments.c ****     static uint8 Segments_comBuffer[16] = {0x00u, 0x01u, 0x00u, 0x02u, 0x00u, 0x04u, 0x00u, 0x08u,
  34:Generated_Source\PSoC5/Segments.c ****                                                     0x00u, 0x10u, 0x00u, 0x20u, 0x00u, 0x40u, 0x00u
  35:Generated_Source\PSoC5/Segments.c **** #else
  36:Generated_Source\PSoC5/Segments.c ****     static uint8 Segments_comBuffer[16] = {0xFFu, 0xFEu, 0xFFu, 0xFDu, 0xFFu, 0xFBu, 0xFFu, 0xF7u,
  37:Generated_Source\PSoC5/Segments.c ****                                                     0xFFu, 0xEFu, 0xFFu, 0xDFu, 0xFFu, 0xBFu, 0xFFu
  38:Generated_Source\PSoC5/Segments.c **** #endif /* (Segments_COM_DRIVE == Segments_HIGH) */
  39:Generated_Source\PSoC5/Segments.c **** 
  40:Generated_Source\PSoC5/Segments.c **** /* Buffers used to hold the display(segment) values to be transferred to the control registers */
  41:Generated_Source\PSoC5/Segments.c **** uint8 Segments_segLBuffer[Segments_NUM_COM];
  42:Generated_Source\PSoC5/Segments.c **** #if (Segments_NUM_SEG > 8u) 
  43:Generated_Source\PSoC5/Segments.c ****     uint8 Segments_segMBuffer[Segments_NUM_COM];
  44:Generated_Source\PSoC5/Segments.c **** #endif /* (Segments_NUM_SEG > 8u) */
  45:Generated_Source\PSoC5/Segments.c **** #if (Segments_NUM_SEG > 16u) 
  46:Generated_Source\PSoC5/Segments.c ****     uint8 Segments_segHBuffer[Segments_NUM_COM];
  47:Generated_Source\PSoC5/Segments.c **** #endif /* (Segments_NUM_SEG > 16u) */
  48:Generated_Source\PSoC5/Segments.c **** 
  49:Generated_Source\PSoC5/Segments.c **** #if (Segments_BRIGHTNESS_EN == Segments_ENABLED)
  50:Generated_Source\PSoC5/Segments.c ****     /* The brightness register used to hold the brightness levels for each common */
  51:Generated_Source\PSoC5/Segments.c ****     static uint8 Segments_brightnessReg[Segments_NUM_COM];
  52:Generated_Source\PSoC5/Segments.c **** #endif /* (Segments_BRIGHTNESS_EN == Segments_ENABLED) */
  53:Generated_Source\PSoC5/Segments.c **** 
  54:Generated_Source\PSoC5/Segments.c **** /* DMA channel and TD declaractions */
  55:Generated_Source\PSoC5/Segments.c **** static uint8 Segments_dmaComChannel;
  56:Generated_Source\PSoC5/Segments.c **** static uint8 Segments_dmaComTd[Segments_TWO_NUM_COM];
  57:Generated_Source\PSoC5/Segments.c **** 
  58:Generated_Source\PSoC5/Segments.c **** static uint8 Segments_dmaSegChannel;
  59:Generated_Source\PSoC5/Segments.c **** static uint8 Segments_dmaSegLTd[Segments_NUM_COM];
  60:Generated_Source\PSoC5/Segments.c **** 
  61:Generated_Source\PSoC5/Segments.c **** #if (Segments_BRIGHTNESS_EN == Segments_ENABLED)
  62:Generated_Source\PSoC5/Segments.c ****     static uint8 Segments_dmaBCChannel;
  63:Generated_Source\PSoC5/Segments.c ****     static uint8 Segments_dmaBCTd;
  64:Generated_Source\PSoC5/Segments.c **** #endif /* (Segments_BRIGHTNESS_EN == Segments_ENABLED) */
  65:Generated_Source\PSoC5/Segments.c **** 
  66:Generated_Source\PSoC5/Segments.c **** uint8 Segments_initVar = 0u;
  67:Generated_Source\PSoC5/Segments.c **** uint8 Segments_enableVar = 0u;
  68:Generated_Source\PSoC5/Segments.c **** 
  69:Generated_Source\PSoC5/Segments.c **** 
  70:Generated_Source\PSoC5/Segments.c **** /*******************************************************************************
  71:Generated_Source\PSoC5/Segments.c **** * Function Name: Segments_DmaInit
  72:Generated_Source\PSoC5/Segments.c **** ********************************************************************************
  73:Generated_Source\PSoC5/Segments.c **** *
  74:Generated_Source\PSoC5/Segments.c **** * Summary: 
  75:Generated_Source\PSoC5/Segments.c **** *  Initializes the DMAs for transferring from the buffer register arrays to 
  76:Generated_Source\PSoC5/Segments.c **** *  the control registers.
  77:Generated_Source\PSoC5/Segments.c **** *
  78:Generated_Source\PSoC5/Segments.c **** * Parameters:
  79:Generated_Source\PSoC5/Segments.c **** *  None
  80:Generated_Source\PSoC5/Segments.c **** *
  81:Generated_Source\PSoC5/Segments.c **** * Return:
  82:Generated_Source\PSoC5/Segments.c **** *  None
  83:Generated_Source\PSoC5/Segments.c **** *
  84:Generated_Source\PSoC5/Segments.c **** * Side Effects: 
  85:Generated_Source\PSoC5/Segments.c **** *  None
  86:Generated_Source\PSoC5/Segments.c **** *
  87:Generated_Source\PSoC5/Segments.c **** *******************************************************************************/
  88:Generated_Source\PSoC5/Segments.c **** static void Segments_DmaInit(void) 
ARM GAS  C:\Users\Esteban\AppData\Local\Temp\ccHxlO6N.s 			page 3


  89:Generated_Source\PSoC5/Segments.c **** {
  27              		.loc 1 89 0
  28              		.cfi_startproc
  29              		@ args = 0, pretend = 0, frame = 0
  30              		@ frame_needed = 0, uses_anonymous_args = 0
  31 0000 10B5     		push	{r4, lr}
  32              		.cfi_def_cfa_offset 8
  33              		.cfi_offset 4, -8
  34              		.cfi_offset 14, -4
  90:Generated_Source\PSoC5/Segments.c ****     uint8  i;
  91:Generated_Source\PSoC5/Segments.c ****     
  92:Generated_Source\PSoC5/Segments.c ****     /* Segment TDs for Seg_Driver_M and Seg_Driver_H control registers */
  93:Generated_Source\PSoC5/Segments.c ****     #if (Segments_NUM_SEG > 8u)
  94:Generated_Source\PSoC5/Segments.c ****         static uint8 Segments_dmaSegMTd[Segments_NUM_COM];
  95:Generated_Source\PSoC5/Segments.c ****     #endif /* (Segments_NUM_SEG > 8u) */
  96:Generated_Source\PSoC5/Segments.c ****     #if (Segments_NUM_SEG > 16u)
  97:Generated_Source\PSoC5/Segments.c ****         static uint8 Segments_dmaSegHTd[Segments_NUM_COM];
  98:Generated_Source\PSoC5/Segments.c ****     #endif /* (Segments_NUM_SEG > 16u) */
  99:Generated_Source\PSoC5/Segments.c **** 
 100:Generated_Source\PSoC5/Segments.c ****     /************************* DMA configuration for the Commons *************************/
 101:Generated_Source\PSoC5/Segments.c ****     /* Common DMA channel */
 102:Generated_Source\PSoC5/Segments.c ****     Segments_dmaComChannel = Segments_DMA_Com_DmaInitialize(1u, 1u, 
  35              		.loc 1 102 0
  36 0002 4FF48043 		mov	r3, #16384
  37 0006 41F6FF72 		movw	r2, #8191
  38 000a 0121     		movs	r1, #1
  39 000c 0846     		mov	r0, r1
  40 000e FFF7FEFF 		bl	Segments_DMA_Com_DmaInitialize
  41              	.LVL0:
  42 0012 504B     		ldr	r3, .L22
  43 0014 1870     		strb	r0, [r3]
 103:Generated_Source\PSoC5/Segments.c ****                                         HI16(Segments_SRAM_BASE), HI16(Segments_CONTROL_REG_BASE));
 104:Generated_Source\PSoC5/Segments.c **** 
 105:Generated_Source\PSoC5/Segments.c ****     /* Check if the channel is valid */                                                            
 106:Generated_Source\PSoC5/Segments.c ****     if(Segments_dmaComChannel != DMA_INVALID_CHANNEL)
  44              		.loc 1 106 0
  45 0016 FF28     		cmp	r0, #255
  46 0018 08D1     		bne	.L19
  47 001a 3FE0     		b	.L3
  48              	.LVL1:
  49              	.L4:
 107:Generated_Source\PSoC5/Segments.c ****     {
 108:Generated_Source\PSoC5/Segments.c ****         /* Allocate the common TDs */
 109:Generated_Source\PSoC5/Segments.c ****         for(i = 0u; i < Segments_TWO_NUM_COM; i++)
 110:Generated_Source\PSoC5/Segments.c ****         {
 111:Generated_Source\PSoC5/Segments.c ****             Segments_dmaComTd[i] = CyDmaTdAllocate();
  50              		.loc 1 111 0 discriminator 3
  51 001c FFF7FEFF 		bl	CyDmaTdAllocate
  52              	.LVL2:
  53 0020 4C4B     		ldr	r3, .L22
  54 0022 2344     		add	r3, r3, r4
  55 0024 1871     		strb	r0, [r3, #4]
 109:Generated_Source\PSoC5/Segments.c ****         {
  56              		.loc 1 109 0 discriminator 3
  57 0026 0134     		adds	r4, r4, #1
  58              	.LVL3:
  59 0028 E4B2     		uxtb	r4, r4
ARM GAS  C:\Users\Esteban\AppData\Local\Temp\ccHxlO6N.s 			page 4


  60              	.LVL4:
  61 002a 00E0     		b	.L2
  62              	.LVL5:
  63              	.L19:
  64 002c 0024     		movs	r4, #0
  65              	.L2:
  66              	.LVL6:
 109:Generated_Source\PSoC5/Segments.c ****         {
  67              		.loc 1 109 0 is_stmt 0 discriminator 1
  68 002e 072C     		cmp	r4, #7
  69 0030 F4D9     		bls	.L4
  70 0032 0024     		movs	r4, #0
  71              	.LVL7:
  72 0034 19E0     		b	.L5
  73              	.LVL8:
  74              	.L8:
 112:Generated_Source\PSoC5/Segments.c ****         }
 113:Generated_Source\PSoC5/Segments.c ****         
 114:Generated_Source\PSoC5/Segments.c ****         /* Set configuration for the Common TDs */
 115:Generated_Source\PSoC5/Segments.c ****         for(i = 0u;  i < (Segments_TWO_NUM_COM - 1u); i++)
 116:Generated_Source\PSoC5/Segments.c ****         {
 117:Generated_Source\PSoC5/Segments.c ****             /* Separate configurations for odd and even TDs */
 118:Generated_Source\PSoC5/Segments.c ****             if((uint8)(i & 1u) == 0u)
  75              		.loc 1 118 0 is_stmt 1
  76 0036 14F0010F 		tst	r4, #1
  77 003a 0AD1     		bne	.L6
 119:Generated_Source\PSoC5/Segments.c ****             {
 120:Generated_Source\PSoC5/Segments.c ****                 /* Set configuration for the Common TDs */
 121:Generated_Source\PSoC5/Segments.c ****                 (void) CyDmaTdSetConfiguration(Segments_dmaComTd[i], 1u, 
  78              		.loc 1 121 0
  79 003c 454A     		ldr	r2, .L22
  80 003e 1019     		adds	r0, r2, r4
 122:Generated_Source\PSoC5/Segments.c ****                                                 Segments_dmaComTd[i+1u],
  81              		.loc 1 122 0
  82 0040 631C     		adds	r3, r4, #1
 121:Generated_Source\PSoC5/Segments.c ****                                                 Segments_dmaComTd[i+1u],
  83              		.loc 1 121 0
  84 0042 1A44     		add	r2, r2, r3
  85 0044 0123     		movs	r3, #1
  86 0046 1279     		ldrb	r2, [r2, #4]	@ zero_extendqisi2
  87 0048 1946     		mov	r1, r3
  88 004a 0079     		ldrb	r0, [r0, #4]	@ zero_extendqisi2
  89 004c FFF7FEFF 		bl	CyDmaTdSetConfiguration
  90              	.LVL9:
  91 0050 09E0     		b	.L7
  92              	.L6:
 123:Generated_Source\PSoC5/Segments.c ****                                                 TD_INC_SRC_ADR | Segments_DMA_Com__TD_TERMOUT_EN);
 124:Generated_Source\PSoC5/Segments.c ****             }
 125:Generated_Source\PSoC5/Segments.c ****             else
 126:Generated_Source\PSoC5/Segments.c ****             {
 127:Generated_Source\PSoC5/Segments.c ****                 /* Set configuration for the Common TDs */
 128:Generated_Source\PSoC5/Segments.c ****                 (void) CyDmaTdSetConfiguration(Segments_dmaComTd[i], 1u,
  93              		.loc 1 128 0
  94 0052 404A     		ldr	r2, .L22
  95 0054 1019     		adds	r0, r2, r4
 129:Generated_Source\PSoC5/Segments.c ****                                                 Segments_dmaComTd[i+1u], TD_INC_SRC_ADR);
  96              		.loc 1 129 0
ARM GAS  C:\Users\Esteban\AppData\Local\Temp\ccHxlO6N.s 			page 5


  97 0056 631C     		adds	r3, r4, #1
 128:Generated_Source\PSoC5/Segments.c ****                                                 Segments_dmaComTd[i+1u], TD_INC_SRC_ADR);
  98              		.loc 1 128 0
  99 0058 1A44     		add	r2, r2, r3
 100 005a 0123     		movs	r3, #1
 101 005c 1279     		ldrb	r2, [r2, #4]	@ zero_extendqisi2
 102 005e 1946     		mov	r1, r3
 103 0060 0079     		ldrb	r0, [r0, #4]	@ zero_extendqisi2
 104 0062 FFF7FEFF 		bl	CyDmaTdSetConfiguration
 105              	.LVL10:
 106              	.L7:
 115:Generated_Source\PSoC5/Segments.c ****         {
 107              		.loc 1 115 0 discriminator 2
 108 0066 0134     		adds	r4, r4, #1
 109              	.LVL11:
 110 0068 E4B2     		uxtb	r4, r4
 111              	.LVL12:
 112              	.L5:
 115:Generated_Source\PSoC5/Segments.c ****         {
 113              		.loc 1 115 0 is_stmt 0 discriminator 1
 114 006a 062C     		cmp	r4, #6
 115 006c E3D9     		bls	.L8
 130:Generated_Source\PSoC5/Segments.c ****             }
 131:Generated_Source\PSoC5/Segments.c ****         }
 132:Generated_Source\PSoC5/Segments.c ****         /* Set the wraparound Common TD configuration */
 133:Generated_Source\PSoC5/Segments.c ****         (void) CyDmaTdSetConfiguration(Segments_dmaComTd[Segments_TWO_NUM_COM - 1u], 
 116              		.loc 1 133 0 is_stmt 1
 117 006e 3948     		ldr	r0, .L22
 118 0070 0123     		movs	r3, #1
 119 0072 0279     		ldrb	r2, [r0, #4]	@ zero_extendqisi2
 120 0074 1946     		mov	r1, r3
 121 0076 C07A     		ldrb	r0, [r0, #11]	@ zero_extendqisi2
 122 0078 FFF7FEFF 		bl	CyDmaTdSetConfiguration
 123              	.LVL13:
 134:Generated_Source\PSoC5/Segments.c ****                                         1u, Segments_dmaComTd[0u], TD_INC_SRC_ADR);
 135:Generated_Source\PSoC5/Segments.c ****         
 136:Generated_Source\PSoC5/Segments.c ****         /* Set the lower addresses of the common TDs */
 137:Generated_Source\PSoC5/Segments.c ****         for(i = 0u; i < Segments_TWO_NUM_COM; i++)
 124              		.loc 1 137 0
 125 007c 0024     		movs	r4, #0
 126 007e 0BE0     		b	.L9
 127              	.LVL14:
 128              	.L10:
 138:Generated_Source\PSoC5/Segments.c ****         {
 139:Generated_Source\PSoC5/Segments.c ****             (void) CyDmaTdSetAddress(Segments_dmaComTd[i],
 129              		.loc 1 139 0 discriminator 3
 130 0080 344B     		ldr	r3, .L22
 131 0082 2344     		add	r3, r3, r4
 140:Generated_Source\PSoC5/Segments.c ****                                         LO16((uint32) &Segments_comBuffer[i]),
 132              		.loc 1 140 0 discriminator 3
 133 0084 3449     		ldr	r1, .L22+4
 134 0086 2144     		add	r1, r1, r4
 139:Generated_Source\PSoC5/Segments.c ****                                         LO16((uint32) &Segments_comBuffer[i]),
 135              		.loc 1 139 0 discriminator 3
 136 0088 46F27552 		movw	r2, #25973
 137 008c 89B2     		uxth	r1, r1
 138 008e 1879     		ldrb	r0, [r3, #4]	@ zero_extendqisi2
ARM GAS  C:\Users\Esteban\AppData\Local\Temp\ccHxlO6N.s 			page 6


 139 0090 FFF7FEFF 		bl	CyDmaTdSetAddress
 140              	.LVL15:
 137:Generated_Source\PSoC5/Segments.c ****         {
 141              		.loc 1 137 0 discriminator 3
 142 0094 0134     		adds	r4, r4, #1
 143              	.LVL16:
 144 0096 E4B2     		uxtb	r4, r4
 145              	.LVL17:
 146              	.L9:
 137:Generated_Source\PSoC5/Segments.c ****         {
 147              		.loc 1 137 0 is_stmt 0 discriminator 1
 148 0098 072C     		cmp	r4, #7
 149 009a F1D9     		bls	.L10
 150              	.LVL18:
 151              	.L3:
 141:Generated_Source\PSoC5/Segments.c ****                                         LO16((uint32) Segments_COM_CONTROL_PTR));
 142:Generated_Source\PSoC5/Segments.c ****         }    
 143:Generated_Source\PSoC5/Segments.c ****     }
 144:Generated_Source\PSoC5/Segments.c ****     
 145:Generated_Source\PSoC5/Segments.c ****     
 146:Generated_Source\PSoC5/Segments.c ****     /*********************** DMA configuration for the Segments ***********************/
 147:Generated_Source\PSoC5/Segments.c ****     /* Get the DMA channels for the segments */
 148:Generated_Source\PSoC5/Segments.c ****     Segments_dmaSegChannel = Segments_DMA_Seg_DmaInitialize(1u, 1u, 
 152              		.loc 1 148 0 is_stmt 1
 153 009c 4FF48043 		mov	r3, #16384
 154 00a0 41F6FF72 		movw	r2, #8191
 155 00a4 0121     		movs	r1, #1
 156 00a6 0846     		mov	r0, r1
 157 00a8 FFF7FEFF 		bl	Segments_DMA_Seg_DmaInitialize
 158              	.LVL19:
 159 00ac 294B     		ldr	r3, .L22
 160 00ae 1873     		strb	r0, [r3, #12]
 149:Generated_Source\PSoC5/Segments.c ****                                         HI16(Segments_SRAM_BASE), HI16(Segments_CONTROL_REG_BASE));
 150:Generated_Source\PSoC5/Segments.c ****     
 151:Generated_Source\PSoC5/Segments.c ****     /* Check if the segment channel is valid */
 152:Generated_Source\PSoC5/Segments.c ****     if(Segments_dmaSegChannel != DMA_INVALID_CHANNEL)
 161              		.loc 1 152 0
 162 00b0 FF28     		cmp	r0, #255
 163 00b2 08D1     		bne	.L20
 164 00b4 30E0     		b	.L12
 165              	.LVL20:
 166              	.L13:
 153:Generated_Source\PSoC5/Segments.c ****     {
 154:Generated_Source\PSoC5/Segments.c ****         /* Allocate separate Tds for segments to implement the chain */
 155:Generated_Source\PSoC5/Segments.c ****         for(i = 0u; i < Segments_NUM_COM; i++)
 156:Generated_Source\PSoC5/Segments.c ****         {
 157:Generated_Source\PSoC5/Segments.c ****             Segments_dmaSegLTd[i] = CyDmaTdAllocate();
 167              		.loc 1 157 0 discriminator 3
 168 00b6 FFF7FEFF 		bl	CyDmaTdAllocate
 169              	.LVL21:
 170 00ba 264B     		ldr	r3, .L22
 171 00bc 2344     		add	r3, r3, r4
 172 00be 1874     		strb	r0, [r3, #16]
 155:Generated_Source\PSoC5/Segments.c ****         {
 173              		.loc 1 155 0 discriminator 3
 174 00c0 0134     		adds	r4, r4, #1
 175              	.LVL22:
ARM GAS  C:\Users\Esteban\AppData\Local\Temp\ccHxlO6N.s 			page 7


 176 00c2 E4B2     		uxtb	r4, r4
 177              	.LVL23:
 178 00c4 00E0     		b	.L11
 179              	.LVL24:
 180              	.L20:
 181 00c6 0024     		movs	r4, #0
 182              	.L11:
 183              	.LVL25:
 155:Generated_Source\PSoC5/Segments.c ****         {
 184              		.loc 1 155 0 is_stmt 0 discriminator 1
 185 00c8 032C     		cmp	r4, #3
 186 00ca F4D9     		bls	.L13
 187 00cc 0023     		movs	r3, #0
 188 00ce 0AE0     		b	.L14
 189              	.LVL26:
 190              	.L15:
 158:Generated_Source\PSoC5/Segments.c ****             #if (Segments_NUM_SEG > 8u)
 159:Generated_Source\PSoC5/Segments.c ****                 Segments_dmaSegMTd[i] = CyDmaTdAllocate();
 160:Generated_Source\PSoC5/Segments.c ****             #endif /* (Segments_NUM_SEG > 8u) */
 161:Generated_Source\PSoC5/Segments.c ****             #if (Segments_NUM_SEG > 16u)
 162:Generated_Source\PSoC5/Segments.c ****                 Segments_dmaSegHTd[i] = CyDmaTdAllocate();
 163:Generated_Source\PSoC5/Segments.c ****             #endif /* (Segments_NUM_SEG > 16u) */
 164:Generated_Source\PSoC5/Segments.c ****         }
 165:Generated_Source\PSoC5/Segments.c ****         
 166:Generated_Source\PSoC5/Segments.c ****         /* Set the configuration for the Segment TDs */
 167:Generated_Source\PSoC5/Segments.c ****         for(i = 0u; i < (Segments_NUM_COM - 1u); i++)
 168:Generated_Source\PSoC5/Segments.c ****         {
 169:Generated_Source\PSoC5/Segments.c ****             #if (Segments_NUM_SEG <= 8u)
 170:Generated_Source\PSoC5/Segments.c ****                 (void) CyDmaTdSetConfiguration(Segments_dmaSegLTd[i], 1u, Segments_dmaSegLTd[i+1u],
 191              		.loc 1 170 0 is_stmt 1 discriminator 3
 192 00d0 204A     		ldr	r2, .L22
 193 00d2 D018     		adds	r0, r2, r3
 194 00d4 5C1C     		adds	r4, r3, #1
 195 00d6 2244     		add	r2, r2, r4
 196 00d8 0523     		movs	r3, #5
 197              	.LVL27:
 198 00da 127C     		ldrb	r2, [r2, #16]	@ zero_extendqisi2
 199 00dc 0121     		movs	r1, #1
 200 00de 007C     		ldrb	r0, [r0, #16]	@ zero_extendqisi2
 201 00e0 FFF7FEFF 		bl	CyDmaTdSetConfiguration
 202              	.LVL28:
 167:Generated_Source\PSoC5/Segments.c ****         {
 203              		.loc 1 167 0 discriminator 3
 204 00e4 E3B2     		uxtb	r3, r4
 205              	.LVL29:
 206              	.L14:
 167:Generated_Source\PSoC5/Segments.c ****         {
 207              		.loc 1 167 0 is_stmt 0 discriminator 1
 208 00e6 022B     		cmp	r3, #2
 209 00e8 F2D9     		bls	.L15
 171:Generated_Source\PSoC5/Segments.c ****                                                 TD_INC_SRC_ADR | Segments_DMA_Seg__TD_TERMOUT_EN);
 172:Generated_Source\PSoC5/Segments.c ****             #else    
 173:Generated_Source\PSoC5/Segments.c ****                 (void) CyDmaTdSetConfiguration(Segments_dmaSegLTd[i], 1u, Segments_dmaSegMTd[i],
 174:Generated_Source\PSoC5/Segments.c ****                                                 TD_INC_SRC_ADR | TD_AUTO_EXEC_NEXT);
 175:Generated_Source\PSoC5/Segments.c **** 
 176:Generated_Source\PSoC5/Segments.c ****                 #if (Segments_NUM_SEG <= 16u)
 177:Generated_Source\PSoC5/Segments.c ****                     (void) CyDmaTdSetConfiguration(Segments_dmaSegMTd[i], 1u, Segments_dmaSegLTd[i+
ARM GAS  C:\Users\Esteban\AppData\Local\Temp\ccHxlO6N.s 			page 8


 178:Generated_Source\PSoC5/Segments.c ****                                                     TD_INC_SRC_ADR | Segments_DMA_Seg__TD_TERMOUT_E
 179:Generated_Source\PSoC5/Segments.c ****                 #else    
 180:Generated_Source\PSoC5/Segments.c ****                     (void) CyDmaTdSetConfiguration(Segments_dmaSegMTd[i], 1u, Segments_dmaSegHTd[i]
 181:Generated_Source\PSoC5/Segments.c ****                                                     TD_INC_SRC_ADR | TD_AUTO_EXEC_NEXT);
 182:Generated_Source\PSoC5/Segments.c ****                     (void) CyDmaTdSetConfiguration(Segments_dmaSegHTd[i], 1u, Segments_dmaSegLTd[i+
 183:Generated_Source\PSoC5/Segments.c ****                                                     TD_INC_SRC_ADR | Segments_DMA_Seg__TD_TERMOUT_E
 184:Generated_Source\PSoC5/Segments.c ****                 #endif /* Segments_NUM_SEG <= 16u */
 185:Generated_Source\PSoC5/Segments.c ****             #endif /* Segments_NUM_SEG <= 8u */
 186:Generated_Source\PSoC5/Segments.c ****         }
 187:Generated_Source\PSoC5/Segments.c ****         
 188:Generated_Source\PSoC5/Segments.c ****         /* Set the wraparound Segment TD configurations */
 189:Generated_Source\PSoC5/Segments.c ****         #if (Segments_NUM_SEG <= 8u)
 190:Generated_Source\PSoC5/Segments.c ****             (void) CyDmaTdSetConfiguration(Segments_dmaSegLTd[Segments_NUM_COM - 1u],
 210              		.loc 1 190 0 is_stmt 1
 211 00ea 1A48     		ldr	r0, .L22
 212 00ec 0523     		movs	r3, #5
 213              	.LVL30:
 214 00ee 027C     		ldrb	r2, [r0, #16]	@ zero_extendqisi2
 215 00f0 0121     		movs	r1, #1
 216 00f2 C07C     		ldrb	r0, [r0, #19]	@ zero_extendqisi2
 217 00f4 FFF7FEFF 		bl	CyDmaTdSetConfiguration
 218              	.LVL31:
 191:Generated_Source\PSoC5/Segments.c ****                                             1u, Segments_dmaSegLTd[0u], 
 192:Generated_Source\PSoC5/Segments.c ****                                             TD_INC_SRC_ADR | Segments_DMA_Seg__TD_TERMOUT_EN);
 193:Generated_Source\PSoC5/Segments.c ****         #else    
 194:Generated_Source\PSoC5/Segments.c ****             (void) CyDmaTdSetConfiguration(Segments_dmaSegLTd[Segments_NUM_COM - 1u],
 195:Generated_Source\PSoC5/Segments.c ****                                             1u, Segments_dmaSegMTd[Segments_NUM_COM - 1u],
 196:Generated_Source\PSoC5/Segments.c ****                                             TD_INC_SRC_ADR | TD_AUTO_EXEC_NEXT);
 197:Generated_Source\PSoC5/Segments.c ****             #if (Segments_NUM_SEG <= 16u)
 198:Generated_Source\PSoC5/Segments.c ****                 (void) CyDmaTdSetConfiguration(Segments_dmaSegMTd[Segments_NUM_COM - 1u],
 199:Generated_Source\PSoC5/Segments.c ****                                                 1u, Segments_dmaSegLTd[0u], 
 200:Generated_Source\PSoC5/Segments.c ****                                                 TD_INC_SRC_ADR | Segments_DMA_Seg__TD_TERMOUT_EN);
 201:Generated_Source\PSoC5/Segments.c ****             #else    
 202:Generated_Source\PSoC5/Segments.c ****                 (void) CyDmaTdSetConfiguration(Segments_dmaSegMTd[Segments_NUM_COM - 1u],
 203:Generated_Source\PSoC5/Segments.c ****                                                 1u, Segments_dmaSegHTd[Segments_NUM_COM - 1u], 
 204:Generated_Source\PSoC5/Segments.c ****                                                 TD_INC_SRC_ADR | TD_AUTO_EXEC_NEXT);
 205:Generated_Source\PSoC5/Segments.c ****                 (void) CyDmaTdSetConfiguration(Segments_dmaSegHTd[Segments_NUM_COM - 1u],
 206:Generated_Source\PSoC5/Segments.c ****                                                 1u, Segments_dmaSegLTd[0u], 
 207:Generated_Source\PSoC5/Segments.c ****                                                 TD_INC_SRC_ADR | Segments_DMA_Seg__TD_TERMOUT_EN);
 208:Generated_Source\PSoC5/Segments.c ****             #endif /* (Segments_NUM_SEG <= 16u) */
 209:Generated_Source\PSoC5/Segments.c ****         #endif /* (Segments_NUM_SEG <= 8u) */
 210:Generated_Source\PSoC5/Segments.c ****         
 211:Generated_Source\PSoC5/Segments.c ****         /* The lower addresses for the segment TDs */
 212:Generated_Source\PSoC5/Segments.c ****         for(i = 0u; i < Segments_NUM_COM; i++)
 219              		.loc 1 212 0
 220 00f8 0024     		movs	r4, #0
 221 00fa 0BE0     		b	.L16
 222              	.LVL32:
 223              	.L17:
 213:Generated_Source\PSoC5/Segments.c ****         {
 214:Generated_Source\PSoC5/Segments.c ****             (void) CyDmaTdSetAddress(Segments_dmaSegLTd[i],
 224              		.loc 1 214 0 discriminator 3
 225 00fc 154B     		ldr	r3, .L22
 226 00fe 2344     		add	r3, r3, r4
 215:Generated_Source\PSoC5/Segments.c ****                                             LO16((uint32) &Segments_segLBuffer[i]),
 227              		.loc 1 215 0 discriminator 3
 228 0100 1649     		ldr	r1, .L22+8
ARM GAS  C:\Users\Esteban\AppData\Local\Temp\ccHxlO6N.s 			page 9


 229 0102 2144     		add	r1, r1, r4
 214:Generated_Source\PSoC5/Segments.c ****                                             LO16((uint32) &Segments_segLBuffer[i]),
 230              		.loc 1 214 0 discriminator 3
 231 0104 46F27A42 		movw	r2, #25722
 232 0108 89B2     		uxth	r1, r1
 233 010a 187C     		ldrb	r0, [r3, #16]	@ zero_extendqisi2
 234 010c FFF7FEFF 		bl	CyDmaTdSetAddress
 235              	.LVL33:
 212:Generated_Source\PSoC5/Segments.c ****         {
 236              		.loc 1 212 0 discriminator 3
 237 0110 0134     		adds	r4, r4, #1
 238              	.LVL34:
 239 0112 E4B2     		uxtb	r4, r4
 240              	.LVL35:
 241              	.L16:
 212:Generated_Source\PSoC5/Segments.c ****         {
 242              		.loc 1 212 0 is_stmt 0 discriminator 1
 243 0114 032C     		cmp	r4, #3
 244 0116 F1D9     		bls	.L17
 245              	.LVL36:
 246              	.L12:
 216:Generated_Source\PSoC5/Segments.c ****                                             LO16((uint32) Segments_SEG_L_CONTROL_PTR));
 217:Generated_Source\PSoC5/Segments.c ****             #if (Segments_NUM_SEG > 8u)
 218:Generated_Source\PSoC5/Segments.c ****                 (void) CyDmaTdSetAddress(Segments_dmaSegMTd[i],
 219:Generated_Source\PSoC5/Segments.c ****                                             LO16((uint32) &Segments_segMBuffer[i]),
 220:Generated_Source\PSoC5/Segments.c ****                                             LO16((uint32) Segments_SEG_M_CONTROL_PTR));
 221:Generated_Source\PSoC5/Segments.c ****             #endif /* (Segments_NUM_SEG > 8u) */
 222:Generated_Source\PSoC5/Segments.c ****             #if (Segments_NUM_SEG > 16u)
 223:Generated_Source\PSoC5/Segments.c ****                 (void) CyDmaTdSetAddress(Segments_dmaSegHTd[i], 
 224:Generated_Source\PSoC5/Segments.c ****                                             LO16((uint32) &Segments_segHBuffer[i]),
 225:Generated_Source\PSoC5/Segments.c ****                                             LO16((uint32) Segments_SEG_H_CONTROL_PTR));
 226:Generated_Source\PSoC5/Segments.c ****             #endif /* (Segments_NUM_SEG > 16u) */
 227:Generated_Source\PSoC5/Segments.c ****         }
 228:Generated_Source\PSoC5/Segments.c ****     }
 229:Generated_Source\PSoC5/Segments.c ****     
 230:Generated_Source\PSoC5/Segments.c ****     
 231:Generated_Source\PSoC5/Segments.c ****     /******************** DMA configuration for Brightness control *********************/
 232:Generated_Source\PSoC5/Segments.c ****     
 233:Generated_Source\PSoC5/Segments.c ****     #if (Segments_BRIGHTNESS_EN == Segments_ENABLED)
 234:Generated_Source\PSoC5/Segments.c ****         /* Get the DMA channels */
 235:Generated_Source\PSoC5/Segments.c ****         Segments_dmaBCChannel = Segments_DMA_BC_DmaInitialize(1u, 1u, 
 247              		.loc 1 235 0 is_stmt 1
 248 0118 4FF48043 		mov	r3, #16384
 249 011c 41F6FF72 		movw	r2, #8191
 250 0120 0121     		movs	r1, #1
 251 0122 0846     		mov	r0, r1
 252 0124 FFF7FEFF 		bl	Segments_DMA_BC_DmaInitialize
 253              	.LVL37:
 254 0128 0A4B     		ldr	r3, .L22
 255 012a 1875     		strb	r0, [r3, #20]
 236:Generated_Source\PSoC5/Segments.c ****                                         HI16(Segments_SRAM_BASE), HI16(Segments_CONTROL_REG_BASE));
 237:Generated_Source\PSoC5/Segments.c ****             
 238:Generated_Source\PSoC5/Segments.c ****         /* Check if the channels are valid */
 239:Generated_Source\PSoC5/Segments.c ****         if(Segments_dmaBCChannel != DMA_INVALID_CHANNEL)
 256              		.loc 1 239 0
 257 012c FF28     		cmp	r0, #255
 258 012e 10D0     		beq	.L1
ARM GAS  C:\Users\Esteban\AppData\Local\Temp\ccHxlO6N.s 			page 10


 240:Generated_Source\PSoC5/Segments.c ****         {
 241:Generated_Source\PSoC5/Segments.c ****             Segments_dmaBCTd = CyDmaTdAllocate();
 259              		.loc 1 241 0
 260 0130 FFF7FEFF 		bl	CyDmaTdAllocate
 261              	.LVL38:
 262 0134 0246     		mov	r2, r0
 263 0136 074C     		ldr	r4, .L22
 264 0138 6075     		strb	r0, [r4, #21]
 242:Generated_Source\PSoC5/Segments.c ****             
 243:Generated_Source\PSoC5/Segments.c ****             /* Set the TD configuration for the brightness DMA */
 244:Generated_Source\PSoC5/Segments.c ****             (void) CyDmaTdSetConfiguration(Segments_dmaBCTd, Segments_NUM_COM,
 265              		.loc 1 244 0
 266 013a 0123     		movs	r3, #1
 267 013c 0421     		movs	r1, #4
 268 013e FFF7FEFF 		bl	CyDmaTdSetConfiguration
 269              	.LVL39:
 245:Generated_Source\PSoC5/Segments.c ****                                         Segments_dmaBCTd, TD_INC_SRC_ADR);
 246:Generated_Source\PSoC5/Segments.c ****             
 247:Generated_Source\PSoC5/Segments.c ****             /* Lower address for the brightness Td */
 248:Generated_Source\PSoC5/Segments.c ****             (void) CyDmaTdSetAddress(Segments_dmaBCTd, LO16((uint32) &Segments_brightnessReg[0u]),
 270              		.loc 1 248 0
 271 0142 04F11801 		add	r1, r4, #24
 272 0146 46F22452 		movw	r2, #25892
 273 014a 89B2     		uxth	r1, r1
 274 014c 607D     		ldrb	r0, [r4, #21]	@ zero_extendqisi2
 275 014e FFF7FEFF 		bl	CyDmaTdSetAddress
 276              	.LVL40:
 277              	.L1:
 278 0152 10BD     		pop	{r4, pc}
 279              	.L23:
 280              		.align	2
 281              	.L22:
 282 0154 00000000 		.word	.LANCHOR0
 283 0158 00000000 		.word	.LANCHOR1
 284 015c 00000000 		.word	Segments_segLBuffer
 285              		.cfi_endproc
 286              	.LFE0:
 287              		.size	Segments_DmaInit, .-Segments_DmaInit
 288              		.section	.text.Segments_DmaEnable,"ax",%progbits
 289              		.align	2
 290              		.thumb
 291              		.thumb_func
 292              		.type	Segments_DmaEnable, %function
 293              	Segments_DmaEnable:
 294              	.LFB1:
 249:Generated_Source\PSoC5/Segments.c ****                                                                LO16((uint32)Segments_COMPARE_PTR));
 250:Generated_Source\PSoC5/Segments.c ****         }
 251:Generated_Source\PSoC5/Segments.c ****     #endif /* (Segments_BRIGHTNESS_EN == Segments_ENABLED) */
 252:Generated_Source\PSoC5/Segments.c **** }
 253:Generated_Source\PSoC5/Segments.c **** 
 254:Generated_Source\PSoC5/Segments.c **** 
 255:Generated_Source\PSoC5/Segments.c **** /*******************************************************************************
 256:Generated_Source\PSoC5/Segments.c **** * Function Name: Segments_DmaEnable
 257:Generated_Source\PSoC5/Segments.c **** ********************************************************************************
 258:Generated_Source\PSoC5/Segments.c **** *
 259:Generated_Source\PSoC5/Segments.c **** * Summary: 
 260:Generated_Source\PSoC5/Segments.c **** *  Enables the DMAs for transferring from the buffer register arrays to the
ARM GAS  C:\Users\Esteban\AppData\Local\Temp\ccHxlO6N.s 			page 11


 261:Generated_Source\PSoC5/Segments.c **** *  control registers.
 262:Generated_Source\PSoC5/Segments.c **** *
 263:Generated_Source\PSoC5/Segments.c **** * Parameters:
 264:Generated_Source\PSoC5/Segments.c **** *  None
 265:Generated_Source\PSoC5/Segments.c **** *
 266:Generated_Source\PSoC5/Segments.c **** * Return: 
 267:Generated_Source\PSoC5/Segments.c **** *  None
 268:Generated_Source\PSoC5/Segments.c **** *
 269:Generated_Source\PSoC5/Segments.c **** * Side Effects: 
 270:Generated_Source\PSoC5/Segments.c **** *  None
 271:Generated_Source\PSoC5/Segments.c **** *
 272:Generated_Source\PSoC5/Segments.c **** *******************************************************************************/
 273:Generated_Source\PSoC5/Segments.c **** static void Segments_DmaEnable(void) 
 274:Generated_Source\PSoC5/Segments.c **** {
 295              		.loc 1 274 0
 296              		.cfi_startproc
 297              		@ args = 0, pretend = 0, frame = 0
 298              		@ frame_needed = 0, uses_anonymous_args = 0
 299 0000 10B5     		push	{r4, lr}
 300              		.cfi_def_cfa_offset 8
 301              		.cfi_offset 4, -8
 302              		.cfi_offset 14, -4
 275:Generated_Source\PSoC5/Segments.c ****     /* Initialize the TDs to the respective channels */
 276:Generated_Source\PSoC5/Segments.c ****     (void) CyDmaChSetInitialTd(Segments_dmaComChannel, Segments_dmaComTd[0u]);
 303              		.loc 1 276 0
 304 0002 0D4C     		ldr	r4, .L26
 305 0004 2179     		ldrb	r1, [r4, #4]	@ zero_extendqisi2
 306 0006 2078     		ldrb	r0, [r4]	@ zero_extendqisi2
 307 0008 FFF7FEFF 		bl	CyDmaChSetInitialTd
 308              	.LVL41:
 277:Generated_Source\PSoC5/Segments.c ****     (void) CyDmaChSetInitialTd(Segments_dmaSegChannel, Segments_dmaSegLTd[0u]);
 309              		.loc 1 277 0
 310 000c 217C     		ldrb	r1, [r4, #16]	@ zero_extendqisi2
 311 000e 207B     		ldrb	r0, [r4, #12]	@ zero_extendqisi2
 312 0010 FFF7FEFF 		bl	CyDmaChSetInitialTd
 313              	.LVL42:
 278:Generated_Source\PSoC5/Segments.c ****     #if (Segments_BRIGHTNESS_EN == Segments_ENABLED)
 279:Generated_Source\PSoC5/Segments.c ****         (void) CyDmaChSetInitialTd(Segments_dmaBCChannel, Segments_dmaBCTd);
 314              		.loc 1 279 0
 315 0014 617D     		ldrb	r1, [r4, #21]	@ zero_extendqisi2
 316 0016 207D     		ldrb	r0, [r4, #20]	@ zero_extendqisi2
 317 0018 FFF7FEFF 		bl	CyDmaChSetInitialTd
 318              	.LVL43:
 280:Generated_Source\PSoC5/Segments.c ****     #endif /* (Segments_BRIGHTNESS_EN == Segments_ENABLED) */
 281:Generated_Source\PSoC5/Segments.c ****     
 282:Generated_Source\PSoC5/Segments.c ****     /* Enable all channels */
 283:Generated_Source\PSoC5/Segments.c ****     (void) CyDmaChEnable(Segments_dmaComChannel, 1u);
 319              		.loc 1 283 0
 320 001c 0121     		movs	r1, #1
 321 001e 2078     		ldrb	r0, [r4]	@ zero_extendqisi2
 322 0020 FFF7FEFF 		bl	CyDmaChEnable
 323              	.LVL44:
 284:Generated_Source\PSoC5/Segments.c ****     (void) CyDmaChEnable(Segments_dmaSegChannel, 1u);
 324              		.loc 1 284 0
 325 0024 0121     		movs	r1, #1
 326 0026 207B     		ldrb	r0, [r4, #12]	@ zero_extendqisi2
 327 0028 FFF7FEFF 		bl	CyDmaChEnable
ARM GAS  C:\Users\Esteban\AppData\Local\Temp\ccHxlO6N.s 			page 12


 328              	.LVL45:
 285:Generated_Source\PSoC5/Segments.c ****     #if (Segments_BRIGHTNESS_EN == Segments_ENABLED)
 286:Generated_Source\PSoC5/Segments.c ****         (void) CyDmaChEnable(Segments_dmaBCChannel, 1u);
 329              		.loc 1 286 0
 330 002c 0121     		movs	r1, #1
 331 002e 207D     		ldrb	r0, [r4, #20]	@ zero_extendqisi2
 332 0030 FFF7FEFF 		bl	CyDmaChEnable
 333              	.LVL46:
 334 0034 10BD     		pop	{r4, pc}
 335              	.L27:
 336 0036 00BF     		.align	2
 337              	.L26:
 338 0038 00000000 		.word	.LANCHOR0
 339              		.cfi_endproc
 340              	.LFE1:
 341              		.size	Segments_DmaEnable, .-Segments_DmaEnable
 342              		.section	.text.Segments_DmaDisable,"ax",%progbits
 343              		.align	2
 344              		.thumb
 345              		.thumb_func
 346              		.type	Segments_DmaDisable, %function
 347              	Segments_DmaDisable:
 348              	.LFB2:
 287:Generated_Source\PSoC5/Segments.c ****     #endif /* (Segments_BRIGHTNESS_EN == Segments_ENABLED) */
 288:Generated_Source\PSoC5/Segments.c **** }
 289:Generated_Source\PSoC5/Segments.c **** 
 290:Generated_Source\PSoC5/Segments.c **** 
 291:Generated_Source\PSoC5/Segments.c **** /*******************************************************************************
 292:Generated_Source\PSoC5/Segments.c **** * Function Name: Segments_DmaDisable
 293:Generated_Source\PSoC5/Segments.c **** ********************************************************************************
 294:Generated_Source\PSoC5/Segments.c **** *
 295:Generated_Source\PSoC5/Segments.c **** * Summary: 
 296:Generated_Source\PSoC5/Segments.c **** *  Disables the DMAs for transferring from register array to the control 
 297:Generated_Source\PSoC5/Segments.c **** *  register.
 298:Generated_Source\PSoC5/Segments.c **** *
 299:Generated_Source\PSoC5/Segments.c **** * Parameters:
 300:Generated_Source\PSoC5/Segments.c **** *  None
 301:Generated_Source\PSoC5/Segments.c **** *
 302:Generated_Source\PSoC5/Segments.c **** * Return: 
 303:Generated_Source\PSoC5/Segments.c **** *  None
 304:Generated_Source\PSoC5/Segments.c **** *
 305:Generated_Source\PSoC5/Segments.c **** * Side Effects: 
 306:Generated_Source\PSoC5/Segments.c **** *  None
 307:Generated_Source\PSoC5/Segments.c **** *
 308:Generated_Source\PSoC5/Segments.c **** *******************************************************************************/
 309:Generated_Source\PSoC5/Segments.c **** static void Segments_DmaDisable(void) 
 310:Generated_Source\PSoC5/Segments.c **** {
 349              		.loc 1 310 0
 350              		.cfi_startproc
 351              		@ args = 0, pretend = 0, frame = 8
 352              		@ frame_needed = 0, uses_anonymous_args = 0
 353 0000 70B5     		push	{r4, r5, r6, lr}
 354              		.cfi_def_cfa_offset 16
 355              		.cfi_offset 4, -16
 356              		.cfi_offset 5, -12
 357              		.cfi_offset 6, -8
 358              		.cfi_offset 14, -4
ARM GAS  C:\Users\Esteban\AppData\Local\Temp\ccHxlO6N.s 			page 13


 359 0002 82B0     		sub	sp, sp, #8
 360              		.cfi_def_cfa_offset 24
 311:Generated_Source\PSoC5/Segments.c ****     uint8 i;
 312:Generated_Source\PSoC5/Segments.c ****     uint8 channel;
 313:Generated_Source\PSoC5/Segments.c ****     uint8 dmaChannelList[Segments_CHANNEL_LIMIT];
 314:Generated_Source\PSoC5/Segments.c ****     
 315:Generated_Source\PSoC5/Segments.c ****     dmaChannelList[0u] = Segments_dmaComChannel;
 361              		.loc 1 315 0
 362 0004 174B     		ldr	r3, .L34
 363 0006 1A78     		ldrb	r2, [r3]	@ zero_extendqisi2
 364 0008 8DF80420 		strb	r2, [sp, #4]
 316:Generated_Source\PSoC5/Segments.c ****     dmaChannelList[1u] = Segments_dmaSegChannel;
 365              		.loc 1 316 0
 366 000c 1A7B     		ldrb	r2, [r3, #12]	@ zero_extendqisi2
 367 000e 8DF80520 		strb	r2, [sp, #5]
 317:Generated_Source\PSoC5/Segments.c ****     #if (Segments_BRIGHTNESS_EN == Segments_ENABLED)
 318:Generated_Source\PSoC5/Segments.c ****         dmaChannelList[2u] = Segments_dmaBCChannel;
 368              		.loc 1 318 0
 369 0012 1B7D     		ldrb	r3, [r3, #20]	@ zero_extendqisi2
 370 0014 8DF80630 		strb	r3, [sp, #6]
 371              	.LVL47:
 319:Generated_Source\PSoC5/Segments.c ****     #endif /* (Segments_BRIGHTNESS_EN == Segments_ENABLED) */
 320:Generated_Source\PSoC5/Segments.c **** 
 321:Generated_Source\PSoC5/Segments.c ****     for(i = 0u; i < Segments_CHANNEL_LIMIT; i++)
 372              		.loc 1 321 0
 373 0018 0026     		movs	r6, #0
 374 001a 1EE0     		b	.L29
 375              	.LVL48:
 376              	.L32:
 322:Generated_Source\PSoC5/Segments.c ****     {
 323:Generated_Source\PSoC5/Segments.c ****         channel = dmaChannelList[i];
 377              		.loc 1 323 0
 378 001c 02AB     		add	r3, sp, #8
 379 001e 3344     		add	r3, r3, r6
 380 0020 13F8045C 		ldrb	r5, [r3, #-4]	@ zero_extendqisi2
 381              	.LVL49:
 324:Generated_Source\PSoC5/Segments.c ****         (void) CyDmaChDisable(channel);
 382              		.loc 1 324 0
 383 0024 2846     		mov	r0, r5
 384 0026 FFF7FEFF 		bl	CyDmaChDisable
 385              	.LVL50:
 325:Generated_Source\PSoC5/Segments.c ****         
 326:Generated_Source\PSoC5/Segments.c ****         Segments_Com_Driver_Write(Segments_CLEAR);
 386              		.loc 1 326 0
 387 002a 0020     		movs	r0, #0
 388 002c FFF7FEFF 		bl	Segments_Com_Driver_Write
 389              	.LVL51:
 390              	.L30:
 327:Generated_Source\PSoC5/Segments.c ****         
 328:Generated_Source\PSoC5/Segments.c ****         /* Clear any potential DMA requests and re-reset TD pointers */
 329:Generated_Source\PSoC5/Segments.c ****         while(0u != (CY_DMA_CH_STRUCT_PTR[channel].basic_status[0u] & CY_DMA_STATUS_TD_ACTIVE))
 391              		.loc 1 329 0 discriminator 1
 392 0030 0D4C     		ldr	r4, .L34+4
 393 0032 04EB0514 		add	r4, r4, r5, lsl #4
 394 0036 237A     		ldrb	r3, [r4, #8]	@ zero_extendqisi2
 395 0038 13F0020F 		tst	r3, #2
 396 003c F8D1     		bne	.L30
ARM GAS  C:\Users\Esteban\AppData\Local\Temp\ccHxlO6N.s 			page 14


 330:Generated_Source\PSoC5/Segments.c ****         {
 331:Generated_Source\PSoC5/Segments.c ****             ; /* Wait for to be cleared */
 332:Generated_Source\PSoC5/Segments.c ****         }
 333:Generated_Source\PSoC5/Segments.c **** 
 334:Generated_Source\PSoC5/Segments.c ****         (void) CyDmaChSetRequest(channel, CY_DMA_CPU_TERM_CHAIN);
 397              		.loc 1 334 0
 398 003e 0421     		movs	r1, #4
 399 0040 2846     		mov	r0, r5
 400 0042 FFF7FEFF 		bl	CyDmaChSetRequest
 401              	.LVL52:
 335:Generated_Source\PSoC5/Segments.c ****         (void) CyDmaChEnable    (channel, 1u);
 402              		.loc 1 335 0
 403 0046 0121     		movs	r1, #1
 404 0048 2846     		mov	r0, r5
 405 004a FFF7FEFF 		bl	CyDmaChEnable
 406              	.LVL53:
 407              	.L31:
 336:Generated_Source\PSoC5/Segments.c **** 
 337:Generated_Source\PSoC5/Segments.c ****         while(0u != (CY_DMA_CH_STRUCT_PTR[channel].basic_cfg[0u] & CY_DMA_STATUS_CHAIN_ACTIVE))
 408              		.loc 1 337 0 discriminator 1
 409 004e 2378     		ldrb	r3, [r4]	@ zero_extendqisi2
 410 0050 13F0010F 		tst	r3, #1
 411 0054 FBD1     		bne	.L31
 321:Generated_Source\PSoC5/Segments.c ****     {
 412              		.loc 1 321 0 discriminator 2
 413 0056 0136     		adds	r6, r6, #1
 414              	.LVL54:
 415 0058 F6B2     		uxtb	r6, r6
 416              	.LVL55:
 417              	.L29:
 321:Generated_Source\PSoC5/Segments.c ****     {
 418              		.loc 1 321 0 is_stmt 0 discriminator 1
 419 005a 022E     		cmp	r6, #2
 420 005c DED9     		bls	.L32
 338:Generated_Source\PSoC5/Segments.c ****         {
 339:Generated_Source\PSoC5/Segments.c ****             ; /* Wait for to be cleared */
 340:Generated_Source\PSoC5/Segments.c ****         }
 341:Generated_Source\PSoC5/Segments.c ****     }
 342:Generated_Source\PSoC5/Segments.c **** }
 421              		.loc 1 342 0 is_stmt 1
 422 005e 02B0     		add	sp, sp, #8
 423              		.cfi_def_cfa_offset 16
 424              		@ sp needed
 425 0060 70BD     		pop	{r4, r5, r6, pc}
 426              	.LVL56:
 427              	.L35:
 428 0062 00BF     		.align	2
 429              	.L34:
 430 0064 00000000 		.word	.LANCHOR0
 431 0068 10700040 		.word	1073770512
 432              		.cfi_endproc
 433              	.LFE2:
 434              		.size	Segments_DmaDisable, .-Segments_DmaDisable
 435              		.section	.text.Segments_Enable,"ax",%progbits
 436              		.align	2
 437              		.global	Segments_Enable
 438              		.thumb
ARM GAS  C:\Users\Esteban\AppData\Local\Temp\ccHxlO6N.s 			page 15


 439              		.thumb_func
 440              		.type	Segments_Enable, %function
 441              	Segments_Enable:
 442              	.LFB4:
 343:Generated_Source\PSoC5/Segments.c **** 
 344:Generated_Source\PSoC5/Segments.c **** 
 345:Generated_Source\PSoC5/Segments.c **** /*******************************************************************************
 346:Generated_Source\PSoC5/Segments.c **** * Function Name: Segments_Init
 347:Generated_Source\PSoC5/Segments.c **** ********************************************************************************
 348:Generated_Source\PSoC5/Segments.c **** *
 349:Generated_Source\PSoC5/Segments.c **** * Summary: 
 350:Generated_Source\PSoC5/Segments.c **** *  Performs initialization required for the component to operate.
 351:Generated_Source\PSoC5/Segments.c **** *
 352:Generated_Source\PSoC5/Segments.c **** * Parameters:
 353:Generated_Source\PSoC5/Segments.c **** *  None
 354:Generated_Source\PSoC5/Segments.c **** *
 355:Generated_Source\PSoC5/Segments.c **** * Return: 
 356:Generated_Source\PSoC5/Segments.c **** *  None
 357:Generated_Source\PSoC5/Segments.c **** *
 358:Generated_Source\PSoC5/Segments.c **** * Side Effects: 
 359:Generated_Source\PSoC5/Segments.c **** *  This action clears the display.
 360:Generated_Source\PSoC5/Segments.c **** *
 361:Generated_Source\PSoC5/Segments.c **** *******************************************************************************/
 362:Generated_Source\PSoC5/Segments.c **** void Segments_Init(void) 
 363:Generated_Source\PSoC5/Segments.c **** {
 364:Generated_Source\PSoC5/Segments.c ****     static uint8 Segments_dmaInitDone = 0u;
 365:Generated_Source\PSoC5/Segments.c ****     #if (Segments_BRIGHTNESS_EN == Segments_ENABLED)
 366:Generated_Source\PSoC5/Segments.c ****         uint8 i;
 367:Generated_Source\PSoC5/Segments.c ****     #endif /* (Segments_BRIGHTNESS_EN == Segments_ENABLED) */
 368:Generated_Source\PSoC5/Segments.c ****     
 369:Generated_Source\PSoC5/Segments.c ****     /* Start fresh by clearing the display */
 370:Generated_Source\PSoC5/Segments.c ****     Segments_ClearDisplayAll();
 371:Generated_Source\PSoC5/Segments.c ****     
 372:Generated_Source\PSoC5/Segments.c ****     /* Initialize the DMAs */
 373:Generated_Source\PSoC5/Segments.c ****     if(0u == Segments_dmaInitDone)
 374:Generated_Source\PSoC5/Segments.c ****     {
 375:Generated_Source\PSoC5/Segments.c ****         Segments_DmaInit();
 376:Generated_Source\PSoC5/Segments.c ****         Segments_dmaInitDone = 1u;
 377:Generated_Source\PSoC5/Segments.c ****     }
 378:Generated_Source\PSoC5/Segments.c ****     
 379:Generated_Source\PSoC5/Segments.c ****     /* Set the brightness to full */
 380:Generated_Source\PSoC5/Segments.c ****     #if (Segments_BRIGHTNESS_EN == Segments_ENABLED)
 381:Generated_Source\PSoC5/Segments.c ****         for(i = 0u; i<(Segments_NUM_COM); i++)
 382:Generated_Source\PSoC5/Segments.c ****         {
 383:Generated_Source\PSoC5/Segments.c ****             Segments_brightnessReg[i] = Segments_INIT_BRIGHT;
 384:Generated_Source\PSoC5/Segments.c ****         }
 385:Generated_Source\PSoC5/Segments.c ****     #endif /* (Segments_BRIGHTNESS_EN == Segments_ENABLED) */
 386:Generated_Source\PSoC5/Segments.c **** }
 387:Generated_Source\PSoC5/Segments.c **** 
 388:Generated_Source\PSoC5/Segments.c **** 
 389:Generated_Source\PSoC5/Segments.c **** /*******************************************************************************
 390:Generated_Source\PSoC5/Segments.c **** * Function Name: Segments_Enable
 391:Generated_Source\PSoC5/Segments.c **** ********************************************************************************
 392:Generated_Source\PSoC5/Segments.c **** *
 393:Generated_Source\PSoC5/Segments.c **** * Summary: 
 394:Generated_Source\PSoC5/Segments.c **** *  Turns on the display.
 395:Generated_Source\PSoC5/Segments.c **** *
ARM GAS  C:\Users\Esteban\AppData\Local\Temp\ccHxlO6N.s 			page 16


 396:Generated_Source\PSoC5/Segments.c **** * Parameters:
 397:Generated_Source\PSoC5/Segments.c **** *  None
 398:Generated_Source\PSoC5/Segments.c **** *
 399:Generated_Source\PSoC5/Segments.c **** * Return: 
 400:Generated_Source\PSoC5/Segments.c **** *  None
 401:Generated_Source\PSoC5/Segments.c **** *
 402:Generated_Source\PSoC5/Segments.c **** * Side Effects: 
 403:Generated_Source\PSoC5/Segments.c **** *  None
 404:Generated_Source\PSoC5/Segments.c **** *
 405:Generated_Source\PSoC5/Segments.c **** *******************************************************************************/
 406:Generated_Source\PSoC5/Segments.c **** void Segments_Enable(void) 
 407:Generated_Source\PSoC5/Segments.c **** {
 443              		.loc 1 407 0
 444              		.cfi_startproc
 445              		@ args = 0, pretend = 0, frame = 0
 446              		@ frame_needed = 0, uses_anonymous_args = 0
 447 0000 08B5     		push	{r3, lr}
 448              		.cfi_def_cfa_offset 8
 449              		.cfi_offset 3, -8
 450              		.cfi_offset 14, -4
 408:Generated_Source\PSoC5/Segments.c ****     /* Enable the DMAs */
 409:Generated_Source\PSoC5/Segments.c ****     Segments_DmaEnable();
 451              		.loc 1 409 0
 452 0002 FFF7FEFF 		bl	Segments_DmaEnable
 453              	.LVL57:
 410:Generated_Source\PSoC5/Segments.c ****  
 411:Generated_Source\PSoC5/Segments.c ****     #if (Segments_BRIGHTNESS_EN == Segments_ENABLED)
 412:Generated_Source\PSoC5/Segments.c ****        /* Initialize to zero */
 413:Generated_Source\PSoC5/Segments.c ****        Segments_COUNTER_REG = 0x00u;
 454              		.loc 1 413 0
 455 0006 0023     		movs	r3, #0
 456 0008 044A     		ldr	r2, .L38
 457 000a 1370     		strb	r3, [r2]
 414:Generated_Source\PSoC5/Segments.c ****        Segments_COMPARE_REG = 0x00u;
 458              		.loc 1 414 0
 459 000c 1032     		adds	r2, r2, #16
 460 000e 1370     		strb	r3, [r2]
 415:Generated_Source\PSoC5/Segments.c ****        
 416:Generated_Source\PSoC5/Segments.c ****         /* Enable the PWM for brightness control */
 417:Generated_Source\PSoC5/Segments.c ****        Segments_CONTROL_REG = Segments_CTRL_ENABLE;
 461              		.loc 1 417 0
 462 0010 0123     		movs	r3, #1
 463 0012 5032     		adds	r2, r2, #80
 464 0014 1370     		strb	r3, [r2]
 418:Generated_Source\PSoC5/Segments.c ****     #endif /* (Segments_BRIGHTNESS_EN == Segments_ENABLED) */
 419:Generated_Source\PSoC5/Segments.c ****     
 420:Generated_Source\PSoC5/Segments.c ****     Segments_enableVar = Segments_CTRL_ENABLE;
 465              		.loc 1 420 0
 466 0016 024A     		ldr	r2, .L38+4
 467 0018 1377     		strb	r3, [r2, #28]
 468 001a 08BD     		pop	{r3, pc}
 469              	.L39:
 470              		.align	2
 471              	.L38:
 472 001c 14650040 		.word	1073767700
 473 0020 00000000 		.word	.LANCHOR0
 474              		.cfi_endproc
ARM GAS  C:\Users\Esteban\AppData\Local\Temp\ccHxlO6N.s 			page 17


 475              	.LFE4:
 476              		.size	Segments_Enable, .-Segments_Enable
 477              		.section	.text.Segments_SetDisplayRAM,"ax",%progbits
 478              		.align	2
 479              		.global	Segments_SetDisplayRAM
 480              		.thumb
 481              		.thumb_func
 482              		.type	Segments_SetDisplayRAM, %function
 483              	Segments_SetDisplayRAM:
 484              	.LFB7:
 421:Generated_Source\PSoC5/Segments.c **** }
 422:Generated_Source\PSoC5/Segments.c **** 
 423:Generated_Source\PSoC5/Segments.c **** 
 424:Generated_Source\PSoC5/Segments.c **** /*******************************************************************************
 425:Generated_Source\PSoC5/Segments.c **** * Function Name: Segments_Start
 426:Generated_Source\PSoC5/Segments.c **** ********************************************************************************
 427:Generated_Source\PSoC5/Segments.c **** *
 428:Generated_Source\PSoC5/Segments.c **** * Summary:
 429:Generated_Source\PSoC5/Segments.c **** *  Configures the hardware (DMA and optional PWM) and enables the LED
 430:Generated_Source\PSoC5/Segments.c **** *  display. Whatever is currently in the display RAM will be displayed on the 
 431:Generated_Source\PSoC5/Segments.c **** *  LED display. The display RAM is an array of 1 to 24 bytes called 
 432:Generated_Source\PSoC5/Segments.c **** *  LED_Driver_1_SegmentRam[].
 433:Generated_Source\PSoC5/Segments.c **** *
 434:Generated_Source\PSoC5/Segments.c **** * Parameters:
 435:Generated_Source\PSoC5/Segments.c **** *  None
 436:Generated_Source\PSoC5/Segments.c **** *
 437:Generated_Source\PSoC5/Segments.c **** * Return:
 438:Generated_Source\PSoC5/Segments.c **** *  None
 439:Generated_Source\PSoC5/Segments.c **** *
 440:Generated_Source\PSoC5/Segments.c **** * Side effects: 
 441:Generated_Source\PSoC5/Segments.c **** *  None
 442:Generated_Source\PSoC5/Segments.c **** *
 443:Generated_Source\PSoC5/Segments.c **** *******************************************************************************/
 444:Generated_Source\PSoC5/Segments.c **** void Segments_Start(void) 
 445:Generated_Source\PSoC5/Segments.c **** {
 446:Generated_Source\PSoC5/Segments.c ****     if(0u == Segments_initVar)
 447:Generated_Source\PSoC5/Segments.c ****     {
 448:Generated_Source\PSoC5/Segments.c ****         Segments_Init();
 449:Generated_Source\PSoC5/Segments.c ****         Segments_initVar = 1u;
 450:Generated_Source\PSoC5/Segments.c ****     }
 451:Generated_Source\PSoC5/Segments.c **** 
 452:Generated_Source\PSoC5/Segments.c ****     Segments_Enable();
 453:Generated_Source\PSoC5/Segments.c **** }
 454:Generated_Source\PSoC5/Segments.c **** 
 455:Generated_Source\PSoC5/Segments.c **** 
 456:Generated_Source\PSoC5/Segments.c **** /*******************************************************************************
 457:Generated_Source\PSoC5/Segments.c **** * Function Name: Segments_Stop
 458:Generated_Source\PSoC5/Segments.c **** ********************************************************************************
 459:Generated_Source\PSoC5/Segments.c **** *
 460:Generated_Source\PSoC5/Segments.c **** * Summary:
 461:Generated_Source\PSoC5/Segments.c **** *  Clears the display SRAM, disables all DMA channels and the stops the PWM
 462:Generated_Source\PSoC5/Segments.c **** *  (if enabled in the customizer).
 463:Generated_Source\PSoC5/Segments.c **** *
 464:Generated_Source\PSoC5/Segments.c **** * Parameters:
 465:Generated_Source\PSoC5/Segments.c **** *  None
 466:Generated_Source\PSoC5/Segments.c **** *
 467:Generated_Source\PSoC5/Segments.c **** * Return:
ARM GAS  C:\Users\Esteban\AppData\Local\Temp\ccHxlO6N.s 			page 18


 468:Generated_Source\PSoC5/Segments.c **** *  None
 469:Generated_Source\PSoC5/Segments.c **** *
 470:Generated_Source\PSoC5/Segments.c **** * Side effects:
 471:Generated_Source\PSoC5/Segments.c **** *  None
 472:Generated_Source\PSoC5/Segments.c **** *
 473:Generated_Source\PSoC5/Segments.c **** *******************************************************************************/
 474:Generated_Source\PSoC5/Segments.c **** void Segments_Stop(void) 
 475:Generated_Source\PSoC5/Segments.c **** {
 476:Generated_Source\PSoC5/Segments.c ****     #if (Segments_BRIGHTNESS_EN == Segments_ENABLED)
 477:Generated_Source\PSoC5/Segments.c ****         /* Disable the PWM */
 478:Generated_Source\PSoC5/Segments.c ****         Segments_CONTROL_REG = Segments_CTRL_DISABLE;
 479:Generated_Source\PSoC5/Segments.c ****     #endif /* (Segments_BRIGHTNESS_EN == Segments_ENABLED) */
 480:Generated_Source\PSoC5/Segments.c ****     
 481:Generated_Source\PSoC5/Segments.c ****     Segments_DmaDisable();
 482:Generated_Source\PSoC5/Segments.c ****     Segments_ClearDisplayAll();
 483:Generated_Source\PSoC5/Segments.c ****     
 484:Generated_Source\PSoC5/Segments.c ****     Segments_enableVar  = Segments_CTRL_DISABLE;
 485:Generated_Source\PSoC5/Segments.c **** }
 486:Generated_Source\PSoC5/Segments.c **** 
 487:Generated_Source\PSoC5/Segments.c **** 
 488:Generated_Source\PSoC5/Segments.c **** /*******************************************************************************
 489:Generated_Source\PSoC5/Segments.c **** * Function Name: Segments_SetDisplayRAM
 490:Generated_Source\PSoC5/Segments.c **** ********************************************************************************
 491:Generated_Source\PSoC5/Segments.c **** *
 492:Generated_Source\PSoC5/Segments.c **** * Summary:
 493:Generated_Source\PSoC5/Segments.c **** *  Writes 'value' directly into the display RAM. It is not necessary to use 
 494:Generated_Source\PSoC5/Segments.c **** *  this API to manipulate the display RAM, you can also access the display 
 495:Generated_Source\PSoC5/Segments.c **** *  RAM directly by writing to Segments_segLBuffer,
 496:Generated_Source\PSoC5/Segments.c **** *  Segments_segMBuffer, Segments_segHBuffer.
 497:Generated_Source\PSoC5/Segments.c **** *
 498:Generated_Source\PSoC5/Segments.c **** * Parameters:
 499:Generated_Source\PSoC5/Segments.c **** *  uint8 value: Desired value to write into the display RAM. A '1' enables the
 500:Generated_Source\PSoC5/Segments.c **** *               segment, a '0' disables the segment.
 501:Generated_Source\PSoC5/Segments.c **** *  uint8 position: Position of the display that is modified.
 502:Generated_Source\PSoC5/Segments.c **** *
 503:Generated_Source\PSoC5/Segments.c **** * Return:
 504:Generated_Source\PSoC5/Segments.c **** *  None
 505:Generated_Source\PSoC5/Segments.c **** *
 506:Generated_Source\PSoC5/Segments.c **** * Side effects:
 507:Generated_Source\PSoC5/Segments.c **** *  None
 508:Generated_Source\PSoC5/Segments.c **** *
 509:Generated_Source\PSoC5/Segments.c **** *******************************************************************************/
 510:Generated_Source\PSoC5/Segments.c **** void Segments_SetDisplayRAM(uint8 value, uint8 position) 
 511:Generated_Source\PSoC5/Segments.c **** {
 485              		.loc 1 511 0
 486              		.cfi_startproc
 487              		@ args = 0, pretend = 0, frame = 0
 488              		@ frame_needed = 0, uses_anonymous_args = 0
 489              		@ link register save eliminated.
 490              	.LVL58:
 512:Generated_Source\PSoC5/Segments.c ****     uint8 relPosition;
 513:Generated_Source\PSoC5/Segments.c ****     
 514:Generated_Source\PSoC5/Segments.c ****     if(position < Segments_NUM_COM)
 491              		.loc 1 514 0
 492 0000 0329     		cmp	r1, #3
 493 0002 01D8     		bhi	.L40
 494              	.LVL59:
ARM GAS  C:\Users\Esteban\AppData\Local\Temp\ccHxlO6N.s 			page 19


 515:Generated_Source\PSoC5/Segments.c ****     {
 516:Generated_Source\PSoC5/Segments.c ****         relPosition = position;
 517:Generated_Source\PSoC5/Segments.c ****         #if(Segments_SEG_DRIVE == Segments_HIGH)
 518:Generated_Source\PSoC5/Segments.c ****             Segments_segLBuffer[relPosition] = value;
 495              		.loc 1 518 0
 496 0004 014B     		ldr	r3, .L42
 497 0006 5854     		strb	r0, [r3, r1]
 498              	.LVL60:
 499              	.L40:
 500 0008 7047     		bx	lr
 501              	.L43:
 502 000a 00BF     		.align	2
 503              	.L42:
 504 000c 00000000 		.word	Segments_segLBuffer
 505              		.cfi_endproc
 506              	.LFE7:
 507              		.size	Segments_SetDisplayRAM, .-Segments_SetDisplayRAM
 508              		.section	.text.Segments_SetRC,"ax",%progbits
 509              		.align	2
 510              		.global	Segments_SetRC
 511              		.thumb
 512              		.thumb_func
 513              		.type	Segments_SetRC, %function
 514              	Segments_SetRC:
 515              	.LFB8:
 519:Generated_Source\PSoC5/Segments.c ****         #else
 520:Generated_Source\PSoC5/Segments.c ****             Segments_segLBuffer[relPosition] = ((uint8) ~value);
 521:Generated_Source\PSoC5/Segments.c ****         #endif /* Segments_SEG_DRIVE == Segments_HIGH */
 522:Generated_Source\PSoC5/Segments.c ****     }    
 523:Generated_Source\PSoC5/Segments.c ****     else if (position < Segments_TWO_NUM_COM)
 524:Generated_Source\PSoC5/Segments.c ****     {
 525:Generated_Source\PSoC5/Segments.c ****         #if (Segments_NUM_SEG > 8u)
 526:Generated_Source\PSoC5/Segments.c ****             relPosition = position - Segments_NUM_COM;
 527:Generated_Source\PSoC5/Segments.c ****             #if(Segments_SEG_DRIVE == Segments_HIGH)
 528:Generated_Source\PSoC5/Segments.c ****                 Segments_segMBuffer[relPosition] = value;
 529:Generated_Source\PSoC5/Segments.c ****             #else
 530:Generated_Source\PSoC5/Segments.c ****                 Segments_segMBuffer[relPosition] = ((uint8) ~value);
 531:Generated_Source\PSoC5/Segments.c ****             #endif /* Segments_SEG_DRIVE == Segments_HIGH */
 532:Generated_Source\PSoC5/Segments.c ****         #endif /* (Segments_NUM_SEG > 8u) */
 533:Generated_Source\PSoC5/Segments.c ****     }
 534:Generated_Source\PSoC5/Segments.c ****     else
 535:Generated_Source\PSoC5/Segments.c ****     {
 536:Generated_Source\PSoC5/Segments.c ****         #if (Segments_NUM_SEG > 16u)
 537:Generated_Source\PSoC5/Segments.c ****             relPosition = position - Segments_TWO_NUM_COM;
 538:Generated_Source\PSoC5/Segments.c ****             if(relPosition < Segments_NUM_COM)
 539:Generated_Source\PSoC5/Segments.c ****             {
 540:Generated_Source\PSoC5/Segments.c ****                 #if(Segments_SEG_DRIVE == Segments_HIGH)
 541:Generated_Source\PSoC5/Segments.c ****                     Segments_segHBuffer[relPosition] = value;
 542:Generated_Source\PSoC5/Segments.c ****                 #else
 543:Generated_Source\PSoC5/Segments.c ****                     Segments_segMBuffer[relPosition] = ((uint8) ~value);
 544:Generated_Source\PSoC5/Segments.c ****                 #endif /* Segments_SEG_DRIVE == Segments_HIGH */
 545:Generated_Source\PSoC5/Segments.c ****             }
 546:Generated_Source\PSoC5/Segments.c ****         #endif /* (Segments_NUM_SEG > 16u) */
 547:Generated_Source\PSoC5/Segments.c ****     }
 548:Generated_Source\PSoC5/Segments.c **** }
 549:Generated_Source\PSoC5/Segments.c **** 
 550:Generated_Source\PSoC5/Segments.c **** 
ARM GAS  C:\Users\Esteban\AppData\Local\Temp\ccHxlO6N.s 			page 20


 551:Generated_Source\PSoC5/Segments.c **** /*******************************************************************************
 552:Generated_Source\PSoC5/Segments.c **** * Function Name: Segments_SetRC
 553:Generated_Source\PSoC5/Segments.c **** ********************************************************************************
 554:Generated_Source\PSoC5/Segments.c **** *
 555:Generated_Source\PSoC5/Segments.c **** * Summary:
 556:Generated_Source\PSoC5/Segments.c **** *  Sets the bit in the display RAM corresponding to the LED in the designated
 557:Generated_Source\PSoC5/Segments.c **** *  row and column. Rows are the segments and columns are the commons.
 558:Generated_Source\PSoC5/Segments.c **** *
 559:Generated_Source\PSoC5/Segments.c **** * Parameters:
 560:Generated_Source\PSoC5/Segments.c **** *  uint8 row: Row value 0 to 23.
 561:Generated_Source\PSoC5/Segments.c **** *  uint8 col: Column between 0 and 7.
 562:Generated_Source\PSoC5/Segments.c **** *
 563:Generated_Source\PSoC5/Segments.c **** * Return:
 564:Generated_Source\PSoC5/Segments.c **** *  None
 565:Generated_Source\PSoC5/Segments.c **** *
 566:Generated_Source\PSoC5/Segments.c **** * Side effects:
 567:Generated_Source\PSoC5/Segments.c **** *  None
 568:Generated_Source\PSoC5/Segments.c **** *
 569:Generated_Source\PSoC5/Segments.c **** *******************************************************************************/
 570:Generated_Source\PSoC5/Segments.c **** void Segments_SetRC(uint8 row, uint8 column) 
 571:Generated_Source\PSoC5/Segments.c **** {
 516              		.loc 1 571 0
 517              		.cfi_startproc
 518              		@ args = 0, pretend = 0, frame = 0
 519              		@ frame_needed = 0, uses_anonymous_args = 0
 520              		@ link register save eliminated.
 521              	.LVL61:
 572:Generated_Source\PSoC5/Segments.c ****     uint8 rowSeg;
 573:Generated_Source\PSoC5/Segments.c ****     
 574:Generated_Source\PSoC5/Segments.c ****     if(column < Segments_NUM_COM)
 522              		.loc 1 574 0
 523 0000 0329     		cmp	r1, #3
 524 0002 08D8     		bhi	.L44
 575:Generated_Source\PSoC5/Segments.c ****     {
 576:Generated_Source\PSoC5/Segments.c ****         if(row < 8u)
 525              		.loc 1 576 0
 526 0004 0728     		cmp	r0, #7
 527 0006 06D8     		bhi	.L44
 528              	.LVL62:
 577:Generated_Source\PSoC5/Segments.c ****         {
 578:Generated_Source\PSoC5/Segments.c ****             rowSeg = row;
 579:Generated_Source\PSoC5/Segments.c ****             #if(Segments_SEG_DRIVE == Segments_HIGH)
 580:Generated_Source\PSoC5/Segments.c ****                 Segments_segLBuffer[column] |= ((uint8)((uint8)0x01u << rowSeg));
 529              		.loc 1 580 0
 530 0008 0123     		movs	r3, #1
 531 000a 03FA00F0 		lsl	r0, r3, r0
 532              	.LVL63:
 533 000e 024B     		ldr	r3, .L46
 534 0010 5A5C     		ldrb	r2, [r3, r1]	@ zero_extendqisi2
 535 0012 1043     		orrs	r0, r0, r2
 536 0014 5854     		strb	r0, [r3, r1]
 537              	.LVL64:
 538              	.L44:
 539 0016 7047     		bx	lr
 540              	.L47:
 541              		.align	2
 542              	.L46:
ARM GAS  C:\Users\Esteban\AppData\Local\Temp\ccHxlO6N.s 			page 21


 543 0018 00000000 		.word	Segments_segLBuffer
 544              		.cfi_endproc
 545              	.LFE8:
 546              		.size	Segments_SetRC, .-Segments_SetRC
 547              		.section	.text.Segments_ClearRC,"ax",%progbits
 548              		.align	2
 549              		.global	Segments_ClearRC
 550              		.thumb
 551              		.thumb_func
 552              		.type	Segments_ClearRC, %function
 553              	Segments_ClearRC:
 554              	.LFB9:
 581:Generated_Source\PSoC5/Segments.c ****             #else
 582:Generated_Source\PSoC5/Segments.c ****                 Segments_segLBuffer[column] &= ((uint8)~((uint8)((uint8)0x01u << rowSeg)));
 583:Generated_Source\PSoC5/Segments.c ****             #endif /* Segments_SEG_DRIVE == Segments_HIGH */
 584:Generated_Source\PSoC5/Segments.c ****         }
 585:Generated_Source\PSoC5/Segments.c ****         else if (row < 16u)
 586:Generated_Source\PSoC5/Segments.c ****         {
 587:Generated_Source\PSoC5/Segments.c ****             #if (Segments_NUM_SEG > 8u) 
 588:Generated_Source\PSoC5/Segments.c ****                 rowSeg = row - 8u;
 589:Generated_Source\PSoC5/Segments.c ****                 #if(Segments_SEG_DRIVE == Segments_HIGH)
 590:Generated_Source\PSoC5/Segments.c ****                     Segments_segMBuffer[column] |= ((uint8)((uint8)0x01u << rowSeg));
 591:Generated_Source\PSoC5/Segments.c ****                 #else
 592:Generated_Source\PSoC5/Segments.c ****                     Segments_segMBuffer[column] &= ((uint8)~((uint8)((uint8)0x01u << rowSeg)));
 593:Generated_Source\PSoC5/Segments.c ****                 #endif /* Segments_SEG_DRIVE == Segments_HIGH */
 594:Generated_Source\PSoC5/Segments.c ****             #endif /* (Segments_NUM_SEG > 8u) */
 595:Generated_Source\PSoC5/Segments.c ****         }
 596:Generated_Source\PSoC5/Segments.c ****         else
 597:Generated_Source\PSoC5/Segments.c ****         {
 598:Generated_Source\PSoC5/Segments.c ****             #if (Segments_NUM_SEG > 16u)
 599:Generated_Source\PSoC5/Segments.c ****                 rowSeg = row - 16u;
 600:Generated_Source\PSoC5/Segments.c ****                 #if(Segments_SEG_DRIVE == Segments_HIGH)
 601:Generated_Source\PSoC5/Segments.c ****                     Segments_segHBuffer[column] |= ((uint8)((uint8)0x01u << rowSeg));
 602:Generated_Source\PSoC5/Segments.c ****                 #else
 603:Generated_Source\PSoC5/Segments.c ****                     Segments_segHBuffer[column] &= ((uint8)~((uint8)((uint8)0x01u << rowSeg)));
 604:Generated_Source\PSoC5/Segments.c ****                 #endif /* Segments_SEG_DRIVE == Segments_HIGH */
 605:Generated_Source\PSoC5/Segments.c ****             #endif /* (Segments_NUM_SEG > 16u) */
 606:Generated_Source\PSoC5/Segments.c ****         }
 607:Generated_Source\PSoC5/Segments.c ****     }
 608:Generated_Source\PSoC5/Segments.c **** }
 609:Generated_Source\PSoC5/Segments.c **** 
 610:Generated_Source\PSoC5/Segments.c **** 
 611:Generated_Source\PSoC5/Segments.c **** /*******************************************************************************
 612:Generated_Source\PSoC5/Segments.c **** * Function Name: Segments_ClearRC
 613:Generated_Source\PSoC5/Segments.c **** ********************************************************************************
 614:Generated_Source\PSoC5/Segments.c **** *
 615:Generated_Source\PSoC5/Segments.c **** * Summary:
 616:Generated_Source\PSoC5/Segments.c **** *  Clears the bit in the display RAM corresponding to the LED in the designated
 617:Generated_Source\PSoC5/Segments.c **** *  row and column.
 618:Generated_Source\PSoC5/Segments.c **** *
 619:Generated_Source\PSoC5/Segments.c **** * Parameters:
 620:Generated_Source\PSoC5/Segments.c **** *  uint8 row: Row value 0 to 23.
 621:Generated_Source\PSoC5/Segments.c **** *  uint8 col: Column between 0 and 7.
 622:Generated_Source\PSoC5/Segments.c **** *
 623:Generated_Source\PSoC5/Segments.c **** * Return:
 624:Generated_Source\PSoC5/Segments.c **** *  None
 625:Generated_Source\PSoC5/Segments.c **** *
ARM GAS  C:\Users\Esteban\AppData\Local\Temp\ccHxlO6N.s 			page 22


 626:Generated_Source\PSoC5/Segments.c **** * Side effects:
 627:Generated_Source\PSoC5/Segments.c **** *  None
 628:Generated_Source\PSoC5/Segments.c **** *
 629:Generated_Source\PSoC5/Segments.c **** *******************************************************************************/
 630:Generated_Source\PSoC5/Segments.c **** void Segments_ClearRC(uint8 row, uint8 column) 
 631:Generated_Source\PSoC5/Segments.c **** {
 555              		.loc 1 631 0
 556              		.cfi_startproc
 557              		@ args = 0, pretend = 0, frame = 0
 558              		@ frame_needed = 0, uses_anonymous_args = 0
 559              		@ link register save eliminated.
 560              	.LVL65:
 632:Generated_Source\PSoC5/Segments.c ****     uint8 rowSeg;
 633:Generated_Source\PSoC5/Segments.c ****     uint8 rowSelect;
 634:Generated_Source\PSoC5/Segments.c ****     
 635:Generated_Source\PSoC5/Segments.c ****     if(column < Segments_NUM_COM)
 561              		.loc 1 635 0
 562 0000 0329     		cmp	r1, #3
 563 0002 0AD8     		bhi	.L48
 636:Generated_Source\PSoC5/Segments.c ****     {
 637:Generated_Source\PSoC5/Segments.c ****         if(row < 8u)
 564              		.loc 1 637 0
 565 0004 0728     		cmp	r0, #7
 566 0006 08D8     		bhi	.L48
 567              	.LVL66:
 638:Generated_Source\PSoC5/Segments.c ****         {
 639:Generated_Source\PSoC5/Segments.c ****             rowSeg = row;
 640:Generated_Source\PSoC5/Segments.c ****             rowSelect = ((uint8)((uint8)0x01u << rowSeg));
 568              		.loc 1 640 0
 569 0008 0123     		movs	r3, #1
 570 000a 03FA00F0 		lsl	r0, r3, r0
 571              	.LVL67:
 572 000e C0B2     		uxtb	r0, r0
 573              	.LVL68:
 641:Generated_Source\PSoC5/Segments.c ****             #if(Segments_SEG_DRIVE == Segments_HIGH)
 642:Generated_Source\PSoC5/Segments.c ****                 Segments_segLBuffer[column] &= ((uint8)(~(uint8)rowSelect));
 574              		.loc 1 642 0
 575 0010 024A     		ldr	r2, .L50
 576 0012 535C     		ldrb	r3, [r2, r1]	@ zero_extendqisi2
 577 0014 23EA0000 		bic	r0, r3, r0
 578              	.LVL69:
 579 0018 5054     		strb	r0, [r2, r1]
 580              	.LVL70:
 581              	.L48:
 582 001a 7047     		bx	lr
 583              	.L51:
 584              		.align	2
 585              	.L50:
 586 001c 00000000 		.word	Segments_segLBuffer
 587              		.cfi_endproc
 588              	.LFE9:
 589              		.size	Segments_ClearRC, .-Segments_ClearRC
 590              		.section	.text.Segments_ToggleRC,"ax",%progbits
 591              		.align	2
 592              		.global	Segments_ToggleRC
 593              		.thumb
 594              		.thumb_func
ARM GAS  C:\Users\Esteban\AppData\Local\Temp\ccHxlO6N.s 			page 23


 595              		.type	Segments_ToggleRC, %function
 596              	Segments_ToggleRC:
 597              	.LFB10:
 643:Generated_Source\PSoC5/Segments.c ****             #else
 644:Generated_Source\PSoC5/Segments.c ****                 Segments_segLBuffer[column] |= rowSelect;
 645:Generated_Source\PSoC5/Segments.c ****             #endif /* Segments_SEG_DRIVE == Segments_HIGH */
 646:Generated_Source\PSoC5/Segments.c ****         }    
 647:Generated_Source\PSoC5/Segments.c ****         else if (row < 16u)
 648:Generated_Source\PSoC5/Segments.c ****         {
 649:Generated_Source\PSoC5/Segments.c ****             #if (Segments_NUM_SEG > 8u) 
 650:Generated_Source\PSoC5/Segments.c ****                 rowSeg = row - 8u;
 651:Generated_Source\PSoC5/Segments.c ****                 rowSelect = ((uint8)((uint8)0x01u << rowSeg));
 652:Generated_Source\PSoC5/Segments.c ****                 #if(Segments_SEG_DRIVE == Segments_HIGH)
 653:Generated_Source\PSoC5/Segments.c ****                     Segments_segMBuffer[column] &= ((uint8)(~(uint8)rowSelect));
 654:Generated_Source\PSoC5/Segments.c ****                 #else
 655:Generated_Source\PSoC5/Segments.c ****                     Segments_segMBuffer[column] |= rowSelect;
 656:Generated_Source\PSoC5/Segments.c ****                 #endif /* Segments_SEG_DRIVE == Segments_HIGH */
 657:Generated_Source\PSoC5/Segments.c ****             #endif /* (Segments_NUM_SEG > 8u) */
 658:Generated_Source\PSoC5/Segments.c ****         }
 659:Generated_Source\PSoC5/Segments.c ****         else
 660:Generated_Source\PSoC5/Segments.c ****         {
 661:Generated_Source\PSoC5/Segments.c ****             #if (Segments_NUM_SEG > 16u)
 662:Generated_Source\PSoC5/Segments.c ****                 rowSeg = row - 16u;
 663:Generated_Source\PSoC5/Segments.c ****                 rowSelect = ((uint8)((uint8)0x01u << rowSeg));
 664:Generated_Source\PSoC5/Segments.c ****                 #if(Segments_SEG_DRIVE == Segments_HIGH)
 665:Generated_Source\PSoC5/Segments.c ****                     Segments_segHBuffer[column] &= ((uint8)(~(uint8)rowSelect));
 666:Generated_Source\PSoC5/Segments.c ****                 #else
 667:Generated_Source\PSoC5/Segments.c ****                     Segments_segHBuffer[column] |= rowSelect;
 668:Generated_Source\PSoC5/Segments.c ****                 #endif /* Segments_SEG_DRIVE == Segments_HIGH */
 669:Generated_Source\PSoC5/Segments.c ****             #endif /* (Segments_NUM_SEG > 16u) */
 670:Generated_Source\PSoC5/Segments.c ****         }
 671:Generated_Source\PSoC5/Segments.c ****     }
 672:Generated_Source\PSoC5/Segments.c **** }
 673:Generated_Source\PSoC5/Segments.c **** 
 674:Generated_Source\PSoC5/Segments.c **** 
 675:Generated_Source\PSoC5/Segments.c **** /*******************************************************************************
 676:Generated_Source\PSoC5/Segments.c **** * Function Name: Segments_ToggleRC
 677:Generated_Source\PSoC5/Segments.c **** ********************************************************************************
 678:Generated_Source\PSoC5/Segments.c **** *
 679:Generated_Source\PSoC5/Segments.c **** * Summary:
 680:Generated_Source\PSoC5/Segments.c **** *  Toggles the bit in the display RAM corresponding to the LED in the designated
 681:Generated_Source\PSoC5/Segments.c **** *  row and column.
 682:Generated_Source\PSoC5/Segments.c **** *
 683:Generated_Source\PSoC5/Segments.c **** * Parameters:
 684:Generated_Source\PSoC5/Segments.c **** *  uint8 row: Row value 0 to 23.
 685:Generated_Source\PSoC5/Segments.c **** *  uint8 col: Column between 0 and 7.
 686:Generated_Source\PSoC5/Segments.c **** *
 687:Generated_Source\PSoC5/Segments.c **** * Return:
 688:Generated_Source\PSoC5/Segments.c **** *  None
 689:Generated_Source\PSoC5/Segments.c **** *
 690:Generated_Source\PSoC5/Segments.c **** * Side effects:
 691:Generated_Source\PSoC5/Segments.c **** *  None
 692:Generated_Source\PSoC5/Segments.c **** *
 693:Generated_Source\PSoC5/Segments.c **** *******************************************************************************/
 694:Generated_Source\PSoC5/Segments.c **** void Segments_ToggleRC(uint8 row, uint8 column) 
 695:Generated_Source\PSoC5/Segments.c **** {
 598              		.loc 1 695 0
ARM GAS  C:\Users\Esteban\AppData\Local\Temp\ccHxlO6N.s 			page 24


 599              		.cfi_startproc
 600              		@ args = 0, pretend = 0, frame = 0
 601              		@ frame_needed = 0, uses_anonymous_args = 0
 602              		@ link register save eliminated.
 603              	.LVL71:
 696:Generated_Source\PSoC5/Segments.c ****     uint8 rowSeg;
 697:Generated_Source\PSoC5/Segments.c ****     
 698:Generated_Source\PSoC5/Segments.c ****     if(column < Segments_NUM_COM)
 604              		.loc 1 698 0
 605 0000 0329     		cmp	r1, #3
 606 0002 08D8     		bhi	.L52
 699:Generated_Source\PSoC5/Segments.c ****     {
 700:Generated_Source\PSoC5/Segments.c ****         if(row < 8u)
 607              		.loc 1 700 0
 608 0004 0728     		cmp	r0, #7
 609 0006 06D8     		bhi	.L52
 610              	.LVL72:
 701:Generated_Source\PSoC5/Segments.c ****         {
 702:Generated_Source\PSoC5/Segments.c ****             rowSeg = row;
 703:Generated_Source\PSoC5/Segments.c ****             Segments_segLBuffer[column] ^= ((uint8)((uint8)0x01u << rowSeg));
 611              		.loc 1 703 0
 612 0008 0123     		movs	r3, #1
 613 000a 03FA00F0 		lsl	r0, r3, r0
 614              	.LVL73:
 615 000e 024B     		ldr	r3, .L54
 616 0010 5A5C     		ldrb	r2, [r3, r1]	@ zero_extendqisi2
 617 0012 5040     		eors	r0, r0, r2
 618 0014 5854     		strb	r0, [r3, r1]
 619              	.LVL74:
 620              	.L52:
 621 0016 7047     		bx	lr
 622              	.L55:
 623              		.align	2
 624              	.L54:
 625 0018 00000000 		.word	Segments_segLBuffer
 626              		.cfi_endproc
 627              	.LFE10:
 628              		.size	Segments_ToggleRC, .-Segments_ToggleRC
 629              		.section	.text.Segments_GetRC,"ax",%progbits
 630              		.align	2
 631              		.global	Segments_GetRC
 632              		.thumb
 633              		.thumb_func
 634              		.type	Segments_GetRC, %function
 635              	Segments_GetRC:
 636              	.LFB11:
 704:Generated_Source\PSoC5/Segments.c ****         }    
 705:Generated_Source\PSoC5/Segments.c ****         else if (row < 16u)
 706:Generated_Source\PSoC5/Segments.c ****         {
 707:Generated_Source\PSoC5/Segments.c ****             #if (Segments_NUM_SEG > 8u)
 708:Generated_Source\PSoC5/Segments.c ****                 rowSeg = row - 8u;
 709:Generated_Source\PSoC5/Segments.c ****                 Segments_segMBuffer[column] ^= ((uint8)((uint8)0x01u << rowSeg));
 710:Generated_Source\PSoC5/Segments.c ****             #endif /* (Segments_NUM_SEG > 8u) */
 711:Generated_Source\PSoC5/Segments.c ****         } 
 712:Generated_Source\PSoC5/Segments.c ****         else
 713:Generated_Source\PSoC5/Segments.c ****         {
 714:Generated_Source\PSoC5/Segments.c ****             #if (Segments_NUM_SEG > 16u)
ARM GAS  C:\Users\Esteban\AppData\Local\Temp\ccHxlO6N.s 			page 25


 715:Generated_Source\PSoC5/Segments.c ****                 rowSeg = row - 16u;
 716:Generated_Source\PSoC5/Segments.c ****                 Segments_segHBuffer[column] ^= ((uint8)((uint8)0x01u << rowSeg));
 717:Generated_Source\PSoC5/Segments.c ****             #endif /* (Segments_NUM_SEG > 16u) */
 718:Generated_Source\PSoC5/Segments.c ****         }
 719:Generated_Source\PSoC5/Segments.c ****     }
 720:Generated_Source\PSoC5/Segments.c **** }
 721:Generated_Source\PSoC5/Segments.c **** 
 722:Generated_Source\PSoC5/Segments.c **** 
 723:Generated_Source\PSoC5/Segments.c **** /*******************************************************************************
 724:Generated_Source\PSoC5/Segments.c **** * Function Name: Segments_GetRC
 725:Generated_Source\PSoC5/Segments.c **** ********************************************************************************
 726:Generated_Source\PSoC5/Segments.c **** *
 727:Generated_Source\PSoC5/Segments.c **** * Summary:
 728:Generated_Source\PSoC5/Segments.c **** *  Returns the bit value in the display RAM corresponding to the LED in the
 729:Generated_Source\PSoC5/Segments.c **** *  designated row and column.
 730:Generated_Source\PSoC5/Segments.c **** *
 731:Generated_Source\PSoC5/Segments.c **** * Parameters:
 732:Generated_Source\PSoC5/Segments.c **** *  uint8 row: Row value 0 to 23.
 733:Generated_Source\PSoC5/Segments.c **** *  uint8 col: Column between 0 and 7.
 734:Generated_Source\PSoC5/Segments.c **** *
 735:Generated_Source\PSoC5/Segments.c **** * Return:
 736:Generated_Source\PSoC5/Segments.c **** *  uint8 - bit value of the display RAM at the corresponding row and column. 
 737:Generated_Source\PSoC5/Segments.c **** *
 738:Generated_Source\PSoC5/Segments.c **** * Side effects:
 739:Generated_Source\PSoC5/Segments.c **** *  None
 740:Generated_Source\PSoC5/Segments.c **** *
 741:Generated_Source\PSoC5/Segments.c **** *******************************************************************************/
 742:Generated_Source\PSoC5/Segments.c **** uint8 Segments_GetRC(uint8 row, uint8 column) 
 743:Generated_Source\PSoC5/Segments.c **** {
 637              		.loc 1 743 0
 638              		.cfi_startproc
 639              		@ args = 0, pretend = 0, frame = 0
 640              		@ frame_needed = 0, uses_anonymous_args = 0
 641              		@ link register save eliminated.
 642              	.LVL75:
 744:Generated_Source\PSoC5/Segments.c ****     uint8 valueRC = 0u;
 745:Generated_Source\PSoC5/Segments.c ****     uint8 rowSeg;
 746:Generated_Source\PSoC5/Segments.c ****     uint8 rowSegSelect = 0u;
 747:Generated_Source\PSoC5/Segments.c ****     
 748:Generated_Source\PSoC5/Segments.c ****     if(column < Segments_NUM_COM)
 643              		.loc 1 748 0
 644 0000 0329     		cmp	r1, #3
 645 0002 0BD8     		bhi	.L59
 749:Generated_Source\PSoC5/Segments.c ****     {
 750:Generated_Source\PSoC5/Segments.c ****         if(row < 8u)
 646              		.loc 1 750 0
 647 0004 0728     		cmp	r0, #7
 648 0006 05D8     		bhi	.L60
 649              	.LVL76:
 751:Generated_Source\PSoC5/Segments.c ****         {
 752:Generated_Source\PSoC5/Segments.c ****             rowSeg = row;
 753:Generated_Source\PSoC5/Segments.c ****             rowSegSelect = (uint8)((uint8)Segments_segLBuffer[column] >> rowSeg);
 650              		.loc 1 753 0
 651 0008 054B     		ldr	r3, .L61
 652 000a 5B5C     		ldrb	r3, [r3, r1]	@ zero_extendqisi2
 653 000c 43FA00F0 		asr	r0, r3, r0
 654              	.LVL77:
ARM GAS  C:\Users\Esteban\AppData\Local\Temp\ccHxlO6N.s 			page 26


 655 0010 C0B2     		uxtb	r0, r0
 656              	.LVL78:
 657 0012 00E0     		b	.L58
 658              	.LVL79:
 659              	.L60:
 746:Generated_Source\PSoC5/Segments.c ****     
 660              		.loc 1 746 0
 661 0014 0020     		movs	r0, #0
 662              	.LVL80:
 663              	.L58:
 754:Generated_Source\PSoC5/Segments.c ****         }    
 755:Generated_Source\PSoC5/Segments.c ****         else if (row < 16u)
 756:Generated_Source\PSoC5/Segments.c ****         {
 757:Generated_Source\PSoC5/Segments.c ****             #if (Segments_NUM_SEG > 8u) 
 758:Generated_Source\PSoC5/Segments.c ****                 rowSeg = row - 8u;
 759:Generated_Source\PSoC5/Segments.c ****                 rowSegSelect = (uint8)((uint8)Segments_segMBuffer[column] >> rowSeg);
 760:Generated_Source\PSoC5/Segments.c ****             #endif /* (Segments_NUM_SEG > 8u) */
 761:Generated_Source\PSoC5/Segments.c ****         }
 762:Generated_Source\PSoC5/Segments.c ****         else
 763:Generated_Source\PSoC5/Segments.c ****         {
 764:Generated_Source\PSoC5/Segments.c ****             #if (Segments_NUM_SEG > 16u)
 765:Generated_Source\PSoC5/Segments.c ****                 rowSeg = row - 16u;
 766:Generated_Source\PSoC5/Segments.c ****                 rowSegSelect = (uint8)((uint8)Segments_segHBuffer[column] >> rowSeg);
 767:Generated_Source\PSoC5/Segments.c ****             #endif /* (Segments_NUM_SEG > 16u) */
 768:Generated_Source\PSoC5/Segments.c ****         }
 769:Generated_Source\PSoC5/Segments.c ****         
 770:Generated_Source\PSoC5/Segments.c ****         #if(Segments_SEG_DRIVE == Segments_HIGH)
 771:Generated_Source\PSoC5/Segments.c ****             valueRC = (uint8)((uint8)rowSegSelect & 0x01u);
 664              		.loc 1 771 0
 665 0016 00F00100 		and	r0, r0, #1
 666              	.LVL81:
 667 001a 7047     		bx	lr
 668              	.LVL82:
 669              	.L59:
 744:Generated_Source\PSoC5/Segments.c ****     uint8 rowSeg;
 670              		.loc 1 744 0
 671 001c 0020     		movs	r0, #0
 672              	.LVL83:
 772:Generated_Source\PSoC5/Segments.c ****         #else
 773:Generated_Source\PSoC5/Segments.c ****             valueRC = (uint8)((uint8)((uint8)~rowSegSelect) & 0x01u);
 774:Generated_Source\PSoC5/Segments.c ****         #endif /* Segments_SEG_DRIVE == Segments_HIGH */
 775:Generated_Source\PSoC5/Segments.c ****     }
 776:Generated_Source\PSoC5/Segments.c ****     
 777:Generated_Source\PSoC5/Segments.c ****     return(valueRC);
 778:Generated_Source\PSoC5/Segments.c **** }
 673              		.loc 1 778 0
 674 001e 7047     		bx	lr
 675              	.L62:
 676              		.align	2
 677              	.L61:
 678 0020 00000000 		.word	Segments_segLBuffer
 679              		.cfi_endproc
 680              	.LFE11:
 681              		.size	Segments_GetRC, .-Segments_GetRC
 682              		.section	.text.Segments_ClearDisplay,"ax",%progbits
 683              		.align	2
 684              		.global	Segments_ClearDisplay
ARM GAS  C:\Users\Esteban\AppData\Local\Temp\ccHxlO6N.s 			page 27


 685              		.thumb
 686              		.thumb_func
 687              		.type	Segments_ClearDisplay, %function
 688              	Segments_ClearDisplay:
 689              	.LFB12:
 779:Generated_Source\PSoC5/Segments.c **** 
 780:Generated_Source\PSoC5/Segments.c **** 
 781:Generated_Source\PSoC5/Segments.c **** /*******************************************************************************
 782:Generated_Source\PSoC5/Segments.c **** * Function Name: Segments_ClearDisplay
 783:Generated_Source\PSoC5/Segments.c **** ********************************************************************************
 784:Generated_Source\PSoC5/Segments.c **** *
 785:Generated_Source\PSoC5/Segments.c **** * Summary:
 786:Generated_Source\PSoC5/Segments.c **** *  Clears the display (disables all the LEDs) for the associated position by
 787:Generated_Source\PSoC5/Segments.c **** *  setting the display RAM to zero.
 788:Generated_Source\PSoC5/Segments.c **** *
 789:Generated_Source\PSoC5/Segments.c **** * Parameters:
 790:Generated_Source\PSoC5/Segments.c **** *  uint8 position: The digit position to clear.
 791:Generated_Source\PSoC5/Segments.c **** *
 792:Generated_Source\PSoC5/Segments.c **** * Return:
 793:Generated_Source\PSoC5/Segments.c **** *  None
 794:Generated_Source\PSoC5/Segments.c **** *
 795:Generated_Source\PSoC5/Segments.c **** * Side effects:
 796:Generated_Source\PSoC5/Segments.c **** *  None
 797:Generated_Source\PSoC5/Segments.c **** *
 798:Generated_Source\PSoC5/Segments.c **** *******************************************************************************/
 799:Generated_Source\PSoC5/Segments.c **** void Segments_ClearDisplay(uint8 position) 
 800:Generated_Source\PSoC5/Segments.c **** {  
 690              		.loc 1 800 0
 691              		.cfi_startproc
 692              		@ args = 0, pretend = 0, frame = 0
 693              		@ frame_needed = 0, uses_anonymous_args = 0
 694              		@ link register save eliminated.
 695              	.LVL84:
 801:Generated_Source\PSoC5/Segments.c ****     uint8 relPosition;
 802:Generated_Source\PSoC5/Segments.c ****     
 803:Generated_Source\PSoC5/Segments.c ****     if(position < Segments_NUM_COM)
 696              		.loc 1 803 0
 697 0000 0328     		cmp	r0, #3
 698 0002 02D8     		bhi	.L63
 699              	.LVL85:
 804:Generated_Source\PSoC5/Segments.c ****     {
 805:Generated_Source\PSoC5/Segments.c ****         relPosition = position;
 806:Generated_Source\PSoC5/Segments.c ****         Segments_segLBuffer[relPosition] = Segments_CLEAR;
 700              		.loc 1 806 0
 701 0004 0022     		movs	r2, #0
 702 0006 014B     		ldr	r3, .L65
 703 0008 1A54     		strb	r2, [r3, r0]
 704              	.LVL86:
 705              	.L63:
 706 000a 7047     		bx	lr
 707              	.L66:
 708              		.align	2
 709              	.L65:
 710 000c 00000000 		.word	Segments_segLBuffer
 711              		.cfi_endproc
 712              	.LFE12:
 713              		.size	Segments_ClearDisplay, .-Segments_ClearDisplay
ARM GAS  C:\Users\Esteban\AppData\Local\Temp\ccHxlO6N.s 			page 28


 714              		.section	.text.Segments_ClearDisplayAll,"ax",%progbits
 715              		.align	2
 716              		.global	Segments_ClearDisplayAll
 717              		.thumb
 718              		.thumb_func
 719              		.type	Segments_ClearDisplayAll, %function
 720              	Segments_ClearDisplayAll:
 721              	.LFB13:
 807:Generated_Source\PSoC5/Segments.c ****     }    
 808:Generated_Source\PSoC5/Segments.c ****     else if (position < Segments_TWO_NUM_COM)
 809:Generated_Source\PSoC5/Segments.c ****     {
 810:Generated_Source\PSoC5/Segments.c ****         #if (Segments_NUM_SEG > 8u)
 811:Generated_Source\PSoC5/Segments.c ****             relPosition = position - Segments_NUM_COM;
 812:Generated_Source\PSoC5/Segments.c ****             Segments_segMBuffer[relPosition] = Segments_CLEAR;
 813:Generated_Source\PSoC5/Segments.c ****         #endif /* (Segments_NUM_SEG > 8u) */
 814:Generated_Source\PSoC5/Segments.c ****     }
 815:Generated_Source\PSoC5/Segments.c ****     else
 816:Generated_Source\PSoC5/Segments.c ****     {
 817:Generated_Source\PSoC5/Segments.c ****         #if (Segments_NUM_SEG > 16u)
 818:Generated_Source\PSoC5/Segments.c ****             relPosition = position - Segments_TWO_NUM_COM;
 819:Generated_Source\PSoC5/Segments.c ****             if(relPosition < Segments_NUM_COM)
 820:Generated_Source\PSoC5/Segments.c ****             {
 821:Generated_Source\PSoC5/Segments.c ****                 Segments_segHBuffer[relPosition] = Segments_CLEAR;
 822:Generated_Source\PSoC5/Segments.c ****             }
 823:Generated_Source\PSoC5/Segments.c ****         #endif /* (Segments_NUM_SEG > 16u) */
 824:Generated_Source\PSoC5/Segments.c ****     }
 825:Generated_Source\PSoC5/Segments.c **** }
 826:Generated_Source\PSoC5/Segments.c **** 
 827:Generated_Source\PSoC5/Segments.c **** 
 828:Generated_Source\PSoC5/Segments.c **** /*******************************************************************************
 829:Generated_Source\PSoC5/Segments.c **** * Function Name: Segments_ClearDisplayAll
 830:Generated_Source\PSoC5/Segments.c **** ********************************************************************************
 831:Generated_Source\PSoC5/Segments.c **** *
 832:Generated_Source\PSoC5/Segments.c **** * Summary:
 833:Generated_Source\PSoC5/Segments.c **** *  Clears the entire display by writing zeros to all the display RAM locations.
 834:Generated_Source\PSoC5/Segments.c **** *
 835:Generated_Source\PSoC5/Segments.c **** * Parameters:
 836:Generated_Source\PSoC5/Segments.c **** *  None
 837:Generated_Source\PSoC5/Segments.c **** *
 838:Generated_Source\PSoC5/Segments.c **** * Return:
 839:Generated_Source\PSoC5/Segments.c **** *  None
 840:Generated_Source\PSoC5/Segments.c **** *
 841:Generated_Source\PSoC5/Segments.c **** * Side effects:
 842:Generated_Source\PSoC5/Segments.c **** *  None
 843:Generated_Source\PSoC5/Segments.c **** *
 844:Generated_Source\PSoC5/Segments.c **** *******************************************************************************/
 845:Generated_Source\PSoC5/Segments.c **** void Segments_ClearDisplayAll(void) 
 846:Generated_Source\PSoC5/Segments.c **** {
 722              		.loc 1 846 0
 723              		.cfi_startproc
 724              		@ args = 0, pretend = 0, frame = 0
 725              		@ frame_needed = 0, uses_anonymous_args = 0
 726              		@ link register save eliminated.
 727              	.LVL87:
 847:Generated_Source\PSoC5/Segments.c ****     uint8 position;
 848:Generated_Source\PSoC5/Segments.c ****     
 849:Generated_Source\PSoC5/Segments.c ****     for(position = 0u; position < Segments_NUM_COM; position++)
ARM GAS  C:\Users\Esteban\AppData\Local\Temp\ccHxlO6N.s 			page 29


 728              		.loc 1 849 0
 729 0000 0023     		movs	r3, #0
 730 0002 04E0     		b	.L68
 731              	.LVL88:
 732              	.L69:
 850:Generated_Source\PSoC5/Segments.c ****     {
 851:Generated_Source\PSoC5/Segments.c ****         Segments_segLBuffer[position] = Segments_CLEAR; 
 733              		.loc 1 851 0 discriminator 3
 734 0004 0021     		movs	r1, #0
 735 0006 034A     		ldr	r2, .L70
 736 0008 D154     		strb	r1, [r2, r3]
 849:Generated_Source\PSoC5/Segments.c ****     {
 737              		.loc 1 849 0 discriminator 3
 738 000a 0133     		adds	r3, r3, #1
 739              	.LVL89:
 740 000c DBB2     		uxtb	r3, r3
 741              	.LVL90:
 742              	.L68:
 849:Generated_Source\PSoC5/Segments.c ****     {
 743              		.loc 1 849 0 is_stmt 0 discriminator 1
 744 000e 032B     		cmp	r3, #3
 745 0010 F8D9     		bls	.L69
 852:Generated_Source\PSoC5/Segments.c ****         
 853:Generated_Source\PSoC5/Segments.c ****         #if (Segments_NUM_SEG > 8u) 
 854:Generated_Source\PSoC5/Segments.c ****             Segments_segMBuffer[position] = Segments_CLEAR;
 855:Generated_Source\PSoC5/Segments.c ****         #endif /* (Segments_NUM_SEG > 8u) */
 856:Generated_Source\PSoC5/Segments.c ****         
 857:Generated_Source\PSoC5/Segments.c ****         #if (Segments_NUM_SEG > 16u)
 858:Generated_Source\PSoC5/Segments.c ****             Segments_segHBuffer[position] = Segments_CLEAR;
 859:Generated_Source\PSoC5/Segments.c ****         #endif /* (Segments_NUM_SEG > 16u) */
 860:Generated_Source\PSoC5/Segments.c ****     }
 861:Generated_Source\PSoC5/Segments.c **** }
 746              		.loc 1 861 0 is_stmt 1
 747 0012 7047     		bx	lr
 748              	.L71:
 749              		.align	2
 750              	.L70:
 751 0014 00000000 		.word	Segments_segLBuffer
 752              		.cfi_endproc
 753              	.LFE13:
 754              		.size	Segments_ClearDisplayAll, .-Segments_ClearDisplayAll
 755              		.section	.text.Segments_Init,"ax",%progbits
 756              		.align	2
 757              		.global	Segments_Init
 758              		.thumb
 759              		.thumb_func
 760              		.type	Segments_Init, %function
 761              	Segments_Init:
 762              	.LFB3:
 363:Generated_Source\PSoC5/Segments.c ****     static uint8 Segments_dmaInitDone = 0u;
 763              		.loc 1 363 0
 764              		.cfi_startproc
 765              		@ args = 0, pretend = 0, frame = 0
 766              		@ frame_needed = 0, uses_anonymous_args = 0
 767 0000 08B5     		push	{r3, lr}
 768              		.cfi_def_cfa_offset 8
 769              		.cfi_offset 3, -8
ARM GAS  C:\Users\Esteban\AppData\Local\Temp\ccHxlO6N.s 			page 30


 770              		.cfi_offset 14, -4
 370:Generated_Source\PSoC5/Segments.c ****     
 771              		.loc 1 370 0
 772 0002 FFF7FEFF 		bl	Segments_ClearDisplayAll
 773              	.LVL91:
 373:Generated_Source\PSoC5/Segments.c ****     {
 774              		.loc 1 373 0
 775 0006 094B     		ldr	r3, .L77
 776 0008 5B7F     		ldrb	r3, [r3, #29]	@ zero_extendqisi2
 777 000a 23B9     		cbnz	r3, .L73
 375:Generated_Source\PSoC5/Segments.c ****         Segments_dmaInitDone = 1u;
 778              		.loc 1 375 0
 779 000c FFF7FEFF 		bl	Segments_DmaInit
 780              	.LVL92:
 376:Generated_Source\PSoC5/Segments.c ****     }
 781              		.loc 1 376 0
 782 0010 0122     		movs	r2, #1
 783 0012 064B     		ldr	r3, .L77
 784 0014 5A77     		strb	r2, [r3, #29]
 785              	.L73:
 363:Generated_Source\PSoC5/Segments.c ****     static uint8 Segments_dmaInitDone = 0u;
 786              		.loc 1 363 0 discriminator 1
 787 0016 0023     		movs	r3, #0
 788 0018 05E0     		b	.L74
 789              	.LVL93:
 790              	.L75:
 383:Generated_Source\PSoC5/Segments.c ****         }
 791              		.loc 1 383 0 discriminator 3
 792 001a 044A     		ldr	r2, .L77
 793 001c 1A44     		add	r2, r2, r3
 794 001e FF21     		movs	r1, #255
 795 0020 1176     		strb	r1, [r2, #24]
 381:Generated_Source\PSoC5/Segments.c ****         {
 796              		.loc 1 381 0 discriminator 3
 797 0022 0133     		adds	r3, r3, #1
 798              	.LVL94:
 799 0024 DBB2     		uxtb	r3, r3
 800              	.LVL95:
 801              	.L74:
 381:Generated_Source\PSoC5/Segments.c ****         {
 802              		.loc 1 381 0 is_stmt 0 discriminator 1
 803 0026 032B     		cmp	r3, #3
 804 0028 F7D9     		bls	.L75
 386:Generated_Source\PSoC5/Segments.c **** 
 805              		.loc 1 386 0 is_stmt 1
 806 002a 08BD     		pop	{r3, pc}
 807              	.LVL96:
 808              	.L78:
 809              		.align	2
 810              	.L77:
 811 002c 00000000 		.word	.LANCHOR0
 812              		.cfi_endproc
 813              	.LFE3:
 814              		.size	Segments_Init, .-Segments_Init
 815              		.section	.text.Segments_Start,"ax",%progbits
 816              		.align	2
 817              		.global	Segments_Start
ARM GAS  C:\Users\Esteban\AppData\Local\Temp\ccHxlO6N.s 			page 31


 818              		.thumb
 819              		.thumb_func
 820              		.type	Segments_Start, %function
 821              	Segments_Start:
 822              	.LFB5:
 445:Generated_Source\PSoC5/Segments.c ****     if(0u == Segments_initVar)
 823              		.loc 1 445 0
 824              		.cfi_startproc
 825              		@ args = 0, pretend = 0, frame = 0
 826              		@ frame_needed = 0, uses_anonymous_args = 0
 827 0000 08B5     		push	{r3, lr}
 828              		.cfi_def_cfa_offset 8
 829              		.cfi_offset 3, -8
 830              		.cfi_offset 14, -4
 446:Generated_Source\PSoC5/Segments.c ****     {
 831              		.loc 1 446 0
 832 0002 054B     		ldr	r3, .L82
 833 0004 9B7F     		ldrb	r3, [r3, #30]	@ zero_extendqisi2
 834 0006 23B9     		cbnz	r3, .L80
 448:Generated_Source\PSoC5/Segments.c ****         Segments_initVar = 1u;
 835              		.loc 1 448 0
 836 0008 FFF7FEFF 		bl	Segments_Init
 837              	.LVL97:
 449:Generated_Source\PSoC5/Segments.c ****     }
 838              		.loc 1 449 0
 839 000c 0122     		movs	r2, #1
 840 000e 024B     		ldr	r3, .L82
 841 0010 9A77     		strb	r2, [r3, #30]
 842              	.L80:
 452:Generated_Source\PSoC5/Segments.c **** }
 843              		.loc 1 452 0
 844 0012 FFF7FEFF 		bl	Segments_Enable
 845              	.LVL98:
 846 0016 08BD     		pop	{r3, pc}
 847              	.L83:
 848              		.align	2
 849              	.L82:
 850 0018 00000000 		.word	.LANCHOR0
 851              		.cfi_endproc
 852              	.LFE5:
 853              		.size	Segments_Start, .-Segments_Start
 854              		.section	.text.Segments_Stop,"ax",%progbits
 855              		.align	2
 856              		.global	Segments_Stop
 857              		.thumb
 858              		.thumb_func
 859              		.type	Segments_Stop, %function
 860              	Segments_Stop:
 861              	.LFB6:
 475:Generated_Source\PSoC5/Segments.c ****     #if (Segments_BRIGHTNESS_EN == Segments_ENABLED)
 862              		.loc 1 475 0
 863              		.cfi_startproc
 864              		@ args = 0, pretend = 0, frame = 0
 865              		@ frame_needed = 0, uses_anonymous_args = 0
 866 0000 10B5     		push	{r4, lr}
 867              		.cfi_def_cfa_offset 8
 868              		.cfi_offset 4, -8
ARM GAS  C:\Users\Esteban\AppData\Local\Temp\ccHxlO6N.s 			page 32


 869              		.cfi_offset 14, -4
 478:Generated_Source\PSoC5/Segments.c ****     #endif /* (Segments_BRIGHTNESS_EN == Segments_ENABLED) */
 870              		.loc 1 478 0
 871 0002 0024     		movs	r4, #0
 872 0004 044B     		ldr	r3, .L86
 873 0006 1C70     		strb	r4, [r3]
 481:Generated_Source\PSoC5/Segments.c ****     Segments_ClearDisplayAll();
 874              		.loc 1 481 0
 875 0008 FFF7FEFF 		bl	Segments_DmaDisable
 876              	.LVL99:
 482:Generated_Source\PSoC5/Segments.c ****     
 877              		.loc 1 482 0
 878 000c FFF7FEFF 		bl	Segments_ClearDisplayAll
 879              	.LVL100:
 484:Generated_Source\PSoC5/Segments.c **** }
 880              		.loc 1 484 0
 881 0010 024B     		ldr	r3, .L86+4
 882 0012 1C77     		strb	r4, [r3, #28]
 883 0014 10BD     		pop	{r4, pc}
 884              	.L87:
 885 0016 00BF     		.align	2
 886              	.L86:
 887 0018 74650040 		.word	1073767796
 888 001c 00000000 		.word	.LANCHOR0
 889              		.cfi_endproc
 890              	.LFE6:
 891              		.size	Segments_Stop, .-Segments_Stop
 892              		.section	.text.Segments_PutDecimalPoint,"ax",%progbits
 893              		.align	2
 894              		.global	Segments_PutDecimalPoint
 895              		.thumb
 896              		.thumb_func
 897              		.type	Segments_PutDecimalPoint, %function
 898              	Segments_PutDecimalPoint:
 899              	.LFB32:
 862:Generated_Source\PSoC5/Segments.c **** 
 863:Generated_Source\PSoC5/Segments.c **** 
 864:Generated_Source\PSoC5/Segments.c **** /*******************************************************************************
 865:Generated_Source\PSoC5/Segments.c **** * Function Name: Segments_Write7SegNumberDec
 866:Generated_Source\PSoC5/Segments.c **** ********************************************************************************
 867:Generated_Source\PSoC5/Segments.c **** *
 868:Generated_Source\PSoC5/Segments.c **** * Summary:
 869:Generated_Source\PSoC5/Segments.c **** *  Displays a signed integer up to 8 characters long, starting at 'position' 
 870:Generated_Source\PSoC5/Segments.c **** *  and extending for 'digits' characters. The negative sign will consume one 
 871:Generated_Source\PSoC5/Segments.c **** *  digit if it is required. If you do not use the correct number of digits for
 872:Generated_Source\PSoC5/Segments.c **** *  your number, the least significant digits will be displayed. For example, 
 873:Generated_Source\PSoC5/Segments.c **** *  if value is -1234, display is 0 and digits is 4, the result will be: -234.
 874:Generated_Source\PSoC5/Segments.c **** *
 875:Generated_Source\PSoC5/Segments.c **** * Parameters:
 876:Generated_Source\PSoC5/Segments.c **** *  int32 number: a signed integer number to display. It is the responsibility 
 877:Generated_Source\PSoC5/Segments.c **** *                of the user to ensure that the display has enough digits to 
 878:Generated_Source\PSoC5/Segments.c **** *                accurately represent the number passed to this function. If 
 879:Generated_Source\PSoC5/Segments.c **** *                not, the least significant digits will be displayed. Also note
 880:Generated_Source\PSoC5/Segments.c **** *                that a negative number will require 1 more digit than the
 881:Generated_Source\PSoC5/Segments.c **** *                equivalent positive number to display the negative sign.
 882:Generated_Source\PSoC5/Segments.c **** *  uint8 position: Digit position of the Display/Common RAM to start.
 883:Generated_Source\PSoC5/Segments.c **** *  uint8 digits: The number of digits you wish to use to display the value 
ARM GAS  C:\Users\Esteban\AppData\Local\Temp\ccHxlO6N.s 			page 33


 884:Generated_Source\PSoC5/Segments.c **** *                passed into the function. The negative sign will consume one 
 885:Generated_Source\PSoC5/Segments.c **** *                digit if it is required.
 886:Generated_Source\PSoC5/Segments.c **** *  uint8 alignment: How to align the provided number in the allocated digits.
 887:Generated_Source\PSoC5/Segments.c **** *       RIGHT_ALIGN - Least significant digit occupies the rightmost digit
 888:Generated_Source\PSoC5/Segments.c **** *                     (position + digits). Unused digits are turned off unless
 889:Generated_Source\PSoC5/Segments.c **** *                     ZERO_PAD enabled.
 890:Generated_Source\PSoC5/Segments.c **** *       LEFT_ALIGN - Most significant digit (or negative sign) occupies the
 891:Generated_Source\PSoC5/Segments.c **** *                    digit specified by position. Unused digits are turned off.
 892:Generated_Source\PSoC5/Segments.c **** *       ZERO_PAD - Unused digits to the left are padded with leading zeros.
 893:Generated_Source\PSoC5/Segments.c **** *
 894:Generated_Source\PSoC5/Segments.c **** * Return:
 895:Generated_Source\PSoC5/Segments.c **** *  None
 896:Generated_Source\PSoC5/Segments.c **** *
 897:Generated_Source\PSoC5/Segments.c **** * Side effects:
 898:Generated_Source\PSoC5/Segments.c **** *  None
 899:Generated_Source\PSoC5/Segments.c **** *
 900:Generated_Source\PSoC5/Segments.c **** *******************************************************************************/
 901:Generated_Source\PSoC5/Segments.c **** void Segments_Write7SegNumberDec(int32 number, uint8 position, uint8 digits, uint8 alignment)
 902:Generated_Source\PSoC5/Segments.c **** 
 903:Generated_Source\PSoC5/Segments.c **** {
 904:Generated_Source\PSoC5/Segments.c ****     uint8 i;
 905:Generated_Source\PSoC5/Segments.c ****     uint8 relPosition;
 906:Generated_Source\PSoC5/Segments.c ****     uint8 choiceReg;
 907:Generated_Source\PSoC5/Segments.c ****     uint8 numberSign;
 908:Generated_Source\PSoC5/Segments.c ****     uint8 selectVal;
 909:Generated_Source\PSoC5/Segments.c ****     uint8 zeroCount = 0u;
 910:Generated_Source\PSoC5/Segments.c ****     uint8 bufArray[8u] = {0u};
 911:Generated_Source\PSoC5/Segments.c ****     uint32 numberVal;
 912:Generated_Source\PSoC5/Segments.c ****         
 913:Generated_Source\PSoC5/Segments.c ****     /* Choose to use either the low, mid or high control registers */
 914:Generated_Source\PSoC5/Segments.c ****     if(position < Segments_NUM_COM)
 915:Generated_Source\PSoC5/Segments.c ****     {
 916:Generated_Source\PSoC5/Segments.c ****         choiceReg = Segments_SEG_REG_LOW;
 917:Generated_Source\PSoC5/Segments.c ****         relPosition = position;
 918:Generated_Source\PSoC5/Segments.c ****     }
 919:Generated_Source\PSoC5/Segments.c ****     else if (position < Segments_TWO_NUM_COM)
 920:Generated_Source\PSoC5/Segments.c ****     {
 921:Generated_Source\PSoC5/Segments.c ****         choiceReg = Segments_SEG_REG_MID;
 922:Generated_Source\PSoC5/Segments.c ****         relPosition = position - Segments_NUM_COM;
 923:Generated_Source\PSoC5/Segments.c ****     }
 924:Generated_Source\PSoC5/Segments.c ****     else
 925:Generated_Source\PSoC5/Segments.c ****     {
 926:Generated_Source\PSoC5/Segments.c ****         choiceReg = Segments_SEG_REG_HIGH;
 927:Generated_Source\PSoC5/Segments.c ****         relPosition = position - Segments_TWO_NUM_COM;
 928:Generated_Source\PSoC5/Segments.c ****     }
 929:Generated_Source\PSoC5/Segments.c ****     
 930:Generated_Source\PSoC5/Segments.c ****     /* Routine to extract the sign and to convert to unsigned */
 931:Generated_Source\PSoC5/Segments.c ****     if(number >= Segments_ZERO_NEG)
 932:Generated_Source\PSoC5/Segments.c ****     {
 933:Generated_Source\PSoC5/Segments.c ****         numberVal = (uint32)number;
 934:Generated_Source\PSoC5/Segments.c ****         numberSign = Segments_UNSIGNED;
 935:Generated_Source\PSoC5/Segments.c ****     }
 936:Generated_Source\PSoC5/Segments.c ****     else
 937:Generated_Source\PSoC5/Segments.c ****     {
 938:Generated_Source\PSoC5/Segments.c ****         numberVal = (uint32)(-number);
 939:Generated_Source\PSoC5/Segments.c ****         numberSign = Segments_SIGNED;
 940:Generated_Source\PSoC5/Segments.c ****     }
ARM GAS  C:\Users\Esteban\AppData\Local\Temp\ccHxlO6N.s 			page 34


 941:Generated_Source\PSoC5/Segments.c ****     
 942:Generated_Source\PSoC5/Segments.c ****     /* Fill up the temporary array */
 943:Generated_Source\PSoC5/Segments.c ****     for(i = digits; i > 0u; i--)
 944:Generated_Source\PSoC5/Segments.c ****     {
 945:Generated_Source\PSoC5/Segments.c ****         selectVal = (uint8)(numberVal % 10u);
 946:Generated_Source\PSoC5/Segments.c ****         bufArray[i-1u] = Segments_EncodeNumber7Seg(selectVal);
 947:Generated_Source\PSoC5/Segments.c ****         numberVal = numberVal / 10u;
 948:Generated_Source\PSoC5/Segments.c ****     }
 949:Generated_Source\PSoC5/Segments.c ****     
 950:Generated_Source\PSoC5/Segments.c ****     /* Clean up the array and place sign if needed */
 951:Generated_Source\PSoC5/Segments.c ****     if(alignment == Segments_ZERO_PAD)
 952:Generated_Source\PSoC5/Segments.c ****     {
 953:Generated_Source\PSoC5/Segments.c ****         if(numberSign == Segments_SIGNED)
 954:Generated_Source\PSoC5/Segments.c ****         {
 955:Generated_Source\PSoC5/Segments.c ****             /* Place sign on the MSB */
 956:Generated_Source\PSoC5/Segments.c ****             bufArray[0u] = Segments_EncodeChar7Seg('-');
 957:Generated_Source\PSoC5/Segments.c ****         }
 958:Generated_Source\PSoC5/Segments.c ****     }
 959:Generated_Source\PSoC5/Segments.c ****     else
 960:Generated_Source\PSoC5/Segments.c ****     {
 961:Generated_Source\PSoC5/Segments.c ****         for(i = 0u; i < digits; i++)
 962:Generated_Source\PSoC5/Segments.c ****         {
 963:Generated_Source\PSoC5/Segments.c ****             if (bufArray[i] != Segments_ZERO_7CHAR)
 964:Generated_Source\PSoC5/Segments.c ****             {
 965:Generated_Source\PSoC5/Segments.c ****                 if(numberSign == Segments_SIGNED)
 966:Generated_Source\PSoC5/Segments.c ****                 {
 967:Generated_Source\PSoC5/Segments.c ****                     if(i == 0u)
 968:Generated_Source\PSoC5/Segments.c ****                     {
 969:Generated_Source\PSoC5/Segments.c ****                         /* Place sign on the MSB */
 970:Generated_Source\PSoC5/Segments.c ****                         bufArray[i] = Segments_EncodeChar7Seg('-');
 971:Generated_Source\PSoC5/Segments.c ****                     }
 972:Generated_Source\PSoC5/Segments.c ****                     else
 973:Generated_Source\PSoC5/Segments.c ****                     {
 974:Generated_Source\PSoC5/Segments.c ****                         /* Place sign before MSB */
 975:Generated_Source\PSoC5/Segments.c ****                         bufArray[i-1u] = Segments_EncodeChar7Seg('-');
 976:Generated_Source\PSoC5/Segments.c ****                     }
 977:Generated_Source\PSoC5/Segments.c ****                 }
 978:Generated_Source\PSoC5/Segments.c ****                 /* Exit when encountering non-zero number */
 979:Generated_Source\PSoC5/Segments.c ****                 break;
 980:Generated_Source\PSoC5/Segments.c ****             }
 981:Generated_Source\PSoC5/Segments.c ****             else
 982:Generated_Source\PSoC5/Segments.c ****             {
 983:Generated_Source\PSoC5/Segments.c ****                 if(zeroCount != (digits - 1u))
 984:Generated_Source\PSoC5/Segments.c ****                 {
 985:Generated_Source\PSoC5/Segments.c ****                     /* Turn off the display */
 986:Generated_Source\PSoC5/Segments.c ****                     bufArray[i] = Segments_CLEAR;
 987:Generated_Source\PSoC5/Segments.c ****                     zeroCount++;
 988:Generated_Source\PSoC5/Segments.c ****                 }
 989:Generated_Source\PSoC5/Segments.c ****             }    
 990:Generated_Source\PSoC5/Segments.c ****         }
 991:Generated_Source\PSoC5/Segments.c ****     }
 992:Generated_Source\PSoC5/Segments.c ****     
 993:Generated_Source\PSoC5/Segments.c ****     /* Place the values in the segment array according to alignment */
 994:Generated_Source\PSoC5/Segments.c ****     if(alignment == Segments_LEFT_ALIGN)
 995:Generated_Source\PSoC5/Segments.c ****     {
 996:Generated_Source\PSoC5/Segments.c ****         for(i = 0u; i < digits; i++)
 997:Generated_Source\PSoC5/Segments.c ****         {
ARM GAS  C:\Users\Esteban\AppData\Local\Temp\ccHxlO6N.s 			page 35


 998:Generated_Source\PSoC5/Segments.c ****             if(bufArray[i] != Segments_CLEAR)
 999:Generated_Source\PSoC5/Segments.c ****             {
1000:Generated_Source\PSoC5/Segments.c ****                 if(relPosition < Segments_NUM_COM)
1001:Generated_Source\PSoC5/Segments.c ****                 {
1002:Generated_Source\PSoC5/Segments.c ****                     /* Only show displays that are not empty */
1003:Generated_Source\PSoC5/Segments.c ****                     switch(choiceReg)
1004:Generated_Source\PSoC5/Segments.c ****                     {
1005:Generated_Source\PSoC5/Segments.c ****                         case Segments_SEG_REG_LOW :
1006:Generated_Source\PSoC5/Segments.c ****                             Segments_segLBuffer[relPosition] = bufArray[i];
1007:Generated_Source\PSoC5/Segments.c ****                             break;
1008:Generated_Source\PSoC5/Segments.c ****                         case Segments_SEG_REG_MID :
1009:Generated_Source\PSoC5/Segments.c ****                             #if (Segments_NUM_SEG > 8u)
1010:Generated_Source\PSoC5/Segments.c ****                                 Segments_segMBuffer[relPosition] = bufArray[i];
1011:Generated_Source\PSoC5/Segments.c ****                             #endif /* (Segments_NUM_SEG > 8u) */
1012:Generated_Source\PSoC5/Segments.c ****                             break;
1013:Generated_Source\PSoC5/Segments.c ****                         case Segments_SEG_REG_HIGH :
1014:Generated_Source\PSoC5/Segments.c ****                             #if (Segments_NUM_SEG > 16u)
1015:Generated_Source\PSoC5/Segments.c ****                                 Segments_segHBuffer[relPosition] = bufArray[i];
1016:Generated_Source\PSoC5/Segments.c ****                             #endif /* (Segments_NUM_SEG > 16u) */
1017:Generated_Source\PSoC5/Segments.c ****                             break;
1018:Generated_Source\PSoC5/Segments.c ****                         default :
1019:Generated_Source\PSoC5/Segments.c ****                             Segments_segLBuffer[relPosition] = bufArray[i];
1020:Generated_Source\PSoC5/Segments.c ****                             break;
1021:Generated_Source\PSoC5/Segments.c ****                     }
1022:Generated_Source\PSoC5/Segments.c ****                 }
1023:Generated_Source\PSoC5/Segments.c ****                 relPosition++;
1024:Generated_Source\PSoC5/Segments.c ****             }
1025:Generated_Source\PSoC5/Segments.c ****         }
1026:Generated_Source\PSoC5/Segments.c ****         /* Clear the rest of the positions to the right of value */
1027:Generated_Source\PSoC5/Segments.c ****         while(relPosition < digits)
1028:Generated_Source\PSoC5/Segments.c ****         {
1029:Generated_Source\PSoC5/Segments.c ****             switch(choiceReg)
1030:Generated_Source\PSoC5/Segments.c ****             {
1031:Generated_Source\PSoC5/Segments.c ****                 case Segments_SEG_REG_LOW :
1032:Generated_Source\PSoC5/Segments.c ****                     Segments_segLBuffer[relPosition] = Segments_CLEAR;
1033:Generated_Source\PSoC5/Segments.c ****                     break;
1034:Generated_Source\PSoC5/Segments.c ****                 case Segments_SEG_REG_MID :
1035:Generated_Source\PSoC5/Segments.c ****                     #if (Segments_NUM_SEG > 8u)
1036:Generated_Source\PSoC5/Segments.c ****                         Segments_segMBuffer[relPosition] = Segments_CLEAR;
1037:Generated_Source\PSoC5/Segments.c ****                     #endif /* (Segments_NUM_SEG > 8u) */
1038:Generated_Source\PSoC5/Segments.c ****                     break;
1039:Generated_Source\PSoC5/Segments.c ****                 case Segments_SEG_REG_HIGH :
1040:Generated_Source\PSoC5/Segments.c ****                     #if (Segments_NUM_SEG > 16u)
1041:Generated_Source\PSoC5/Segments.c ****                         Segments_segHBuffer[relPosition] = Segments_CLEAR;
1042:Generated_Source\PSoC5/Segments.c ****                     #endif /* (Segments_NUM_SEG > 16u) */
1043:Generated_Source\PSoC5/Segments.c ****                     break;
1044:Generated_Source\PSoC5/Segments.c ****                 default :
1045:Generated_Source\PSoC5/Segments.c ****                     Segments_segLBuffer[relPosition] = Segments_CLEAR;
1046:Generated_Source\PSoC5/Segments.c ****                     break;
1047:Generated_Source\PSoC5/Segments.c ****             }
1048:Generated_Source\PSoC5/Segments.c ****             relPosition++;
1049:Generated_Source\PSoC5/Segments.c ****         }
1050:Generated_Source\PSoC5/Segments.c ****     }
1051:Generated_Source\PSoC5/Segments.c ****     else
1052:Generated_Source\PSoC5/Segments.c ****     {
1053:Generated_Source\PSoC5/Segments.c ****         /* Alignment for Right and zero padded */
1054:Generated_Source\PSoC5/Segments.c ****         for(i = digits; i > 0u; i--)
ARM GAS  C:\Users\Esteban\AppData\Local\Temp\ccHxlO6N.s 			page 36


1055:Generated_Source\PSoC5/Segments.c ****         {
1056:Generated_Source\PSoC5/Segments.c ****             if(((i + relPosition) - 1u) < Segments_NUM_COM)
1057:Generated_Source\PSoC5/Segments.c ****             {
1058:Generated_Source\PSoC5/Segments.c ****                 /* Decide which row to use */
1059:Generated_Source\PSoC5/Segments.c ****                 switch(choiceReg)
1060:Generated_Source\PSoC5/Segments.c ****                 {
1061:Generated_Source\PSoC5/Segments.c ****                     case Segments_SEG_REG_LOW :
1062:Generated_Source\PSoC5/Segments.c ****                         Segments_segLBuffer[(i + relPosition) - 1u] = bufArray[i-1u];
1063:Generated_Source\PSoC5/Segments.c ****                         break;
1064:Generated_Source\PSoC5/Segments.c ****                     case Segments_SEG_REG_MID :
1065:Generated_Source\PSoC5/Segments.c ****                         #if (Segments_NUM_SEG > 8u)
1066:Generated_Source\PSoC5/Segments.c ****                             Segments_segMBuffer[(i + relPosition) - 1u] = bufArray[i-1u];
1067:Generated_Source\PSoC5/Segments.c ****                         #endif /* (Segments_NUM_SEG > 8u) */
1068:Generated_Source\PSoC5/Segments.c ****                         break;
1069:Generated_Source\PSoC5/Segments.c ****                     case Segments_SEG_REG_HIGH :
1070:Generated_Source\PSoC5/Segments.c ****                         #if (Segments_NUM_SEG > 16u)
1071:Generated_Source\PSoC5/Segments.c ****                             Segments_segHBuffer[(i + relPosition) - 1u] = bufArray[i-1u];
1072:Generated_Source\PSoC5/Segments.c ****                         #endif /* (Segments_NUM_SEG > 16u) */
1073:Generated_Source\PSoC5/Segments.c ****                         break;
1074:Generated_Source\PSoC5/Segments.c ****                     default :
1075:Generated_Source\PSoC5/Segments.c ****                         Segments_segLBuffer[(i + relPosition) - 1u] = bufArray[i-1u];
1076:Generated_Source\PSoC5/Segments.c ****                         break;
1077:Generated_Source\PSoC5/Segments.c ****                 }
1078:Generated_Source\PSoC5/Segments.c ****             }
1079:Generated_Source\PSoC5/Segments.c ****         }
1080:Generated_Source\PSoC5/Segments.c ****     }
1081:Generated_Source\PSoC5/Segments.c **** }
1082:Generated_Source\PSoC5/Segments.c **** 
1083:Generated_Source\PSoC5/Segments.c **** 
1084:Generated_Source\PSoC5/Segments.c **** /*******************************************************************************
1085:Generated_Source\PSoC5/Segments.c **** * Function Name: Segments_Write7SegNumberHex
1086:Generated_Source\PSoC5/Segments.c **** ********************************************************************************
1087:Generated_Source\PSoC5/Segments.c **** *
1088:Generated_Source\PSoC5/Segments.c **** * Summary:
1089:Generated_Source\PSoC5/Segments.c **** *  Displays a hexadecimal number up to 8 characters long, starting at 'position'
1090:Generated_Source\PSoC5/Segments.c **** *  and extending for 'digits' characters. If you do not use the correct number 
1091:Generated_Source\PSoC5/Segments.c **** *  of digits for your number, the least significant digits will be displayed. 
1092:Generated_Source\PSoC5/Segments.c **** *  For example, if value is 0xDEADBEEF, display is 0 and digits is 4, the result 
1093:Generated_Source\PSoC5/Segments.c **** *  will be: BEEF.
1094:Generated_Source\PSoC5/Segments.c **** *
1095:Generated_Source\PSoC5/Segments.c **** * Parameters:
1096:Generated_Source\PSoC5/Segments.c **** *  uint32 number: The hexadecimal number to display. It is the responsibility of
1097:Generated_Source\PSoC5/Segments.c **** *                 the user to ensure that the display has enough digits to 
1098:Generated_Source\PSoC5/Segments.c **** *                 accurately representthe number passed to this function. If 
1099:Generated_Source\PSoC5/Segments.c **** *                 not, the least significant digits will be displayed.
1100:Generated_Source\PSoC5/Segments.c **** *  uint8 position: Position of the Display/Common to start number.
1101:Generated_Source\PSoC5/Segments.c **** *  uint8 digits: The number of digits you wish to use to display the value 
1102:Generated_Source\PSoC5/Segments.c **** *                passed into the function. If you do not use the correct number 
1103:Generated_Source\PSoC5/Segments.c **** *                of digits for your number, the least significant digits will be
1104:Generated_Source\PSoC5/Segments.c **** *                displayed.
1105:Generated_Source\PSoC5/Segments.c **** *  uint8 alignment: How to align the provided number in the allocated digits.
1106:Generated_Source\PSoC5/Segments.c **** *       RIGHT_ALIGN - Least significant digit occupies the rightmost digit
1107:Generated_Source\PSoC5/Segments.c **** *                     (position + digits). Unused digits are turned off unless
1108:Generated_Source\PSoC5/Segments.c **** *                     ZERO_PAD enabled.
1109:Generated_Source\PSoC5/Segments.c **** *       LEFT_ALIGN - Most significant digit (or negative sign) occupies the
1110:Generated_Source\PSoC5/Segments.c **** *                    digit specified by position. Unused digits are turned off.
1111:Generated_Source\PSoC5/Segments.c **** *       ZERO_PAD - Unused digits to the left are padded with leading zeros.
ARM GAS  C:\Users\Esteban\AppData\Local\Temp\ccHxlO6N.s 			page 37


1112:Generated_Source\PSoC5/Segments.c **** *
1113:Generated_Source\PSoC5/Segments.c **** * Return:
1114:Generated_Source\PSoC5/Segments.c **** *  None
1115:Generated_Source\PSoC5/Segments.c **** *
1116:Generated_Source\PSoC5/Segments.c **** * Side effects:
1117:Generated_Source\PSoC5/Segments.c **** *  None
1118:Generated_Source\PSoC5/Segments.c **** *
1119:Generated_Source\PSoC5/Segments.c **** *******************************************************************************/
1120:Generated_Source\PSoC5/Segments.c **** void Segments_Write7SegNumberHex(uint32 number, uint8 position, uint8 digits, uint8 alignment)
1121:Generated_Source\PSoC5/Segments.c **** 
1122:Generated_Source\PSoC5/Segments.c **** {
1123:Generated_Source\PSoC5/Segments.c ****     uint8 i;
1124:Generated_Source\PSoC5/Segments.c ****     uint8 relPosition;
1125:Generated_Source\PSoC5/Segments.c ****     uint8 choiceReg;
1126:Generated_Source\PSoC5/Segments.c ****     uint8 selectVal;
1127:Generated_Source\PSoC5/Segments.c ****     uint8 zeroCount = 0u;
1128:Generated_Source\PSoC5/Segments.c ****     uint8 bufArray[8u] = {0u};
1129:Generated_Source\PSoC5/Segments.c ****     uint32 numberVal;
1130:Generated_Source\PSoC5/Segments.c ****         
1131:Generated_Source\PSoC5/Segments.c ****     numberVal = number;
1132:Generated_Source\PSoC5/Segments.c ****     
1133:Generated_Source\PSoC5/Segments.c ****     /* Choose to use either the low, mid or high control registers */
1134:Generated_Source\PSoC5/Segments.c ****     if(position < Segments_NUM_COM)
1135:Generated_Source\PSoC5/Segments.c ****     {
1136:Generated_Source\PSoC5/Segments.c ****         choiceReg = Segments_SEG_REG_LOW;
1137:Generated_Source\PSoC5/Segments.c ****         relPosition = position;
1138:Generated_Source\PSoC5/Segments.c ****     }
1139:Generated_Source\PSoC5/Segments.c ****     else if (position < Segments_TWO_NUM_COM)
1140:Generated_Source\PSoC5/Segments.c ****     {
1141:Generated_Source\PSoC5/Segments.c ****         choiceReg = Segments_SEG_REG_MID;
1142:Generated_Source\PSoC5/Segments.c ****         relPosition = position - Segments_NUM_COM;
1143:Generated_Source\PSoC5/Segments.c ****     }
1144:Generated_Source\PSoC5/Segments.c ****     else
1145:Generated_Source\PSoC5/Segments.c ****     {
1146:Generated_Source\PSoC5/Segments.c ****         choiceReg = Segments_SEG_REG_HIGH;
1147:Generated_Source\PSoC5/Segments.c ****         relPosition = position - Segments_TWO_NUM_COM;
1148:Generated_Source\PSoC5/Segments.c ****     }
1149:Generated_Source\PSoC5/Segments.c ****     
1150:Generated_Source\PSoC5/Segments.c ****     /* Fill up the temporary array */
1151:Generated_Source\PSoC5/Segments.c ****     for(i = digits; i > 0u; i--)
1152:Generated_Source\PSoC5/Segments.c ****     {
1153:Generated_Source\PSoC5/Segments.c ****         selectVal = (uint8)((uint8)numberVal & Segments_NIBBLE_MASK);
1154:Generated_Source\PSoC5/Segments.c ****         bufArray[i-1u] = Segments_EncodeNumber7Seg(selectVal);
1155:Generated_Source\PSoC5/Segments.c ****         numberVal = (uint32)((uint32)numberVal >> Segments_SHIFT_NIBBLE);
1156:Generated_Source\PSoC5/Segments.c ****     }
1157:Generated_Source\PSoC5/Segments.c ****     
1158:Generated_Source\PSoC5/Segments.c ****     /* Clean up the array */
1159:Generated_Source\PSoC5/Segments.c ****     if(alignment != Segments_ZERO_PAD)
1160:Generated_Source\PSoC5/Segments.c ****     {
1161:Generated_Source\PSoC5/Segments.c ****         for(i = 0u; i < digits; i++)
1162:Generated_Source\PSoC5/Segments.c ****         {
1163:Generated_Source\PSoC5/Segments.c ****             if (bufArray[i] != Segments_ZERO_7CHAR)
1164:Generated_Source\PSoC5/Segments.c ****             {
1165:Generated_Source\PSoC5/Segments.c ****                 /* Exit when encountering non-zero number */
1166:Generated_Source\PSoC5/Segments.c ****                 break;
1167:Generated_Source\PSoC5/Segments.c ****             }
1168:Generated_Source\PSoC5/Segments.c ****             else
ARM GAS  C:\Users\Esteban\AppData\Local\Temp\ccHxlO6N.s 			page 38


1169:Generated_Source\PSoC5/Segments.c ****             {
1170:Generated_Source\PSoC5/Segments.c ****                 if(zeroCount != (digits - 1u))
1171:Generated_Source\PSoC5/Segments.c ****                 {
1172:Generated_Source\PSoC5/Segments.c ****                     /* Turn off the display */
1173:Generated_Source\PSoC5/Segments.c ****                     bufArray[i] = Segments_CLEAR;
1174:Generated_Source\PSoC5/Segments.c ****                     zeroCount++;
1175:Generated_Source\PSoC5/Segments.c ****                 }
1176:Generated_Source\PSoC5/Segments.c ****             }    
1177:Generated_Source\PSoC5/Segments.c ****         }
1178:Generated_Source\PSoC5/Segments.c ****     }
1179:Generated_Source\PSoC5/Segments.c ****     
1180:Generated_Source\PSoC5/Segments.c ****     /* Place the values in the segment array according to alignment */
1181:Generated_Source\PSoC5/Segments.c ****     if(alignment == Segments_LEFT_ALIGN)
1182:Generated_Source\PSoC5/Segments.c ****     {
1183:Generated_Source\PSoC5/Segments.c ****         for(i = 0u; i < digits; i++)
1184:Generated_Source\PSoC5/Segments.c ****         {
1185:Generated_Source\PSoC5/Segments.c ****             if(bufArray[i] != Segments_CLEAR)
1186:Generated_Source\PSoC5/Segments.c ****             {
1187:Generated_Source\PSoC5/Segments.c ****                 if(relPosition < Segments_NUM_COM)
1188:Generated_Source\PSoC5/Segments.c ****                 {
1189:Generated_Source\PSoC5/Segments.c ****                     /* Only show displays that are not empty */
1190:Generated_Source\PSoC5/Segments.c ****                     switch(choiceReg)
1191:Generated_Source\PSoC5/Segments.c ****                     {
1192:Generated_Source\PSoC5/Segments.c ****                         case Segments_SEG_REG_LOW :
1193:Generated_Source\PSoC5/Segments.c ****                             Segments_segLBuffer[relPosition] = bufArray[i];
1194:Generated_Source\PSoC5/Segments.c ****                             break;
1195:Generated_Source\PSoC5/Segments.c ****                         case Segments_SEG_REG_MID :
1196:Generated_Source\PSoC5/Segments.c ****                             #if (Segments_NUM_SEG > 8u)
1197:Generated_Source\PSoC5/Segments.c ****                                 Segments_segMBuffer[relPosition] = bufArray[i];
1198:Generated_Source\PSoC5/Segments.c ****                             #endif /* (Segments_NUM_SEG > 8u) */
1199:Generated_Source\PSoC5/Segments.c ****                             break;
1200:Generated_Source\PSoC5/Segments.c ****                         case Segments_SEG_REG_HIGH :
1201:Generated_Source\PSoC5/Segments.c ****                             #if (Segments_NUM_SEG > 16u)
1202:Generated_Source\PSoC5/Segments.c ****                                 Segments_segHBuffer[relPosition] = bufArray[i];
1203:Generated_Source\PSoC5/Segments.c ****                             #endif /* (Segments_NUM_SEG > 16u) */
1204:Generated_Source\PSoC5/Segments.c ****                             break;
1205:Generated_Source\PSoC5/Segments.c ****                         default :
1206:Generated_Source\PSoC5/Segments.c ****                             Segments_segLBuffer[relPosition] = bufArray[i];
1207:Generated_Source\PSoC5/Segments.c ****                             break;
1208:Generated_Source\PSoC5/Segments.c ****                     }
1209:Generated_Source\PSoC5/Segments.c ****                 }
1210:Generated_Source\PSoC5/Segments.c ****                 relPosition++;
1211:Generated_Source\PSoC5/Segments.c ****             }
1212:Generated_Source\PSoC5/Segments.c ****         }
1213:Generated_Source\PSoC5/Segments.c ****         /* Clear the rest of the positions to the right of value */
1214:Generated_Source\PSoC5/Segments.c ****         while(relPosition < digits)
1215:Generated_Source\PSoC5/Segments.c ****         {
1216:Generated_Source\PSoC5/Segments.c ****             switch(choiceReg)
1217:Generated_Source\PSoC5/Segments.c ****             {
1218:Generated_Source\PSoC5/Segments.c ****                 case Segments_SEG_REG_LOW :
1219:Generated_Source\PSoC5/Segments.c ****                     Segments_segLBuffer[relPosition] = Segments_CLEAR;
1220:Generated_Source\PSoC5/Segments.c ****                     break;
1221:Generated_Source\PSoC5/Segments.c ****                 case Segments_SEG_REG_MID :
1222:Generated_Source\PSoC5/Segments.c ****                     #if (Segments_NUM_SEG > 8u)
1223:Generated_Source\PSoC5/Segments.c ****                         Segments_segMBuffer[relPosition] = Segments_CLEAR;
1224:Generated_Source\PSoC5/Segments.c ****                     #endif /* (Segments_NUM_SEG > 8u) */
1225:Generated_Source\PSoC5/Segments.c ****                     break;
ARM GAS  C:\Users\Esteban\AppData\Local\Temp\ccHxlO6N.s 			page 39


1226:Generated_Source\PSoC5/Segments.c ****                 case Segments_SEG_REG_HIGH :
1227:Generated_Source\PSoC5/Segments.c ****                     #if (Segments_NUM_SEG > 16u)
1228:Generated_Source\PSoC5/Segments.c ****                         Segments_segHBuffer[relPosition] = Segments_CLEAR;
1229:Generated_Source\PSoC5/Segments.c ****                     #endif /* (Segments_NUM_SEG > 16u) */
1230:Generated_Source\PSoC5/Segments.c ****                     break;
1231:Generated_Source\PSoC5/Segments.c ****                 default :
1232:Generated_Source\PSoC5/Segments.c ****                     Segments_segLBuffer[relPosition] = Segments_CLEAR;
1233:Generated_Source\PSoC5/Segments.c ****                     break;
1234:Generated_Source\PSoC5/Segments.c ****             }
1235:Generated_Source\PSoC5/Segments.c ****             relPosition++;
1236:Generated_Source\PSoC5/Segments.c ****         }
1237:Generated_Source\PSoC5/Segments.c ****     }
1238:Generated_Source\PSoC5/Segments.c ****     else
1239:Generated_Source\PSoC5/Segments.c ****     {
1240:Generated_Source\PSoC5/Segments.c ****         /* Alignment for right and zero padded */
1241:Generated_Source\PSoC5/Segments.c ****         for(i = digits; i > 0u; i--)
1242:Generated_Source\PSoC5/Segments.c ****         {
1243:Generated_Source\PSoC5/Segments.c ****             if(((i + relPosition) - 1u) < Segments_NUM_COM)
1244:Generated_Source\PSoC5/Segments.c ****             {
1245:Generated_Source\PSoC5/Segments.c ****                 /* Decide which row to use */
1246:Generated_Source\PSoC5/Segments.c ****                 switch(choiceReg)
1247:Generated_Source\PSoC5/Segments.c ****                 {
1248:Generated_Source\PSoC5/Segments.c ****                     case Segments_SEG_REG_LOW :
1249:Generated_Source\PSoC5/Segments.c ****                         Segments_segLBuffer[(i + relPosition) - 1u] = bufArray[i-1u];
1250:Generated_Source\PSoC5/Segments.c ****                         break;
1251:Generated_Source\PSoC5/Segments.c ****                     case Segments_SEG_REG_MID :
1252:Generated_Source\PSoC5/Segments.c ****                         #if (Segments_NUM_SEG > 8u)
1253:Generated_Source\PSoC5/Segments.c ****                             Segments_segMBuffer[(i + relPosition) - 1u] = bufArray[i-1u];
1254:Generated_Source\PSoC5/Segments.c ****                         #endif /* (Segments_NUM_SEG > 8u) */
1255:Generated_Source\PSoC5/Segments.c ****                         break;
1256:Generated_Source\PSoC5/Segments.c ****                     case Segments_SEG_REG_HIGH :
1257:Generated_Source\PSoC5/Segments.c ****                         #if (Segments_NUM_SEG > 16u)
1258:Generated_Source\PSoC5/Segments.c ****                             Segments_segHBuffer[(i + relPosition) - 1u] = bufArray[i-1u];
1259:Generated_Source\PSoC5/Segments.c ****                         #endif /* (Segments_NUM_SEG > 16u) */
1260:Generated_Source\PSoC5/Segments.c ****                         break;
1261:Generated_Source\PSoC5/Segments.c ****                     default :
1262:Generated_Source\PSoC5/Segments.c ****                         Segments_segLBuffer[(i + relPosition) - 1u] = bufArray[i-1u];
1263:Generated_Source\PSoC5/Segments.c ****                         break;
1264:Generated_Source\PSoC5/Segments.c ****                 }
1265:Generated_Source\PSoC5/Segments.c ****             }
1266:Generated_Source\PSoC5/Segments.c ****         }
1267:Generated_Source\PSoC5/Segments.c ****     }
1268:Generated_Source\PSoC5/Segments.c **** }
1269:Generated_Source\PSoC5/Segments.c **** 
1270:Generated_Source\PSoC5/Segments.c **** 
1271:Generated_Source\PSoC5/Segments.c **** /*******************************************************************************
1272:Generated_Source\PSoC5/Segments.c **** * Function Name: Segments_WriteString7Seg
1273:Generated_Source\PSoC5/Segments.c **** ********************************************************************************
1274:Generated_Source\PSoC5/Segments.c **** *
1275:Generated_Source\PSoC5/Segments.c **** * Summary:
1276:Generated_Source\PSoC5/Segments.c **** *  Displays a null terminated string starting at 'position' and ending at either
1277:Generated_Source\PSoC5/Segments.c **** *  at the end the string or the end of the display. The displayable characters 
1278:Generated_Source\PSoC5/Segments.c **** *  are the same for the LED_Driver_PutChar7Seg() function. Non-displayable
1279:Generated_Source\PSoC5/Segments.c **** *  characters will produce a blank space.
1280:Generated_Source\PSoC5/Segments.c **** *
1281:Generated_Source\PSoC5/Segments.c **** * Parameters:
1282:Generated_Source\PSoC5/Segments.c **** *  char8 const character[]: The null terminated string to be displayed.
ARM GAS  C:\Users\Esteban\AppData\Local\Temp\ccHxlO6N.s 			page 40


1283:Generated_Source\PSoC5/Segments.c **** *  uint8 position: The position to start the string.
1284:Generated_Source\PSoC5/Segments.c **** *
1285:Generated_Source\PSoC5/Segments.c **** * Return:
1286:Generated_Source\PSoC5/Segments.c **** *  None
1287:Generated_Source\PSoC5/Segments.c **** *
1288:Generated_Source\PSoC5/Segments.c **** * Side effects:
1289:Generated_Source\PSoC5/Segments.c **** *  None
1290:Generated_Source\PSoC5/Segments.c **** *
1291:Generated_Source\PSoC5/Segments.c **** *******************************************************************************/
1292:Generated_Source\PSoC5/Segments.c **** void Segments_WriteString7Seg(char8 const character[], uint8 position)
1293:Generated_Source\PSoC5/Segments.c **** 
1294:Generated_Source\PSoC5/Segments.c **** {
1295:Generated_Source\PSoC5/Segments.c ****     uint8 relPosition;
1296:Generated_Source\PSoC5/Segments.c ****     uint8 sizeLimit;
1297:Generated_Source\PSoC5/Segments.c ****     uint8 i = 0u;
1298:Generated_Source\PSoC5/Segments.c ****     
1299:Generated_Source\PSoC5/Segments.c ****     if(position < Segments_NUM_COM)
1300:Generated_Source\PSoC5/Segments.c ****     {
1301:Generated_Source\PSoC5/Segments.c ****         sizeLimit = (uint8)(strlen(character)) + position;
1302:Generated_Source\PSoC5/Segments.c ****         for(relPosition = position; relPosition < Segments_NUM_COM; relPosition++)
1303:Generated_Source\PSoC5/Segments.c ****         {
1304:Generated_Source\PSoC5/Segments.c ****             if(relPosition < sizeLimit)
1305:Generated_Source\PSoC5/Segments.c ****             {
1306:Generated_Source\PSoC5/Segments.c ****                 Segments_segLBuffer[relPosition] = Segments_EncodeChar7Seg(character[i]);
1307:Generated_Source\PSoC5/Segments.c ****                 i++;
1308:Generated_Source\PSoC5/Segments.c ****             }
1309:Generated_Source\PSoC5/Segments.c ****         }
1310:Generated_Source\PSoC5/Segments.c ****     }    
1311:Generated_Source\PSoC5/Segments.c ****     else if (position < Segments_TWO_NUM_COM)
1312:Generated_Source\PSoC5/Segments.c ****     {
1313:Generated_Source\PSoC5/Segments.c ****         #if (Segments_NUM_SEG > 8u) 
1314:Generated_Source\PSoC5/Segments.c ****             sizeLimit = ((uint8)(strlen(character)) + position) - Segments_NUM_COM;
1315:Generated_Source\PSoC5/Segments.c ****             for(relPosition = position - Segments_NUM_COM;
1316:Generated_Source\PSoC5/Segments.c ****                 relPosition < Segments_NUM_COM; 
1317:Generated_Source\PSoC5/Segments.c ****                 relPosition++)
1318:Generated_Source\PSoC5/Segments.c ****             {
1319:Generated_Source\PSoC5/Segments.c ****                 if(relPosition < sizeLimit)
1320:Generated_Source\PSoC5/Segments.c ****                 {
1321:Generated_Source\PSoC5/Segments.c ****                     Segments_segMBuffer[relPosition] = Segments_EncodeChar7Seg(character[i]);
1322:Generated_Source\PSoC5/Segments.c ****                     i++;
1323:Generated_Source\PSoC5/Segments.c ****                 }
1324:Generated_Source\PSoC5/Segments.c ****             }
1325:Generated_Source\PSoC5/Segments.c ****         #endif /* (Segments_NUM_SEG > 8u) */
1326:Generated_Source\PSoC5/Segments.c ****     }
1327:Generated_Source\PSoC5/Segments.c ****     else
1328:Generated_Source\PSoC5/Segments.c ****     {
1329:Generated_Source\PSoC5/Segments.c ****         #if (Segments_NUM_SEG > 16u)
1330:Generated_Source\PSoC5/Segments.c ****             sizeLimit = ((uint8)(strlen(character)) + position) - Segments_TWO_NUM_COM;
1331:Generated_Source\PSoC5/Segments.c ****             for(relPosition = position - Segments_TWO_NUM_COM;
1332:Generated_Source\PSoC5/Segments.c ****                 relPosition < Segments_NUM_COM; 
1333:Generated_Source\PSoC5/Segments.c ****                 relPosition++)
1334:Generated_Source\PSoC5/Segments.c ****             {
1335:Generated_Source\PSoC5/Segments.c ****                 if(relPosition < sizeLimit)
1336:Generated_Source\PSoC5/Segments.c ****                 {
1337:Generated_Source\PSoC5/Segments.c ****                     Segments_segHBuffer[relPosition] = Segments_EncodeChar7Seg(character[i]);
1338:Generated_Source\PSoC5/Segments.c ****                     i++;
1339:Generated_Source\PSoC5/Segments.c ****                 }    
ARM GAS  C:\Users\Esteban\AppData\Local\Temp\ccHxlO6N.s 			page 41


1340:Generated_Source\PSoC5/Segments.c ****             }
1341:Generated_Source\PSoC5/Segments.c ****         #endif /* (Segments_NUM_SEG > 16u) */
1342:Generated_Source\PSoC5/Segments.c ****     }
1343:Generated_Source\PSoC5/Segments.c **** }
1344:Generated_Source\PSoC5/Segments.c **** 
1345:Generated_Source\PSoC5/Segments.c **** 
1346:Generated_Source\PSoC5/Segments.c **** /*******************************************************************************
1347:Generated_Source\PSoC5/Segments.c **** * Function Name: Segments_PutChar7Seg
1348:Generated_Source\PSoC5/Segments.c **** ********************************************************************************
1349:Generated_Source\PSoC5/Segments.c **** *
1350:Generated_Source\PSoC5/Segments.c **** * Summary:
1351:Generated_Source\PSoC5/Segments.c **** *  Displays an ascii encoded character at 'position'. This function can display 
1352:Generated_Source\PSoC5/Segments.c **** *  all alphanumeric characters. The function can also display '-', '.', '_', 
1353:Generated_Source\PSoC5/Segments.c **** *  ' ', and '='. All unknown characters are displayed as a space.
1354:Generated_Source\PSoC5/Segments.c **** *
1355:Generated_Source\PSoC5/Segments.c **** * Parameters:
1356:Generated_Source\PSoC5/Segments.c **** *  char8 character: ASCII character.
1357:Generated_Source\PSoC5/Segments.c **** *  uint8 position: The position of the character.
1358:Generated_Source\PSoC5/Segments.c **** *
1359:Generated_Source\PSoC5/Segments.c **** * Return:
1360:Generated_Source\PSoC5/Segments.c **** *  None
1361:Generated_Source\PSoC5/Segments.c **** *
1362:Generated_Source\PSoC5/Segments.c **** * Side effects:
1363:Generated_Source\PSoC5/Segments.c **** *  None
1364:Generated_Source\PSoC5/Segments.c **** *
1365:Generated_Source\PSoC5/Segments.c **** *******************************************************************************/
1366:Generated_Source\PSoC5/Segments.c **** void Segments_PutChar7Seg(char8 character , uint8 position)
1367:Generated_Source\PSoC5/Segments.c **** 
1368:Generated_Source\PSoC5/Segments.c **** {
1369:Generated_Source\PSoC5/Segments.c ****     uint8 relPosition;
1370:Generated_Source\PSoC5/Segments.c ****     
1371:Generated_Source\PSoC5/Segments.c ****     if(position < Segments_NUM_COM)
1372:Generated_Source\PSoC5/Segments.c ****     {
1373:Generated_Source\PSoC5/Segments.c ****         relPosition = position;
1374:Generated_Source\PSoC5/Segments.c ****         Segments_segLBuffer[relPosition] = Segments_EncodeChar7Seg(character);
1375:Generated_Source\PSoC5/Segments.c ****     }    
1376:Generated_Source\PSoC5/Segments.c ****     else if (position < Segments_TWO_NUM_COM)
1377:Generated_Source\PSoC5/Segments.c ****     {
1378:Generated_Source\PSoC5/Segments.c ****         #if (Segments_NUM_SEG > 8u) 
1379:Generated_Source\PSoC5/Segments.c ****             relPosition = position - Segments_NUM_COM;
1380:Generated_Source\PSoC5/Segments.c ****             Segments_segMBuffer[relPosition] = Segments_EncodeChar7Seg(character);
1381:Generated_Source\PSoC5/Segments.c ****         #endif /* (Segments_NUM_SEG > 8u) */
1382:Generated_Source\PSoC5/Segments.c ****     }
1383:Generated_Source\PSoC5/Segments.c ****     else
1384:Generated_Source\PSoC5/Segments.c ****     {
1385:Generated_Source\PSoC5/Segments.c ****         #if (Segments_NUM_SEG > 16u)
1386:Generated_Source\PSoC5/Segments.c ****             relPosition = position - Segments_TWO_NUM_COM;
1387:Generated_Source\PSoC5/Segments.c ****             if(relPosition < Segments_NUM_COM)
1388:Generated_Source\PSoC5/Segments.c ****             {
1389:Generated_Source\PSoC5/Segments.c ****                 Segments_segHBuffer[relPosition] = Segments_EncodeChar7Seg(character);
1390:Generated_Source\PSoC5/Segments.c ****             }
1391:Generated_Source\PSoC5/Segments.c ****         #endif /* (Segments_NUM_SEG > 16u) */
1392:Generated_Source\PSoC5/Segments.c ****     }
1393:Generated_Source\PSoC5/Segments.c **** }
1394:Generated_Source\PSoC5/Segments.c **** 
1395:Generated_Source\PSoC5/Segments.c **** 
1396:Generated_Source\PSoC5/Segments.c **** /*******************************************************************************
ARM GAS  C:\Users\Esteban\AppData\Local\Temp\ccHxlO6N.s 			page 42


1397:Generated_Source\PSoC5/Segments.c **** * Function Name: Segments_Write7SegDigitDec
1398:Generated_Source\PSoC5/Segments.c **** ********************************************************************************
1399:Generated_Source\PSoC5/Segments.c **** *
1400:Generated_Source\PSoC5/Segments.c **** * Summary:
1401:Generated_Source\PSoC5/Segments.c **** *  Displays a single digit on the specified display. The number in 'digit' 
1402:Generated_Source\PSoC5/Segments.c **** *  (0-9) is placed on 'position.'
1403:Generated_Source\PSoC5/Segments.c **** *
1404:Generated_Source\PSoC5/Segments.c **** * Parameters:
1405:Generated_Source\PSoC5/Segments.c **** *  uint8 digit: A number between 0 and 9 to display.
1406:Generated_Source\PSoC5/Segments.c **** *  uint8 position: Position of the display in which to place the number.
1407:Generated_Source\PSoC5/Segments.c **** *
1408:Generated_Source\PSoC5/Segments.c **** * Return:
1409:Generated_Source\PSoC5/Segments.c **** *  None
1410:Generated_Source\PSoC5/Segments.c **** *
1411:Generated_Source\PSoC5/Segments.c **** * Side effects:
1412:Generated_Source\PSoC5/Segments.c **** *  None
1413:Generated_Source\PSoC5/Segments.c **** *
1414:Generated_Source\PSoC5/Segments.c **** *******************************************************************************/
1415:Generated_Source\PSoC5/Segments.c **** void Segments_Write7SegDigitDec(uint8 digit, uint8 position)
1416:Generated_Source\PSoC5/Segments.c **** 
1417:Generated_Source\PSoC5/Segments.c **** {
1418:Generated_Source\PSoC5/Segments.c ****     uint8 relPosition;
1419:Generated_Source\PSoC5/Segments.c ****     
1420:Generated_Source\PSoC5/Segments.c ****     /* Only display numerical values */
1421:Generated_Source\PSoC5/Segments.c ****     if (digit < 10u)
1422:Generated_Source\PSoC5/Segments.c ****     {
1423:Generated_Source\PSoC5/Segments.c ****         if(position < Segments_NUM_COM)
1424:Generated_Source\PSoC5/Segments.c ****         {
1425:Generated_Source\PSoC5/Segments.c ****             relPosition = position;
1426:Generated_Source\PSoC5/Segments.c ****             Segments_segLBuffer[relPosition] = Segments_EncodeNumber7Seg(digit);
1427:Generated_Source\PSoC5/Segments.c ****         }    
1428:Generated_Source\PSoC5/Segments.c ****         else if (position < Segments_TWO_NUM_COM)
1429:Generated_Source\PSoC5/Segments.c ****         {
1430:Generated_Source\PSoC5/Segments.c ****             #if (Segments_NUM_SEG > 8u)
1431:Generated_Source\PSoC5/Segments.c ****                 relPosition = position - Segments_NUM_COM;
1432:Generated_Source\PSoC5/Segments.c ****                 Segments_segMBuffer[relPosition] = Segments_EncodeNumber7Seg(digit);
1433:Generated_Source\PSoC5/Segments.c ****             #endif /* (Segments_NUM_SEG > 8u) */
1434:Generated_Source\PSoC5/Segments.c ****         } 
1435:Generated_Source\PSoC5/Segments.c ****         else
1436:Generated_Source\PSoC5/Segments.c ****         {
1437:Generated_Source\PSoC5/Segments.c ****             #if (Segments_NUM_SEG > 16u)
1438:Generated_Source\PSoC5/Segments.c ****                 relPosition = position - Segments_TWO_NUM_COM;
1439:Generated_Source\PSoC5/Segments.c ****                 if(relPosition < Segments_TWO_NUM_COM)
1440:Generated_Source\PSoC5/Segments.c ****                 {
1441:Generated_Source\PSoC5/Segments.c ****                     Segments_segHBuffer[relPosition] = Segments_EncodeNumber7Seg(digit);
1442:Generated_Source\PSoC5/Segments.c ****                 }
1443:Generated_Source\PSoC5/Segments.c ****             #endif /* (Segments_NUM_SEG > 16u) */
1444:Generated_Source\PSoC5/Segments.c ****         }
1445:Generated_Source\PSoC5/Segments.c ****     }
1446:Generated_Source\PSoC5/Segments.c **** }
1447:Generated_Source\PSoC5/Segments.c **** 
1448:Generated_Source\PSoC5/Segments.c **** 
1449:Generated_Source\PSoC5/Segments.c **** /*******************************************************************************
1450:Generated_Source\PSoC5/Segments.c **** * Function Name: Segments_Write7SegDigitHex
1451:Generated_Source\PSoC5/Segments.c **** ********************************************************************************
1452:Generated_Source\PSoC5/Segments.c **** *
1453:Generated_Source\PSoC5/Segments.c **** * Summary:
ARM GAS  C:\Users\Esteban\AppData\Local\Temp\ccHxlO6N.s 			page 43


1454:Generated_Source\PSoC5/Segments.c **** *  Displays a single digit at the specified position. The number in 'digit' 
1455:Generated_Source\PSoC5/Segments.c **** *  (0-F) is placed on 'position'.
1456:Generated_Source\PSoC5/Segments.c **** *
1457:Generated_Source\PSoC5/Segments.c **** * Parameters:
1458:Generated_Source\PSoC5/Segments.c **** *  uint8 digit: A number between 0x0 and 0xF (0 to 15)
1459:Generated_Source\PSoC5/Segments.c **** *  uint8 position: The position in which to place the number.
1460:Generated_Source\PSoC5/Segments.c **** *
1461:Generated_Source\PSoC5/Segments.c **** * Return:
1462:Generated_Source\PSoC5/Segments.c **** *  None
1463:Generated_Source\PSoC5/Segments.c **** *
1464:Generated_Source\PSoC5/Segments.c **** * Side effects:
1465:Generated_Source\PSoC5/Segments.c **** *  None
1466:Generated_Source\PSoC5/Segments.c **** *
1467:Generated_Source\PSoC5/Segments.c **** *******************************************************************************/
1468:Generated_Source\PSoC5/Segments.c **** void Segments_Write7SegDigitHex(uint8 digit, uint8 position)
1469:Generated_Source\PSoC5/Segments.c **** 
1470:Generated_Source\PSoC5/Segments.c **** {
1471:Generated_Source\PSoC5/Segments.c ****     uint8 relPosition;
1472:Generated_Source\PSoC5/Segments.c ****     
1473:Generated_Source\PSoC5/Segments.c ****     if(position < Segments_NUM_COM)
1474:Generated_Source\PSoC5/Segments.c ****     {
1475:Generated_Source\PSoC5/Segments.c ****         relPosition = position;
1476:Generated_Source\PSoC5/Segments.c ****         Segments_segLBuffer[relPosition] = Segments_EncodeNumber7Seg(digit);
1477:Generated_Source\PSoC5/Segments.c ****     }    
1478:Generated_Source\PSoC5/Segments.c ****     else if (position < Segments_TWO_NUM_COM)
1479:Generated_Source\PSoC5/Segments.c ****     {
1480:Generated_Source\PSoC5/Segments.c ****         #if (Segments_NUM_SEG > 8u) 
1481:Generated_Source\PSoC5/Segments.c ****             relPosition = position - Segments_NUM_COM;
1482:Generated_Source\PSoC5/Segments.c ****             Segments_segMBuffer[relPosition] = Segments_EncodeNumber7Seg(digit);
1483:Generated_Source\PSoC5/Segments.c ****         #endif /* (Segments_NUM_SEG > 8u) */
1484:Generated_Source\PSoC5/Segments.c ****     }
1485:Generated_Source\PSoC5/Segments.c ****     else
1486:Generated_Source\PSoC5/Segments.c ****     {
1487:Generated_Source\PSoC5/Segments.c ****         #if (Segments_NUM_SEG > 16u)
1488:Generated_Source\PSoC5/Segments.c ****             relPosition = position - Segments_TWO_NUM_COM;
1489:Generated_Source\PSoC5/Segments.c ****             if(relPosition < Segments_NUM_COM)
1490:Generated_Source\PSoC5/Segments.c ****             {
1491:Generated_Source\PSoC5/Segments.c ****                 Segments_segHBuffer[relPosition] = Segments_EncodeNumber7Seg(digit);
1492:Generated_Source\PSoC5/Segments.c ****             }
1493:Generated_Source\PSoC5/Segments.c ****         #endif /* (Segments_NUM_SEG > 16u) */
1494:Generated_Source\PSoC5/Segments.c ****     }
1495:Generated_Source\PSoC5/Segments.c **** }
1496:Generated_Source\PSoC5/Segments.c **** 
1497:Generated_Source\PSoC5/Segments.c **** 
1498:Generated_Source\PSoC5/Segments.c **** /*******************************************************************************
1499:Generated_Source\PSoC5/Segments.c **** * Function Name: Segments_Write14SegNumberDec
1500:Generated_Source\PSoC5/Segments.c **** ********************************************************************************
1501:Generated_Source\PSoC5/Segments.c **** *
1502:Generated_Source\PSoC5/Segments.c **** * Summary:
1503:Generated_Source\PSoC5/Segments.c **** *  Displays a signed integer up to 8 characters long, starting at 'position' and
1504:Generated_Source\PSoC5/Segments.c **** *  extending for 'digits' characters. The negative sign will take an extra digit
1505:Generated_Source\PSoC5/Segments.c **** *  if it is required. If you do not use the correct number of digits for your 
1506:Generated_Source\PSoC5/Segments.c **** *  number, only the least significant digits will be displayed.
1507:Generated_Source\PSoC5/Segments.c **** *
1508:Generated_Source\PSoC5/Segments.c **** * Parameters:
1509:Generated_Source\PSoC5/Segments.c **** *  int32 number: a signed integer number to display. It is the responsibility 
1510:Generated_Source\PSoC5/Segments.c **** *                of the user to ensure that the display has enough digits to 
ARM GAS  C:\Users\Esteban\AppData\Local\Temp\ccHxlO6N.s 			page 44


1511:Generated_Source\PSoC5/Segments.c **** *                accurately represent the number passed to this function. Note 
1512:Generated_Source\PSoC5/Segments.c **** *                that a negative number will require 1 more digit than the 
1513:Generated_Source\PSoC5/Segments.c **** *                equivalent positive number to display the negative sign.
1514:Generated_Source\PSoC5/Segments.c **** *  uint8 position: Digit position of the Display/Common RAM to start.
1515:Generated_Source\PSoC5/Segments.c **** *  uint8 digits: The number of digits you wish to use to display the value 
1516:Generated_Source\PSoC5/Segments.c **** *                passed into the function. The negative sign will take an extra
1517:Generated_Source\PSoC5/Segments.c **** *                digit if it is required.
1518:Generated_Source\PSoC5/Segments.c **** *  uint8 alignment: How to align the provided number in the allocated digits.
1519:Generated_Source\PSoC5/Segments.c **** *       RIGHT_ALIGN - Least significant digit occupies the rightmost digit
1520:Generated_Source\PSoC5/Segments.c **** *                     (position + digits). Unused digits are turned off unless
1521:Generated_Source\PSoC5/Segments.c **** *                     ZERO_PAD enabled.
1522:Generated_Source\PSoC5/Segments.c **** *       LEFT_ALIGN - Most significant digit (or negative sign) occupies the
1523:Generated_Source\PSoC5/Segments.c **** *                    digit specified by position. Unused digits are turned off.
1524:Generated_Source\PSoC5/Segments.c **** *       ZERO_PAD - Unused digits to the left are padded with leading zeros.
1525:Generated_Source\PSoC5/Segments.c **** * Return:
1526:Generated_Source\PSoC5/Segments.c **** *  None
1527:Generated_Source\PSoC5/Segments.c **** *
1528:Generated_Source\PSoC5/Segments.c **** * Side effects:
1529:Generated_Source\PSoC5/Segments.c **** *  None
1530:Generated_Source\PSoC5/Segments.c **** *
1531:Generated_Source\PSoC5/Segments.c **** *******************************************************************************/
1532:Generated_Source\PSoC5/Segments.c **** void Segments_Write14SegNumberDec(int32 number, uint8 position, uint8 digits, uint8 alignment)
1533:Generated_Source\PSoC5/Segments.c **** 
1534:Generated_Source\PSoC5/Segments.c **** {
1535:Generated_Source\PSoC5/Segments.c ****     uint8 i;
1536:Generated_Source\PSoC5/Segments.c ****     uint8 relPosition;
1537:Generated_Source\PSoC5/Segments.c ****     uint8 numberSign;
1538:Generated_Source\PSoC5/Segments.c ****     uint8 selectVal;
1539:Generated_Source\PSoC5/Segments.c ****     uint8 zeroCount = 0u;
1540:Generated_Source\PSoC5/Segments.c ****     uint16 bufArray[8u] = {0u};
1541:Generated_Source\PSoC5/Segments.c ****     uint32 numberVal;
1542:Generated_Source\PSoC5/Segments.c ****         
1543:Generated_Source\PSoC5/Segments.c ****     /* Routine to extract the sign and to convert to unsigned */
1544:Generated_Source\PSoC5/Segments.c ****     if(number >= Segments_ZERO_NEG)
1545:Generated_Source\PSoC5/Segments.c ****     {
1546:Generated_Source\PSoC5/Segments.c ****         numberVal = (uint32)number;
1547:Generated_Source\PSoC5/Segments.c ****         numberSign = Segments_UNSIGNED;
1548:Generated_Source\PSoC5/Segments.c ****     }
1549:Generated_Source\PSoC5/Segments.c ****     else
1550:Generated_Source\PSoC5/Segments.c ****     {
1551:Generated_Source\PSoC5/Segments.c ****         numberVal = (uint32)(-number);
1552:Generated_Source\PSoC5/Segments.c ****         numberSign = Segments_SIGNED;
1553:Generated_Source\PSoC5/Segments.c ****     }
1554:Generated_Source\PSoC5/Segments.c ****     
1555:Generated_Source\PSoC5/Segments.c ****     /* Fill up the temporary array */
1556:Generated_Source\PSoC5/Segments.c ****     for(i = digits; i > 0u; i--)
1557:Generated_Source\PSoC5/Segments.c ****     {
1558:Generated_Source\PSoC5/Segments.c ****         selectVal = (uint8)(numberVal % 10u);
1559:Generated_Source\PSoC5/Segments.c ****         bufArray[i-1u] = Segments_EncodeNumber14Seg(selectVal);
1560:Generated_Source\PSoC5/Segments.c ****         numberVal = numberVal / 10u;
1561:Generated_Source\PSoC5/Segments.c ****     }
1562:Generated_Source\PSoC5/Segments.c ****     
1563:Generated_Source\PSoC5/Segments.c ****     /* Clean up the array and place sign if needed */
1564:Generated_Source\PSoC5/Segments.c ****     if(alignment == Segments_ZERO_PAD)
1565:Generated_Source\PSoC5/Segments.c ****     {
1566:Generated_Source\PSoC5/Segments.c ****         if(numberSign == Segments_SIGNED)
1567:Generated_Source\PSoC5/Segments.c ****         {
ARM GAS  C:\Users\Esteban\AppData\Local\Temp\ccHxlO6N.s 			page 45


1568:Generated_Source\PSoC5/Segments.c ****             /* Place sign on the MSB */
1569:Generated_Source\PSoC5/Segments.c ****             bufArray[0u] = Segments_EncodeChar14Seg('-');
1570:Generated_Source\PSoC5/Segments.c ****         }
1571:Generated_Source\PSoC5/Segments.c ****     }
1572:Generated_Source\PSoC5/Segments.c ****     else
1573:Generated_Source\PSoC5/Segments.c ****     {
1574:Generated_Source\PSoC5/Segments.c ****         for(i = 0u; i < digits; i++)
1575:Generated_Source\PSoC5/Segments.c ****         {
1576:Generated_Source\PSoC5/Segments.c ****             if (bufArray[i] != Segments_ZERO_14CHAR)
1577:Generated_Source\PSoC5/Segments.c ****             {
1578:Generated_Source\PSoC5/Segments.c ****                 if(numberSign == Segments_SIGNED)
1579:Generated_Source\PSoC5/Segments.c ****                 {
1580:Generated_Source\PSoC5/Segments.c ****                     if(i == 0u)
1581:Generated_Source\PSoC5/Segments.c ****                     {
1582:Generated_Source\PSoC5/Segments.c ****                         /* Place sign on the MSB */
1583:Generated_Source\PSoC5/Segments.c ****                         bufArray[i] = Segments_EncodeChar14Seg('-');
1584:Generated_Source\PSoC5/Segments.c ****                     }
1585:Generated_Source\PSoC5/Segments.c ****                     else
1586:Generated_Source\PSoC5/Segments.c ****                     {
1587:Generated_Source\PSoC5/Segments.c ****                         /* Place sign before MSB */
1588:Generated_Source\PSoC5/Segments.c ****                         bufArray[i-1u] = Segments_EncodeChar14Seg('-');
1589:Generated_Source\PSoC5/Segments.c ****                     }
1590:Generated_Source\PSoC5/Segments.c ****                 }
1591:Generated_Source\PSoC5/Segments.c ****                 /* Exit when encountering non-zero number */
1592:Generated_Source\PSoC5/Segments.c ****                 break;
1593:Generated_Source\PSoC5/Segments.c ****             }
1594:Generated_Source\PSoC5/Segments.c ****             else
1595:Generated_Source\PSoC5/Segments.c ****             {
1596:Generated_Source\PSoC5/Segments.c ****                 if(zeroCount != (digits - 1u))
1597:Generated_Source\PSoC5/Segments.c ****                 {
1598:Generated_Source\PSoC5/Segments.c ****                     /* Turn off the display */
1599:Generated_Source\PSoC5/Segments.c ****                     bufArray[i] = Segments_CLEAR_16;
1600:Generated_Source\PSoC5/Segments.c ****                     zeroCount++;
1601:Generated_Source\PSoC5/Segments.c ****                 }
1602:Generated_Source\PSoC5/Segments.c ****             }    
1603:Generated_Source\PSoC5/Segments.c ****         }
1604:Generated_Source\PSoC5/Segments.c ****     }
1605:Generated_Source\PSoC5/Segments.c ****     
1606:Generated_Source\PSoC5/Segments.c ****     relPosition = position;
1607:Generated_Source\PSoC5/Segments.c ****     
1608:Generated_Source\PSoC5/Segments.c ****     /* Place the values in the segment array according to alignment */
1609:Generated_Source\PSoC5/Segments.c ****     if(alignment == Segments_LEFT_ALIGN)
1610:Generated_Source\PSoC5/Segments.c ****     {
1611:Generated_Source\PSoC5/Segments.c ****         for(i = 0u; i < digits; i++)
1612:Generated_Source\PSoC5/Segments.c ****         {
1613:Generated_Source\PSoC5/Segments.c ****             if(bufArray[i] != Segments_CLEAR_16)
1614:Generated_Source\PSoC5/Segments.c ****             {
1615:Generated_Source\PSoC5/Segments.c ****                 if(relPosition < Segments_NUM_COM)
1616:Generated_Source\PSoC5/Segments.c ****                 {
1617:Generated_Source\PSoC5/Segments.c ****                     /* Only show displays that are not empty */
1618:Generated_Source\PSoC5/Segments.c ****                     Segments_segLBuffer[relPosition] = LO8(bufArray[i]);
1619:Generated_Source\PSoC5/Segments.c ****                 #if (Segments_NUM_SEG > 8u)
1620:Generated_Source\PSoC5/Segments.c ****                     Segments_segMBuffer[relPosition] = HI8(bufArray[i]);
1621:Generated_Source\PSoC5/Segments.c ****                 #endif /* (Segments_NUM_SEG > 8u) */
1622:Generated_Source\PSoC5/Segments.c ****                 }
1623:Generated_Source\PSoC5/Segments.c ****                 relPosition++;
1624:Generated_Source\PSoC5/Segments.c ****             }
ARM GAS  C:\Users\Esteban\AppData\Local\Temp\ccHxlO6N.s 			page 46


1625:Generated_Source\PSoC5/Segments.c ****         }
1626:Generated_Source\PSoC5/Segments.c ****         /* Clear the rest of the positions to the right of value */
1627:Generated_Source\PSoC5/Segments.c ****         while(relPosition < digits)
1628:Generated_Source\PSoC5/Segments.c ****         {
1629:Generated_Source\PSoC5/Segments.c ****             /* Only show displays that are not empty */
1630:Generated_Source\PSoC5/Segments.c ****             Segments_segLBuffer[relPosition] = Segments_CLEAR;
1631:Generated_Source\PSoC5/Segments.c ****             #if (Segments_NUM_SEG > 8u)
1632:Generated_Source\PSoC5/Segments.c ****                 Segments_segMBuffer[relPosition] = Segments_CLEAR;
1633:Generated_Source\PSoC5/Segments.c ****             #endif /* (Segments_NUM_SEG > 8u) */
1634:Generated_Source\PSoC5/Segments.c ****             
1635:Generated_Source\PSoC5/Segments.c ****             relPosition++;
1636:Generated_Source\PSoC5/Segments.c ****         }
1637:Generated_Source\PSoC5/Segments.c ****     }
1638:Generated_Source\PSoC5/Segments.c ****     else
1639:Generated_Source\PSoC5/Segments.c ****     {
1640:Generated_Source\PSoC5/Segments.c ****         for(i = digits; i > 0u; i--)
1641:Generated_Source\PSoC5/Segments.c ****         {
1642:Generated_Source\PSoC5/Segments.c ****             if(((i + relPosition) - 1u) < Segments_NUM_COM)
1643:Generated_Source\PSoC5/Segments.c ****             {
1644:Generated_Source\PSoC5/Segments.c ****                 Segments_segLBuffer[(i + relPosition) - 1u] = LO8(bufArray[i-1u]);
1645:Generated_Source\PSoC5/Segments.c ****             #if (Segments_NUM_SEG > 8u)
1646:Generated_Source\PSoC5/Segments.c ****                 Segments_segMBuffer[(i + relPosition) - 1u] = HI8(bufArray[i-1u]);
1647:Generated_Source\PSoC5/Segments.c ****             #endif /* (Segments_NUM_SEG > 8u) */
1648:Generated_Source\PSoC5/Segments.c ****             }
1649:Generated_Source\PSoC5/Segments.c ****         }  
1650:Generated_Source\PSoC5/Segments.c ****     }
1651:Generated_Source\PSoC5/Segments.c **** }
1652:Generated_Source\PSoC5/Segments.c **** 
1653:Generated_Source\PSoC5/Segments.c **** 
1654:Generated_Source\PSoC5/Segments.c **** /*******************************************************************************
1655:Generated_Source\PSoC5/Segments.c **** * Function Name: Segments_Write14SegNumberHex
1656:Generated_Source\PSoC5/Segments.c **** ********************************************************************************
1657:Generated_Source\PSoC5/Segments.c **** *
1658:Generated_Source\PSoC5/Segments.c **** * Summary:
1659:Generated_Source\PSoC5/Segments.c **** *  Displays a hexadecimal number up to 8 characters long, starting at 'position'
1660:Generated_Source\PSoC5/Segments.c **** *  and extending for 'digits' characters. If you do not use the correct number
1661:Generated_Source\PSoC5/Segments.c **** *  of digits for your number, the least significant digits will be displayed. 
1662:Generated_Source\PSoC5/Segments.c **** *  For example, if value is 0xDEADBEEF, display is 0 and digits is 4, the result
1663:Generated_Source\PSoC5/Segments.c **** *  will be: BEEF.
1664:Generated_Source\PSoC5/Segments.c **** *
1665:Generated_Source\PSoC5/Segments.c **** * Parameters:
1666:Generated_Source\PSoC5/Segments.c **** *  uint32 number: The hexadecimal number to display. It is the responsibility 
1667:Generated_Source\PSoC5/Segments.c **** *                 of the user to ensure that the display has enough digits to 
1668:Generated_Source\PSoC5/Segments.c **** *                 accurately represent the number passed to this function. If 
1669:Generated_Source\PSoC5/Segments.c **** *                 not, only the least significant digits will be displayed.
1670:Generated_Source\PSoC5/Segments.c **** *  uint8 position: Position of the Display/Common to start number.
1671:Generated_Source\PSoC5/Segments.c **** *  uint8 digits: The number of digits you wish to use to display the value 
1672:Generated_Source\PSoC5/Segments.c **** *                passed into the function. If you do not use the correct number
1673:Generated_Source\PSoC5/Segments.c **** *                of digits for your number, the least significant digits will 
1674:Generated_Source\PSoC5/Segments.c **** *                be displayed.
1675:Generated_Source\PSoC5/Segments.c **** *  uint8 alignment: How to align the provided number in the allocated digits.
1676:Generated_Source\PSoC5/Segments.c **** *       RIGHT_ALIGN - Least significant digit occupies the rightmost digit
1677:Generated_Source\PSoC5/Segments.c **** *                     (position + digits). Unused digits are turned off unless
1678:Generated_Source\PSoC5/Segments.c **** *                     ZERO_PAD enabled.
1679:Generated_Source\PSoC5/Segments.c **** *       LEFT_ALIGN - Most significant digit (or negative sign) occupies the
1680:Generated_Source\PSoC5/Segments.c **** *                    digit specified by position. Unused digits are turned off.
1681:Generated_Source\PSoC5/Segments.c **** *       ZERO_PAD - Unused digits to the left are padded with leading zeros.
ARM GAS  C:\Users\Esteban\AppData\Local\Temp\ccHxlO6N.s 			page 47


1682:Generated_Source\PSoC5/Segments.c **** * Return:
1683:Generated_Source\PSoC5/Segments.c **** *  None
1684:Generated_Source\PSoC5/Segments.c **** *
1685:Generated_Source\PSoC5/Segments.c **** * Side effects:
1686:Generated_Source\PSoC5/Segments.c **** *  None
1687:Generated_Source\PSoC5/Segments.c **** *
1688:Generated_Source\PSoC5/Segments.c **** *******************************************************************************/
1689:Generated_Source\PSoC5/Segments.c **** void Segments_Write14SegNumberHex(uint32 number, uint8 position, uint8 digits, uint8 alignment)
1690:Generated_Source\PSoC5/Segments.c **** 
1691:Generated_Source\PSoC5/Segments.c **** {
1692:Generated_Source\PSoC5/Segments.c ****     uint8 i;
1693:Generated_Source\PSoC5/Segments.c ****     uint8 relPosition;
1694:Generated_Source\PSoC5/Segments.c ****     uint8 selectVal;
1695:Generated_Source\PSoC5/Segments.c ****     uint16 bufArray[8u] = {0u};
1696:Generated_Source\PSoC5/Segments.c ****     uint32 numberVal;
1697:Generated_Source\PSoC5/Segments.c ****     
1698:Generated_Source\PSoC5/Segments.c ****     numberVal = number;
1699:Generated_Source\PSoC5/Segments.c ****     
1700:Generated_Source\PSoC5/Segments.c ****     /* Fill up the temporary array */
1701:Generated_Source\PSoC5/Segments.c ****     for(i = digits; i > 0u; i--)
1702:Generated_Source\PSoC5/Segments.c ****     {
1703:Generated_Source\PSoC5/Segments.c ****         selectVal = (uint8)((uint8)numberVal & Segments_NIBBLE_MASK);
1704:Generated_Source\PSoC5/Segments.c ****         bufArray[i-1u] = Segments_EncodeNumber14Seg(selectVal);
1705:Generated_Source\PSoC5/Segments.c ****         numberVal = (uint32)((uint32)numberVal >> Segments_SHIFT_NIBBLE);
1706:Generated_Source\PSoC5/Segments.c ****     }
1707:Generated_Source\PSoC5/Segments.c ****     
1708:Generated_Source\PSoC5/Segments.c ****     /* Clean up the array */
1709:Generated_Source\PSoC5/Segments.c ****     for(i = 0u; i < digits; i++)
1710:Generated_Source\PSoC5/Segments.c ****     {
1711:Generated_Source\PSoC5/Segments.c ****         if (bufArray[i] != Segments_ZERO_14CHAR)
1712:Generated_Source\PSoC5/Segments.c ****         {
1713:Generated_Source\PSoC5/Segments.c ****             /* Exit when encountering non-zero number */
1714:Generated_Source\PSoC5/Segments.c ****             break;
1715:Generated_Source\PSoC5/Segments.c ****         }
1716:Generated_Source\PSoC5/Segments.c ****         else
1717:Generated_Source\PSoC5/Segments.c ****         {
1718:Generated_Source\PSoC5/Segments.c ****             /* Turn off the display */
1719:Generated_Source\PSoC5/Segments.c ****             bufArray[i] = Segments_CLEAR_16;
1720:Generated_Source\PSoC5/Segments.c ****         }    
1721:Generated_Source\PSoC5/Segments.c ****     }
1722:Generated_Source\PSoC5/Segments.c ****     
1723:Generated_Source\PSoC5/Segments.c ****     relPosition = position;
1724:Generated_Source\PSoC5/Segments.c ****     
1725:Generated_Source\PSoC5/Segments.c ****     /* Place the values in the segment array according to alignment */
1726:Generated_Source\PSoC5/Segments.c ****     if(alignment == Segments_LEFT_ALIGN)
1727:Generated_Source\PSoC5/Segments.c ****     {
1728:Generated_Source\PSoC5/Segments.c ****         for(i = 0u; i < digits; i++)
1729:Generated_Source\PSoC5/Segments.c ****         {
1730:Generated_Source\PSoC5/Segments.c ****             if(bufArray[i] != Segments_CLEAR_16)
1731:Generated_Source\PSoC5/Segments.c ****             {
1732:Generated_Source\PSoC5/Segments.c ****                 if(relPosition < Segments_NUM_COM)
1733:Generated_Source\PSoC5/Segments.c ****                 {
1734:Generated_Source\PSoC5/Segments.c ****                     /* Only show displays that are not empty */
1735:Generated_Source\PSoC5/Segments.c ****                     Segments_segLBuffer[relPosition] = LO8(bufArray[i]);
1736:Generated_Source\PSoC5/Segments.c ****                 #if (Segments_NUM_SEG > 8u)
1737:Generated_Source\PSoC5/Segments.c ****                     Segments_segMBuffer[relPosition] = HI8(bufArray[i]);
1738:Generated_Source\PSoC5/Segments.c ****                 #endif /* (Segments_NUM_SEG > 8u) */
ARM GAS  C:\Users\Esteban\AppData\Local\Temp\ccHxlO6N.s 			page 48


1739:Generated_Source\PSoC5/Segments.c ****                 }
1740:Generated_Source\PSoC5/Segments.c ****                 relPosition++;
1741:Generated_Source\PSoC5/Segments.c ****             }
1742:Generated_Source\PSoC5/Segments.c ****         }
1743:Generated_Source\PSoC5/Segments.c ****         /* Clear the rest of the positions to the right of value */
1744:Generated_Source\PSoC5/Segments.c ****         while(relPosition < digits)
1745:Generated_Source\PSoC5/Segments.c ****         {
1746:Generated_Source\PSoC5/Segments.c ****             /* Only show displays that are not empty */
1747:Generated_Source\PSoC5/Segments.c ****             Segments_segLBuffer[relPosition] = Segments_CLEAR;
1748:Generated_Source\PSoC5/Segments.c ****             #if (Segments_NUM_SEG > 8u)
1749:Generated_Source\PSoC5/Segments.c ****                 Segments_segMBuffer[relPosition] = Segments_CLEAR;
1750:Generated_Source\PSoC5/Segments.c ****             #endif /* (Segments_NUM_SEG > 8u) */
1751:Generated_Source\PSoC5/Segments.c ****             
1752:Generated_Source\PSoC5/Segments.c ****             relPosition++;
1753:Generated_Source\PSoC5/Segments.c ****         }
1754:Generated_Source\PSoC5/Segments.c ****     }
1755:Generated_Source\PSoC5/Segments.c ****     else
1756:Generated_Source\PSoC5/Segments.c ****     {
1757:Generated_Source\PSoC5/Segments.c ****         for(i = digits; i > 0u; i--)
1758:Generated_Source\PSoC5/Segments.c ****         {
1759:Generated_Source\PSoC5/Segments.c ****             if(((i + relPosition) - 1u) < Segments_NUM_COM)
1760:Generated_Source\PSoC5/Segments.c ****             {
1761:Generated_Source\PSoC5/Segments.c ****                 Segments_segLBuffer[(i + relPosition) - 1u] = LO8(bufArray[i-1u]);
1762:Generated_Source\PSoC5/Segments.c ****             #if (Segments_NUM_SEG > 8u)
1763:Generated_Source\PSoC5/Segments.c ****                 Segments_segMBuffer[(i + relPosition) - 1u] = HI8(bufArray[i-1u]);
1764:Generated_Source\PSoC5/Segments.c ****             #endif /* (Segments_NUM_SEG > 8u) */
1765:Generated_Source\PSoC5/Segments.c ****             }
1766:Generated_Source\PSoC5/Segments.c ****         }  
1767:Generated_Source\PSoC5/Segments.c ****     }
1768:Generated_Source\PSoC5/Segments.c **** }
1769:Generated_Source\PSoC5/Segments.c **** 
1770:Generated_Source\PSoC5/Segments.c **** 
1771:Generated_Source\PSoC5/Segments.c **** /*******************************************************************************
1772:Generated_Source\PSoC5/Segments.c **** * Function Name: Segments_WriteString14Seg
1773:Generated_Source\PSoC5/Segments.c **** ********************************************************************************
1774:Generated_Source\PSoC5/Segments.c **** *
1775:Generated_Source\PSoC5/Segments.c **** * Summary:
1776:Generated_Source\PSoC5/Segments.c **** *  Displays a null terminated string starting at 'position' and ending at 
1777:Generated_Source\PSoC5/Segments.c **** *  either the  the string or the  the display. The displayable 
1778:Generated_Source\PSoC5/Segments.c **** *  characters are the same for the LED_Driver_PutCharacter() function. 
1779:Generated_Source\PSoC5/Segments.c **** *  Non-displayable characters will produce a blank space.
1780:Generated_Source\PSoC5/Segments.c **** *
1781:Generated_Source\PSoC5/Segments.c **** * Parameters:
1782:Generated_Source\PSoC5/Segments.c **** *  char8 const character[]: The null terminated string to be displayed.
1783:Generated_Source\PSoC5/Segments.c **** *  uint8 position: The position to start the string.
1784:Generated_Source\PSoC5/Segments.c **** *
1785:Generated_Source\PSoC5/Segments.c **** * Return:
1786:Generated_Source\PSoC5/Segments.c **** *  None
1787:Generated_Source\PSoC5/Segments.c **** *
1788:Generated_Source\PSoC5/Segments.c **** * Side effects:
1789:Generated_Source\PSoC5/Segments.c **** *  None
1790:Generated_Source\PSoC5/Segments.c **** *
1791:Generated_Source\PSoC5/Segments.c **** *******************************************************************************/
1792:Generated_Source\PSoC5/Segments.c **** void Segments_WriteString14Seg(char8 const character[], uint8 position)
1793:Generated_Source\PSoC5/Segments.c **** 
1794:Generated_Source\PSoC5/Segments.c **** {
1795:Generated_Source\PSoC5/Segments.c ****     uint8 currPosition;
ARM GAS  C:\Users\Esteban\AppData\Local\Temp\ccHxlO6N.s 			page 49


1796:Generated_Source\PSoC5/Segments.c ****     uint8 sizeLimit;
1797:Generated_Source\PSoC5/Segments.c ****     uint8 i = 0u;
1798:Generated_Source\PSoC5/Segments.c ****     uint16 charDisplay;
1799:Generated_Source\PSoC5/Segments.c ****     
1800:Generated_Source\PSoC5/Segments.c ****     sizeLimit = (uint8)(strlen(character)) + position;
1801:Generated_Source\PSoC5/Segments.c ****     
1802:Generated_Source\PSoC5/Segments.c ****     for(currPosition = position; currPosition < Segments_NUM_COM; currPosition++)
1803:Generated_Source\PSoC5/Segments.c ****     {
1804:Generated_Source\PSoC5/Segments.c ****         if(currPosition < sizeLimit)
1805:Generated_Source\PSoC5/Segments.c ****         {
1806:Generated_Source\PSoC5/Segments.c ****             charDisplay = Segments_EncodeChar14Seg(character[i]);
1807:Generated_Source\PSoC5/Segments.c ****             Segments_segLBuffer[currPosition] = LO8(charDisplay);
1808:Generated_Source\PSoC5/Segments.c ****             #if (Segments_NUM_SEG > 8u)
1809:Generated_Source\PSoC5/Segments.c ****             Segments_segMBuffer[currPosition] = HI8(charDisplay);
1810:Generated_Source\PSoC5/Segments.c ****             #endif /* (Segments_NUM_SEG > 8u) */
1811:Generated_Source\PSoC5/Segments.c ****             i++;
1812:Generated_Source\PSoC5/Segments.c ****         }
1813:Generated_Source\PSoC5/Segments.c ****     }
1814:Generated_Source\PSoC5/Segments.c **** }
1815:Generated_Source\PSoC5/Segments.c **** 
1816:Generated_Source\PSoC5/Segments.c **** 
1817:Generated_Source\PSoC5/Segments.c **** /*******************************************************************************
1818:Generated_Source\PSoC5/Segments.c **** * Function Name: Segments_PutChar14Seg
1819:Generated_Source\PSoC5/Segments.c **** ********************************************************************************
1820:Generated_Source\PSoC5/Segments.c **** *
1821:Generated_Source\PSoC5/Segments.c **** * Summary:
1822:Generated_Source\PSoC5/Segments.c **** *  Displays an ascii encoded character at 'position'. This function can display
1823:Generated_Source\PSoC5/Segments.c **** *  all alphanumeric characters. The function can also display '-', '.', '_', 
1824:Generated_Source\PSoC5/Segments.c **** *  ' ', and '='. All unknown characters are displayed as a space.
1825:Generated_Source\PSoC5/Segments.c **** *
1826:Generated_Source\PSoC5/Segments.c **** * Parameters:
1827:Generated_Source\PSoC5/Segments.c **** *  char8 character: ASCII character.
1828:Generated_Source\PSoC5/Segments.c **** *  uint8 position: The position of the character.
1829:Generated_Source\PSoC5/Segments.c **** *
1830:Generated_Source\PSoC5/Segments.c **** * Return:
1831:Generated_Source\PSoC5/Segments.c **** *  None
1832:Generated_Source\PSoC5/Segments.c **** *
1833:Generated_Source\PSoC5/Segments.c **** * Side effects:
1834:Generated_Source\PSoC5/Segments.c **** *  None
1835:Generated_Source\PSoC5/Segments.c **** *
1836:Generated_Source\PSoC5/Segments.c **** *******************************************************************************/
1837:Generated_Source\PSoC5/Segments.c **** void Segments_PutChar14Seg(char8 character , uint8 position)
1838:Generated_Source\PSoC5/Segments.c **** 
1839:Generated_Source\PSoC5/Segments.c **** {
1840:Generated_Source\PSoC5/Segments.c ****     uint16 charDisplay;
1841:Generated_Source\PSoC5/Segments.c ****     
1842:Generated_Source\PSoC5/Segments.c ****     if(position < Segments_NUM_COM)
1843:Generated_Source\PSoC5/Segments.c ****     {
1844:Generated_Source\PSoC5/Segments.c ****         charDisplay = Segments_EncodeChar14Seg(character);
1845:Generated_Source\PSoC5/Segments.c ****         Segments_segLBuffer[position] = LO8(charDisplay);
1846:Generated_Source\PSoC5/Segments.c ****     #if (Segments_NUM_SEG > 8u)
1847:Generated_Source\PSoC5/Segments.c ****         Segments_segMBuffer[position] = HI8(charDisplay);
1848:Generated_Source\PSoC5/Segments.c ****     #endif /* (Segments_NUM_SEG > 8u) */
1849:Generated_Source\PSoC5/Segments.c ****     }
1850:Generated_Source\PSoC5/Segments.c **** }
1851:Generated_Source\PSoC5/Segments.c **** 
1852:Generated_Source\PSoC5/Segments.c **** 
ARM GAS  C:\Users\Esteban\AppData\Local\Temp\ccHxlO6N.s 			page 50


1853:Generated_Source\PSoC5/Segments.c **** /*******************************************************************************
1854:Generated_Source\PSoC5/Segments.c **** * Function Name: Segments_Write14SegDigitDec
1855:Generated_Source\PSoC5/Segments.c **** ********************************************************************************
1856:Generated_Source\PSoC5/Segments.c **** *
1857:Generated_Source\PSoC5/Segments.c **** * Summary:
1858:Generated_Source\PSoC5/Segments.c **** *  Displays a single digit on the specified display. The number in 'digit' 
1859:Generated_Source\PSoC5/Segments.c **** *  (0-9) is placed on 'position'.
1860:Generated_Source\PSoC5/Segments.c **** *
1861:Generated_Source\PSoC5/Segments.c **** * Parameters:
1862:Generated_Source\PSoC5/Segments.c **** *  uint8 digit: A number between 0 and 9 to display.
1863:Generated_Source\PSoC5/Segments.c **** *  uint8 position: Position of the display in which to place the number.
1864:Generated_Source\PSoC5/Segments.c **** *
1865:Generated_Source\PSoC5/Segments.c **** * Return:
1866:Generated_Source\PSoC5/Segments.c **** *  None
1867:Generated_Source\PSoC5/Segments.c **** *
1868:Generated_Source\PSoC5/Segments.c **** * Side effects:
1869:Generated_Source\PSoC5/Segments.c **** *  None
1870:Generated_Source\PSoC5/Segments.c **** *
1871:Generated_Source\PSoC5/Segments.c **** *******************************************************************************/
1872:Generated_Source\PSoC5/Segments.c **** void Segments_Write14SegDigitDec(uint8 digit, uint8 position)
1873:Generated_Source\PSoC5/Segments.c **** 
1874:Generated_Source\PSoC5/Segments.c **** {
1875:Generated_Source\PSoC5/Segments.c ****     uint16 charDisplay;
1876:Generated_Source\PSoC5/Segments.c ****     
1877:Generated_Source\PSoC5/Segments.c ****     if((digit < 10u) && (position < Segments_NUM_COM))
1878:Generated_Source\PSoC5/Segments.c ****     {
1879:Generated_Source\PSoC5/Segments.c ****         charDisplay = Segments_EncodeNumber14Seg(digit);
1880:Generated_Source\PSoC5/Segments.c ****         Segments_segLBuffer[position] = LO8(charDisplay);
1881:Generated_Source\PSoC5/Segments.c ****     #if (Segments_NUM_SEG > 8u)
1882:Generated_Source\PSoC5/Segments.c ****         Segments_segMBuffer[position] = HI8(charDisplay);
1883:Generated_Source\PSoC5/Segments.c ****     #endif /* (Segments_NUM_SEG > 8u) */
1884:Generated_Source\PSoC5/Segments.c ****     }
1885:Generated_Source\PSoC5/Segments.c **** }
1886:Generated_Source\PSoC5/Segments.c **** 
1887:Generated_Source\PSoC5/Segments.c **** 
1888:Generated_Source\PSoC5/Segments.c **** /*******************************************************************************
1889:Generated_Source\PSoC5/Segments.c **** * Function Name: Segments_Write14SegDigitHex
1890:Generated_Source\PSoC5/Segments.c **** ********************************************************************************
1891:Generated_Source\PSoC5/Segments.c **** *
1892:Generated_Source\PSoC5/Segments.c **** * Summary:
1893:Generated_Source\PSoC5/Segments.c **** *  Displays a single digit at the specified position. The number in 'digit' 
1894:Generated_Source\PSoC5/Segments.c **** *  (0-F) is placed on 'position'.
1895:Generated_Source\PSoC5/Segments.c **** *
1896:Generated_Source\PSoC5/Segments.c **** * Parameters:
1897:Generated_Source\PSoC5/Segments.c **** *  uint8 digit: A number between 0x0 and 0xF (0 to 15)
1898:Generated_Source\PSoC5/Segments.c **** *  uint8 position: The position in which to place the number.
1899:Generated_Source\PSoC5/Segments.c **** *
1900:Generated_Source\PSoC5/Segments.c **** * Return:
1901:Generated_Source\PSoC5/Segments.c **** *  None
1902:Generated_Source\PSoC5/Segments.c **** *
1903:Generated_Source\PSoC5/Segments.c **** * Side effects:
1904:Generated_Source\PSoC5/Segments.c **** *  None
1905:Generated_Source\PSoC5/Segments.c **** *
1906:Generated_Source\PSoC5/Segments.c **** *******************************************************************************/
1907:Generated_Source\PSoC5/Segments.c **** void Segments_Write14SegDigitHex(uint8 digit, uint8 position)
1908:Generated_Source\PSoC5/Segments.c **** 
1909:Generated_Source\PSoC5/Segments.c **** {
ARM GAS  C:\Users\Esteban\AppData\Local\Temp\ccHxlO6N.s 			page 51


1910:Generated_Source\PSoC5/Segments.c ****     uint16 charDisplay;
1911:Generated_Source\PSoC5/Segments.c **** 
1912:Generated_Source\PSoC5/Segments.c ****     if(position < Segments_NUM_COM)
1913:Generated_Source\PSoC5/Segments.c ****     {
1914:Generated_Source\PSoC5/Segments.c ****         charDisplay = Segments_EncodeNumber14Seg(digit);
1915:Generated_Source\PSoC5/Segments.c ****         Segments_segLBuffer[position] = LO8(charDisplay);
1916:Generated_Source\PSoC5/Segments.c ****     #if (Segments_NUM_SEG > 8u)
1917:Generated_Source\PSoC5/Segments.c ****         Segments_segMBuffer[position] = HI8(charDisplay);
1918:Generated_Source\PSoC5/Segments.c ****     #endif /* (Segments_NUM_SEG > 8u) */
1919:Generated_Source\PSoC5/Segments.c ****     }
1920:Generated_Source\PSoC5/Segments.c **** }
1921:Generated_Source\PSoC5/Segments.c **** 
1922:Generated_Source\PSoC5/Segments.c **** 
1923:Generated_Source\PSoC5/Segments.c **** /*******************************************************************************
1924:Generated_Source\PSoC5/Segments.c **** * Function Name: Segments_Write16SegNumberDec
1925:Generated_Source\PSoC5/Segments.c **** ********************************************************************************
1926:Generated_Source\PSoC5/Segments.c **** *
1927:Generated_Source\PSoC5/Segments.c **** * Summary:
1928:Generated_Source\PSoC5/Segments.c **** *  Displays a signed integer up to 8 characters long, starting at 'position' 
1929:Generated_Source\PSoC5/Segments.c **** *  and extending for 'digits' characters. The negative sign will take an extra 
1930:Generated_Source\PSoC5/Segments.c **** *  digit if it is required.
1931:Generated_Source\PSoC5/Segments.c **** *
1932:Generated_Source\PSoC5/Segments.c **** * Parameters:
1933:Generated_Source\PSoC5/Segments.c **** *  int32 number: a signed integer number to display. It is the responsibility 
1934:Generated_Source\PSoC5/Segments.c **** *                of the user to ensure that the display has enough digits to 
1935:Generated_Source\PSoC5/Segments.c **** *                accurately represent the number passed to this function. If 
1936:Generated_Source\PSoC5/Segments.c **** *                not, the least significant digits will be displayed. Also 
1937:Generated_Source\PSoC5/Segments.c **** *                note that a negative number will require 1 more digit than the
1938:Generated_Source\PSoC5/Segments.c **** *                equivalent positive number to display the negative sign.
1939:Generated_Source\PSoC5/Segments.c **** *  uint8 position: Digit position of the Display/Common RAM to start.
1940:Generated_Source\PSoC5/Segments.c **** *  uint8 digits: The number of digits you wish to use to display the value 
1941:Generated_Source\PSoC5/Segments.c **** *                passed into the function. The negative sign will take an extra 
1942:Generated_Source\PSoC5/Segments.c **** *                digit if it is required.
1943:Generated_Source\PSoC5/Segments.c **** *  uint8 alignment: How to align the provided number in the allocated digits.
1944:Generated_Source\PSoC5/Segments.c **** *       RIGHT_ALIGN - Least significant digit occupies the rightmost digit
1945:Generated_Source\PSoC5/Segments.c **** *                     (position + digits). Unused digits are turned off unless
1946:Generated_Source\PSoC5/Segments.c **** *                     ZERO_PAD enabled.
1947:Generated_Source\PSoC5/Segments.c **** *       LEFT_ALIGN - Most significant digit (or negative sign) occupies the
1948:Generated_Source\PSoC5/Segments.c **** *                    digit specified by position. Unused digits are turned off.
1949:Generated_Source\PSoC5/Segments.c **** *       ZERO_PAD - Unused digits to the left are padded with leading zeros.
1950:Generated_Source\PSoC5/Segments.c **** * Return:
1951:Generated_Source\PSoC5/Segments.c **** *  None
1952:Generated_Source\PSoC5/Segments.c **** *
1953:Generated_Source\PSoC5/Segments.c **** * Side effects:
1954:Generated_Source\PSoC5/Segments.c **** *  None
1955:Generated_Source\PSoC5/Segments.c **** *
1956:Generated_Source\PSoC5/Segments.c **** *******************************************************************************/
1957:Generated_Source\PSoC5/Segments.c **** void Segments_Write16SegNumberDec(int32 number, uint8 position, uint8 digits, uint8 alignment)
1958:Generated_Source\PSoC5/Segments.c **** 
1959:Generated_Source\PSoC5/Segments.c **** {
1960:Generated_Source\PSoC5/Segments.c ****     uint8 i;
1961:Generated_Source\PSoC5/Segments.c ****     uint8 relPosition;
1962:Generated_Source\PSoC5/Segments.c ****     uint8 numberSign;
1963:Generated_Source\PSoC5/Segments.c ****     uint8 selectVal;
1964:Generated_Source\PSoC5/Segments.c ****     uint8 zeroCount = 0u;
1965:Generated_Source\PSoC5/Segments.c ****     uint16 bufArray[8u] = {0u};
1966:Generated_Source\PSoC5/Segments.c ****     uint32 numberVal;
ARM GAS  C:\Users\Esteban\AppData\Local\Temp\ccHxlO6N.s 			page 52


1967:Generated_Source\PSoC5/Segments.c ****     
1968:Generated_Source\PSoC5/Segments.c ****     /* Routine to extract the sign and to convert to unsigned */
1969:Generated_Source\PSoC5/Segments.c ****     if(number >= Segments_ZERO_NEG)
1970:Generated_Source\PSoC5/Segments.c ****     {
1971:Generated_Source\PSoC5/Segments.c ****         numberVal = (uint32)number;
1972:Generated_Source\PSoC5/Segments.c ****         numberSign = Segments_UNSIGNED;
1973:Generated_Source\PSoC5/Segments.c ****     }
1974:Generated_Source\PSoC5/Segments.c ****     else
1975:Generated_Source\PSoC5/Segments.c ****     {
1976:Generated_Source\PSoC5/Segments.c ****         numberVal = (uint32)(-number);
1977:Generated_Source\PSoC5/Segments.c ****         numberSign = Segments_SIGNED;
1978:Generated_Source\PSoC5/Segments.c ****     }
1979:Generated_Source\PSoC5/Segments.c ****     
1980:Generated_Source\PSoC5/Segments.c ****     /* Fill up the temporary array */
1981:Generated_Source\PSoC5/Segments.c ****     for(i = digits; i > 0u; i--)
1982:Generated_Source\PSoC5/Segments.c ****     {
1983:Generated_Source\PSoC5/Segments.c ****         selectVal = (uint8)(numberVal % 10u);
1984:Generated_Source\PSoC5/Segments.c ****         bufArray[i-1u] = Segments_EncodeNumber16Seg(selectVal);
1985:Generated_Source\PSoC5/Segments.c ****         numberVal = numberVal / 10u;
1986:Generated_Source\PSoC5/Segments.c ****     }
1987:Generated_Source\PSoC5/Segments.c ****     
1988:Generated_Source\PSoC5/Segments.c ****     /* Clean up the array and place sign if needed */
1989:Generated_Source\PSoC5/Segments.c ****     if(alignment == Segments_ZERO_PAD)
1990:Generated_Source\PSoC5/Segments.c ****     {
1991:Generated_Source\PSoC5/Segments.c ****         if(numberSign == Segments_SIGNED)
1992:Generated_Source\PSoC5/Segments.c ****         {
1993:Generated_Source\PSoC5/Segments.c ****             /* Place sign on the MSB */
1994:Generated_Source\PSoC5/Segments.c ****             bufArray[0u] = Segments_EncodeChar16Seg('-');
1995:Generated_Source\PSoC5/Segments.c ****         }
1996:Generated_Source\PSoC5/Segments.c ****     }
1997:Generated_Source\PSoC5/Segments.c ****     else
1998:Generated_Source\PSoC5/Segments.c ****     {
1999:Generated_Source\PSoC5/Segments.c ****         for(i = 0u; i < digits; i++)
2000:Generated_Source\PSoC5/Segments.c ****         {
2001:Generated_Source\PSoC5/Segments.c ****             if (bufArray[i] != Segments_ZERO_16CHAR)
2002:Generated_Source\PSoC5/Segments.c ****             {
2003:Generated_Source\PSoC5/Segments.c ****                 if(numberSign == Segments_SIGNED)
2004:Generated_Source\PSoC5/Segments.c ****                 {
2005:Generated_Source\PSoC5/Segments.c ****                     if(i == 0u)
2006:Generated_Source\PSoC5/Segments.c ****                     {
2007:Generated_Source\PSoC5/Segments.c ****                         /* Place sign on the MSB */
2008:Generated_Source\PSoC5/Segments.c ****                         bufArray[i] = Segments_EncodeChar16Seg('-');
2009:Generated_Source\PSoC5/Segments.c ****                     }
2010:Generated_Source\PSoC5/Segments.c ****                     else
2011:Generated_Source\PSoC5/Segments.c ****                     {
2012:Generated_Source\PSoC5/Segments.c ****                         /* Place sign before MSB */
2013:Generated_Source\PSoC5/Segments.c ****                         bufArray[i-1u] = Segments_EncodeChar16Seg('-');
2014:Generated_Source\PSoC5/Segments.c ****                     }
2015:Generated_Source\PSoC5/Segments.c ****                 }
2016:Generated_Source\PSoC5/Segments.c ****                 /* Exit when encountering non-zero number */
2017:Generated_Source\PSoC5/Segments.c ****                 break;
2018:Generated_Source\PSoC5/Segments.c ****             }
2019:Generated_Source\PSoC5/Segments.c ****             else
2020:Generated_Source\PSoC5/Segments.c ****             {
2021:Generated_Source\PSoC5/Segments.c ****                 if(zeroCount != (digits - 1u))
2022:Generated_Source\PSoC5/Segments.c ****                 {
2023:Generated_Source\PSoC5/Segments.c ****                     /* Turn off the display */
ARM GAS  C:\Users\Esteban\AppData\Local\Temp\ccHxlO6N.s 			page 53


2024:Generated_Source\PSoC5/Segments.c ****                     bufArray[i] = Segments_CLEAR_16;
2025:Generated_Source\PSoC5/Segments.c ****                     zeroCount++;
2026:Generated_Source\PSoC5/Segments.c ****                 }
2027:Generated_Source\PSoC5/Segments.c ****             }    
2028:Generated_Source\PSoC5/Segments.c ****         }
2029:Generated_Source\PSoC5/Segments.c ****     }
2030:Generated_Source\PSoC5/Segments.c ****     
2031:Generated_Source\PSoC5/Segments.c ****     relPosition = position;
2032:Generated_Source\PSoC5/Segments.c ****     
2033:Generated_Source\PSoC5/Segments.c ****     /* Place the values in the segment array according to alignment */
2034:Generated_Source\PSoC5/Segments.c ****     if(alignment == Segments_LEFT_ALIGN)
2035:Generated_Source\PSoC5/Segments.c ****     {
2036:Generated_Source\PSoC5/Segments.c ****         for(i = 0u; i < digits; i++)
2037:Generated_Source\PSoC5/Segments.c ****         {
2038:Generated_Source\PSoC5/Segments.c ****             if(bufArray[i] != Segments_CLEAR_16)
2039:Generated_Source\PSoC5/Segments.c ****             {
2040:Generated_Source\PSoC5/Segments.c ****                 if(relPosition < Segments_NUM_COM)
2041:Generated_Source\PSoC5/Segments.c ****                 {
2042:Generated_Source\PSoC5/Segments.c ****                     /* Only show displays that are not empty */
2043:Generated_Source\PSoC5/Segments.c ****                     Segments_segLBuffer[relPosition] = LO8(bufArray[i]);
2044:Generated_Source\PSoC5/Segments.c ****                 #if (Segments_NUM_SEG > 8u)
2045:Generated_Source\PSoC5/Segments.c ****                     Segments_segMBuffer[relPosition] = HI8(bufArray[i]);
2046:Generated_Source\PSoC5/Segments.c ****                 #endif /* (Segments_NUM_SEG > 8u) */
2047:Generated_Source\PSoC5/Segments.c ****                 }
2048:Generated_Source\PSoC5/Segments.c ****                 relPosition++;
2049:Generated_Source\PSoC5/Segments.c ****             }
2050:Generated_Source\PSoC5/Segments.c ****         }
2051:Generated_Source\PSoC5/Segments.c ****         /* Clear the rest of the positions to the right of value */
2052:Generated_Source\PSoC5/Segments.c ****         while(relPosition < digits)
2053:Generated_Source\PSoC5/Segments.c ****         {
2054:Generated_Source\PSoC5/Segments.c ****             /* Only show displays that are not empty */
2055:Generated_Source\PSoC5/Segments.c ****             Segments_segLBuffer[relPosition] = Segments_CLEAR;
2056:Generated_Source\PSoC5/Segments.c ****             #if (Segments_NUM_SEG > 8u)
2057:Generated_Source\PSoC5/Segments.c ****                 Segments_segMBuffer[relPosition] = Segments_CLEAR;
2058:Generated_Source\PSoC5/Segments.c ****             #endif /* (Segments_NUM_SEG > 8u) */
2059:Generated_Source\PSoC5/Segments.c ****             
2060:Generated_Source\PSoC5/Segments.c ****             relPosition++;
2061:Generated_Source\PSoC5/Segments.c ****         }
2062:Generated_Source\PSoC5/Segments.c ****     }
2063:Generated_Source\PSoC5/Segments.c ****     else
2064:Generated_Source\PSoC5/Segments.c ****     {
2065:Generated_Source\PSoC5/Segments.c ****         for(i = digits; i > 0u; i--)
2066:Generated_Source\PSoC5/Segments.c ****         {
2067:Generated_Source\PSoC5/Segments.c ****             if(((i + relPosition) - 1u) < Segments_NUM_COM)
2068:Generated_Source\PSoC5/Segments.c ****             {
2069:Generated_Source\PSoC5/Segments.c ****                 Segments_segLBuffer[(i + relPosition) - 1u] = LO8(bufArray[i-1u]);
2070:Generated_Source\PSoC5/Segments.c ****             #if (Segments_NUM_SEG > 8u)
2071:Generated_Source\PSoC5/Segments.c ****                 Segments_segMBuffer[(i + relPosition) - 1u] = HI8(bufArray[i-1u]);
2072:Generated_Source\PSoC5/Segments.c ****             #endif /* (Segments_NUM_SEG > 8u) */
2073:Generated_Source\PSoC5/Segments.c ****             }
2074:Generated_Source\PSoC5/Segments.c ****         }
2075:Generated_Source\PSoC5/Segments.c ****     }
2076:Generated_Source\PSoC5/Segments.c **** }
2077:Generated_Source\PSoC5/Segments.c **** 
2078:Generated_Source\PSoC5/Segments.c **** 
2079:Generated_Source\PSoC5/Segments.c **** /*******************************************************************************
2080:Generated_Source\PSoC5/Segments.c **** * Function Name: Segments_Write16SegNumberHex
ARM GAS  C:\Users\Esteban\AppData\Local\Temp\ccHxlO6N.s 			page 54


2081:Generated_Source\PSoC5/Segments.c **** ********************************************************************************
2082:Generated_Source\PSoC5/Segments.c **** *
2083:Generated_Source\PSoC5/Segments.c **** * Summary:
2084:Generated_Source\PSoC5/Segments.c **** *  Displays a hexadecimal number up to 8 characters long, starting at 'position'
2085:Generated_Source\PSoC5/Segments.c **** *  and extending for 'digits' characters. If you do not use the correct number 
2086:Generated_Source\PSoC5/Segments.c **** *  of digits for your number, the least significant digits will be displayed. 
2087:Generated_Source\PSoC5/Segments.c **** *  For example, if value is 0xDEADBEEF, display is 0 and digits is 4, the result
2088:Generated_Source\PSoC5/Segments.c **** *  will be: BEEF.
2089:Generated_Source\PSoC5/Segments.c **** *
2090:Generated_Source\PSoC5/Segments.c **** * Parameters:
2091:Generated_Source\PSoC5/Segments.c **** *  uint32 number: The hexadecimal number to display. It is the responsibility of
2092:Generated_Source\PSoC5/Segments.c **** *  the user to ensure that the display has enough digits to accurately represent
2093:Generated_Source\PSoC5/Segments.c **** *  the number passed to this function.
2094:Generated_Source\PSoC5/Segments.c **** *  uint8 position: Position of the Display/Common to start number.
2095:Generated_Source\PSoC5/Segments.c **** *  uint8 digits: The number of digits you wish to use to display the value 
2096:Generated_Source\PSoC5/Segments.c **** *                passed into the function.
2097:Generated_Source\PSoC5/Segments.c **** *  uint8 alignment: How to align the provided number in the allocated digits.
2098:Generated_Source\PSoC5/Segments.c **** *       RIGHT_ALIGN - Least significant digit occupies the rightmost digit
2099:Generated_Source\PSoC5/Segments.c **** *                     (position + digits). Unused digits are turned off unless
2100:Generated_Source\PSoC5/Segments.c **** *                     ZERO_PAD enabled.
2101:Generated_Source\PSoC5/Segments.c **** *       LEFT_ALIGN - Most significant digit (or negative sign) occupies the
2102:Generated_Source\PSoC5/Segments.c **** *                    digit specified by position. Unused digits are turned off.
2103:Generated_Source\PSoC5/Segments.c **** *       ZERO_PAD - Unused digits to the left are padded with leading zeros.
2104:Generated_Source\PSoC5/Segments.c **** * Return:
2105:Generated_Source\PSoC5/Segments.c **** *  None
2106:Generated_Source\PSoC5/Segments.c **** *
2107:Generated_Source\PSoC5/Segments.c **** * Side effects:
2108:Generated_Source\PSoC5/Segments.c **** *  None
2109:Generated_Source\PSoC5/Segments.c **** *
2110:Generated_Source\PSoC5/Segments.c **** *******************************************************************************/
2111:Generated_Source\PSoC5/Segments.c **** void Segments_Write16SegNumberHex(uint32 number, uint8 position, uint8 digits, uint8 alignment)
2112:Generated_Source\PSoC5/Segments.c **** 
2113:Generated_Source\PSoC5/Segments.c **** {
2114:Generated_Source\PSoC5/Segments.c ****     uint8 i;
2115:Generated_Source\PSoC5/Segments.c ****     uint8 relPosition;
2116:Generated_Source\PSoC5/Segments.c ****     uint8 selectVal;
2117:Generated_Source\PSoC5/Segments.c ****     uint16 bufArray[8u] = {0u};
2118:Generated_Source\PSoC5/Segments.c ****     uint32 numberVal;
2119:Generated_Source\PSoC5/Segments.c ****     
2120:Generated_Source\PSoC5/Segments.c ****     numberVal = number;
2121:Generated_Source\PSoC5/Segments.c ****     
2122:Generated_Source\PSoC5/Segments.c ****     /* Fill up the temporary array */
2123:Generated_Source\PSoC5/Segments.c ****     for(i = digits; i > 0u; i--)
2124:Generated_Source\PSoC5/Segments.c ****     {
2125:Generated_Source\PSoC5/Segments.c ****         selectVal = (uint8)((uint8)numberVal & Segments_NIBBLE_MASK);
2126:Generated_Source\PSoC5/Segments.c ****         bufArray[i-1u] = Segments_EncodeNumber16Seg(selectVal);
2127:Generated_Source\PSoC5/Segments.c ****         numberVal = (uint32)((uint32)numberVal >> Segments_SHIFT_NIBBLE);
2128:Generated_Source\PSoC5/Segments.c ****     }
2129:Generated_Source\PSoC5/Segments.c ****     
2130:Generated_Source\PSoC5/Segments.c ****     /* Clean up the array and place sign if needed */
2131:Generated_Source\PSoC5/Segments.c ****     for(i = 0u; i < digits; i++)
2132:Generated_Source\PSoC5/Segments.c ****     {
2133:Generated_Source\PSoC5/Segments.c ****         if (bufArray[i] != Segments_ZERO_16CHAR)
2134:Generated_Source\PSoC5/Segments.c ****         {
2135:Generated_Source\PSoC5/Segments.c ****             /* Exit when encountering non-zero number */
2136:Generated_Source\PSoC5/Segments.c ****             break;
2137:Generated_Source\PSoC5/Segments.c ****         }
ARM GAS  C:\Users\Esteban\AppData\Local\Temp\ccHxlO6N.s 			page 55


2138:Generated_Source\PSoC5/Segments.c ****         else
2139:Generated_Source\PSoC5/Segments.c ****         {
2140:Generated_Source\PSoC5/Segments.c ****             /* Turn off the display */
2141:Generated_Source\PSoC5/Segments.c ****             bufArray[i] = Segments_CLEAR_16;
2142:Generated_Source\PSoC5/Segments.c ****         }    
2143:Generated_Source\PSoC5/Segments.c ****     }
2144:Generated_Source\PSoC5/Segments.c ****     
2145:Generated_Source\PSoC5/Segments.c ****     relPosition = position;
2146:Generated_Source\PSoC5/Segments.c ****     
2147:Generated_Source\PSoC5/Segments.c ****     /* Place the values in the segment array according to alignment */
2148:Generated_Source\PSoC5/Segments.c ****     if(alignment == Segments_LEFT_ALIGN)
2149:Generated_Source\PSoC5/Segments.c ****     {
2150:Generated_Source\PSoC5/Segments.c ****         for(i = 0u; i < digits; i++)
2151:Generated_Source\PSoC5/Segments.c ****         {
2152:Generated_Source\PSoC5/Segments.c ****             if(bufArray[i] != Segments_CLEAR_16)
2153:Generated_Source\PSoC5/Segments.c ****             {
2154:Generated_Source\PSoC5/Segments.c ****                 if(relPosition < Segments_NUM_COM)
2155:Generated_Source\PSoC5/Segments.c ****                 {
2156:Generated_Source\PSoC5/Segments.c ****                     /* Only show displays that are not empty */
2157:Generated_Source\PSoC5/Segments.c ****                     Segments_segLBuffer[relPosition] = LO8(bufArray[i]);
2158:Generated_Source\PSoC5/Segments.c ****                 #if (Segments_NUM_SEG > 8u)
2159:Generated_Source\PSoC5/Segments.c ****                     Segments_segMBuffer[relPosition] = HI8(bufArray[i]);
2160:Generated_Source\PSoC5/Segments.c ****                 #endif /* (Segments_NUM_SEG > 8u) */
2161:Generated_Source\PSoC5/Segments.c ****                 }
2162:Generated_Source\PSoC5/Segments.c ****                 relPosition++;
2163:Generated_Source\PSoC5/Segments.c ****             }
2164:Generated_Source\PSoC5/Segments.c ****         }
2165:Generated_Source\PSoC5/Segments.c ****         /* Clear the rest of the positions to the right of value */
2166:Generated_Source\PSoC5/Segments.c ****         while(relPosition < digits)
2167:Generated_Source\PSoC5/Segments.c ****         {
2168:Generated_Source\PSoC5/Segments.c ****             /* Only show displays that are not empty */
2169:Generated_Source\PSoC5/Segments.c ****             Segments_segLBuffer[relPosition] = Segments_CLEAR;
2170:Generated_Source\PSoC5/Segments.c ****             #if (Segments_NUM_SEG > 8u)
2171:Generated_Source\PSoC5/Segments.c ****                 Segments_segMBuffer[relPosition] = Segments_CLEAR;
2172:Generated_Source\PSoC5/Segments.c ****             #endif /* (Segments_NUM_SEG > 8u) */
2173:Generated_Source\PSoC5/Segments.c ****             
2174:Generated_Source\PSoC5/Segments.c ****             relPosition++;
2175:Generated_Source\PSoC5/Segments.c ****         }
2176:Generated_Source\PSoC5/Segments.c ****     }
2177:Generated_Source\PSoC5/Segments.c ****     else
2178:Generated_Source\PSoC5/Segments.c ****     {
2179:Generated_Source\PSoC5/Segments.c ****         for(i = digits; i > 0u; i--)
2180:Generated_Source\PSoC5/Segments.c ****         {
2181:Generated_Source\PSoC5/Segments.c ****             if(((i + relPosition) - 1u) < Segments_NUM_COM)
2182:Generated_Source\PSoC5/Segments.c ****             {
2183:Generated_Source\PSoC5/Segments.c ****                 Segments_segLBuffer[(i + relPosition) - 1u] = LO8(bufArray[i-1u]);
2184:Generated_Source\PSoC5/Segments.c ****             #if (Segments_NUM_SEG > 8u)
2185:Generated_Source\PSoC5/Segments.c ****                 Segments_segMBuffer[(i + relPosition) - 1u] = HI8(bufArray[i-1u]);
2186:Generated_Source\PSoC5/Segments.c ****             #endif /* (Segments_NUM_SEG > 8u) */
2187:Generated_Source\PSoC5/Segments.c ****             }
2188:Generated_Source\PSoC5/Segments.c ****         }
2189:Generated_Source\PSoC5/Segments.c ****     }
2190:Generated_Source\PSoC5/Segments.c **** }
2191:Generated_Source\PSoC5/Segments.c **** 
2192:Generated_Source\PSoC5/Segments.c **** 
2193:Generated_Source\PSoC5/Segments.c **** /*******************************************************************************
2194:Generated_Source\PSoC5/Segments.c **** * Function Name: Segments_WriteString16Seg
ARM GAS  C:\Users\Esteban\AppData\Local\Temp\ccHxlO6N.s 			page 56


2195:Generated_Source\PSoC5/Segments.c **** ********************************************************************************
2196:Generated_Source\PSoC5/Segments.c **** *
2197:Generated_Source\PSoC5/Segments.c **** * Summary:
2198:Generated_Source\PSoC5/Segments.c **** *  Displays a null terminated string starting at 'position' and ending at either
2199:Generated_Source\PSoC5/Segments.c **** *  the  the string or the  the display. The displayable characters 
2200:Generated_Source\PSoC5/Segments.c **** *  are the same for the LED_Driver_PutCharacter() function. Non-displayable
2201:Generated_Source\PSoC5/Segments.c **** *  characters will produce a blank space.
2202:Generated_Source\PSoC5/Segments.c **** *
2203:Generated_Source\PSoC5/Segments.c **** * Parameters:
2204:Generated_Source\PSoC5/Segments.c **** *  char8 const character[]: The null terminated string to be displayed.
2205:Generated_Source\PSoC5/Segments.c **** *  uint8 position: The position to start the string.
2206:Generated_Source\PSoC5/Segments.c **** * Return:
2207:Generated_Source\PSoC5/Segments.c **** *  None
2208:Generated_Source\PSoC5/Segments.c **** *
2209:Generated_Source\PSoC5/Segments.c **** * Side effects:
2210:Generated_Source\PSoC5/Segments.c **** *  None
2211:Generated_Source\PSoC5/Segments.c **** *
2212:Generated_Source\PSoC5/Segments.c **** *******************************************************************************/
2213:Generated_Source\PSoC5/Segments.c **** void Segments_WriteString16Seg(char8 const character[], uint8 position)
2214:Generated_Source\PSoC5/Segments.c **** 
2215:Generated_Source\PSoC5/Segments.c **** {
2216:Generated_Source\PSoC5/Segments.c ****     uint8 currPosition;
2217:Generated_Source\PSoC5/Segments.c ****     uint8 sizeLimit;
2218:Generated_Source\PSoC5/Segments.c ****     uint8 i = 0u;
2219:Generated_Source\PSoC5/Segments.c ****     uint16 charDisplay;
2220:Generated_Source\PSoC5/Segments.c ****     
2221:Generated_Source\PSoC5/Segments.c ****     sizeLimit = (uint8)(strlen(character)) + position;
2222:Generated_Source\PSoC5/Segments.c ****     
2223:Generated_Source\PSoC5/Segments.c ****     for(currPosition = position; currPosition < Segments_NUM_COM; currPosition++)
2224:Generated_Source\PSoC5/Segments.c ****     {
2225:Generated_Source\PSoC5/Segments.c ****         if(currPosition < sizeLimit)
2226:Generated_Source\PSoC5/Segments.c ****         {
2227:Generated_Source\PSoC5/Segments.c ****             charDisplay = Segments_EncodeChar16Seg(character[i]);
2228:Generated_Source\PSoC5/Segments.c ****             Segments_segLBuffer[currPosition] = LO8(charDisplay);
2229:Generated_Source\PSoC5/Segments.c ****             #if (Segments_NUM_SEG > 8u)
2230:Generated_Source\PSoC5/Segments.c ****                 Segments_segMBuffer[currPosition] = HI8(charDisplay);
2231:Generated_Source\PSoC5/Segments.c ****             #endif /* (Segments_NUM_SEG > 8u) */
2232:Generated_Source\PSoC5/Segments.c ****             i++;
2233:Generated_Source\PSoC5/Segments.c ****         }
2234:Generated_Source\PSoC5/Segments.c ****     }
2235:Generated_Source\PSoC5/Segments.c **** }
2236:Generated_Source\PSoC5/Segments.c **** 
2237:Generated_Source\PSoC5/Segments.c **** 
2238:Generated_Source\PSoC5/Segments.c **** /*******************************************************************************
2239:Generated_Source\PSoC5/Segments.c **** * Function Name: Segments_PutChar16Seg
2240:Generated_Source\PSoC5/Segments.c **** ********************************************************************************
2241:Generated_Source\PSoC5/Segments.c **** *
2242:Generated_Source\PSoC5/Segments.c **** * Summary:
2243:Generated_Source\PSoC5/Segments.c **** *  Displays an ascii encoded character at 'position'. This function can display 
2244:Generated_Source\PSoC5/Segments.c **** *  all alphanumeric characters. The function can also display '-', '.', '_', 
2245:Generated_Source\PSoC5/Segments.c **** *  ' ', and '='. All unknown characters are displayed as a space.
2246:Generated_Source\PSoC5/Segments.c **** *
2247:Generated_Source\PSoC5/Segments.c **** * Parameters:
2248:Generated_Source\PSoC5/Segments.c **** *  char8 character: ASCII character.
2249:Generated_Source\PSoC5/Segments.c **** *  uint8 position: The position of the character.
2250:Generated_Source\PSoC5/Segments.c **** * Return:
2251:Generated_Source\PSoC5/Segments.c **** *  None
ARM GAS  C:\Users\Esteban\AppData\Local\Temp\ccHxlO6N.s 			page 57


2252:Generated_Source\PSoC5/Segments.c **** *
2253:Generated_Source\PSoC5/Segments.c **** * Side effects:
2254:Generated_Source\PSoC5/Segments.c **** *  None
2255:Generated_Source\PSoC5/Segments.c **** *
2256:Generated_Source\PSoC5/Segments.c **** *******************************************************************************/
2257:Generated_Source\PSoC5/Segments.c **** void Segments_PutChar16Seg(char8 character , uint8 position)
2258:Generated_Source\PSoC5/Segments.c **** 
2259:Generated_Source\PSoC5/Segments.c **** {
2260:Generated_Source\PSoC5/Segments.c ****     uint16 charDisplay;
2261:Generated_Source\PSoC5/Segments.c ****     
2262:Generated_Source\PSoC5/Segments.c ****     if(position < Segments_NUM_COM)
2263:Generated_Source\PSoC5/Segments.c ****     {
2264:Generated_Source\PSoC5/Segments.c ****         charDisplay = Segments_EncodeChar16Seg(character);
2265:Generated_Source\PSoC5/Segments.c ****         Segments_segLBuffer[position] = LO8(charDisplay);
2266:Generated_Source\PSoC5/Segments.c ****         #if (Segments_NUM_SEG > 8u)
2267:Generated_Source\PSoC5/Segments.c ****             Segments_segMBuffer[position] = HI8(charDisplay);
2268:Generated_Source\PSoC5/Segments.c ****         #endif /* (Segments_NUM_SEG > 8u) */
2269:Generated_Source\PSoC5/Segments.c ****     }
2270:Generated_Source\PSoC5/Segments.c **** }
2271:Generated_Source\PSoC5/Segments.c **** 
2272:Generated_Source\PSoC5/Segments.c **** 
2273:Generated_Source\PSoC5/Segments.c **** /*******************************************************************************
2274:Generated_Source\PSoC5/Segments.c **** * Function Name: Segments_Write16SegDigitDec
2275:Generated_Source\PSoC5/Segments.c **** ********************************************************************************
2276:Generated_Source\PSoC5/Segments.c **** *
2277:Generated_Source\PSoC5/Segments.c **** * Summary:
2278:Generated_Source\PSoC5/Segments.c **** *  Displays a single digit on the specified display. The number in 'digit' 
2279:Generated_Source\PSoC5/Segments.c **** *  (0-9) is placed on 'position'.
2280:Generated_Source\PSoC5/Segments.c **** *
2281:Generated_Source\PSoC5/Segments.c **** * Parameters:
2282:Generated_Source\PSoC5/Segments.c **** *  uint8 digit: A number between 0 and 9 to display.
2283:Generated_Source\PSoC5/Segments.c **** *  uint8 position: Position of the display in which to place the number.
2284:Generated_Source\PSoC5/Segments.c **** * Return:
2285:Generated_Source\PSoC5/Segments.c **** *  None
2286:Generated_Source\PSoC5/Segments.c **** *
2287:Generated_Source\PSoC5/Segments.c **** * Side effects:
2288:Generated_Source\PSoC5/Segments.c **** *  None
2289:Generated_Source\PSoC5/Segments.c **** *
2290:Generated_Source\PSoC5/Segments.c **** *******************************************************************************/
2291:Generated_Source\PSoC5/Segments.c **** void Segments_Write16SegDigitDec(uint8 digit, uint8 position)
2292:Generated_Source\PSoC5/Segments.c **** 
2293:Generated_Source\PSoC5/Segments.c **** {
2294:Generated_Source\PSoC5/Segments.c ****     uint16 charDisplay;
2295:Generated_Source\PSoC5/Segments.c ****     
2296:Generated_Source\PSoC5/Segments.c ****     if((digit < 10u) && (position < Segments_NUM_COM))
2297:Generated_Source\PSoC5/Segments.c ****     {
2298:Generated_Source\PSoC5/Segments.c ****         charDisplay = Segments_EncodeNumber16Seg(digit);
2299:Generated_Source\PSoC5/Segments.c ****         Segments_segLBuffer[position] = LO8(charDisplay);
2300:Generated_Source\PSoC5/Segments.c ****         #if (Segments_NUM_SEG > 8u)
2301:Generated_Source\PSoC5/Segments.c ****             Segments_segMBuffer[position] = HI8(charDisplay);
2302:Generated_Source\PSoC5/Segments.c ****         #endif /* (Segments_NUM_SEG > 8u) */
2303:Generated_Source\PSoC5/Segments.c ****     }
2304:Generated_Source\PSoC5/Segments.c **** }
2305:Generated_Source\PSoC5/Segments.c **** 
2306:Generated_Source\PSoC5/Segments.c **** 
2307:Generated_Source\PSoC5/Segments.c **** /*******************************************************************************
2308:Generated_Source\PSoC5/Segments.c **** * Function Name: Segments_Write16SegDigitHex
ARM GAS  C:\Users\Esteban\AppData\Local\Temp\ccHxlO6N.s 			page 58


2309:Generated_Source\PSoC5/Segments.c **** ********************************************************************************
2310:Generated_Source\PSoC5/Segments.c **** *
2311:Generated_Source\PSoC5/Segments.c **** * Summary:
2312:Generated_Source\PSoC5/Segments.c **** *  Displays a single digit at the specified position. The number in 'digit' 
2313:Generated_Source\PSoC5/Segments.c **** *  (0-F) is placed on 'position'.
2314:Generated_Source\PSoC5/Segments.c **** *
2315:Generated_Source\PSoC5/Segments.c **** * Parameters:
2316:Generated_Source\PSoC5/Segments.c **** *  uint8 digit: A number between 0x0 and 0xF (0 to 15).
2317:Generated_Source\PSoC5/Segments.c **** *  uint8 position: The position in which to place the number.
2318:Generated_Source\PSoC5/Segments.c **** * Return:
2319:Generated_Source\PSoC5/Segments.c **** *  None
2320:Generated_Source\PSoC5/Segments.c **** *
2321:Generated_Source\PSoC5/Segments.c **** * Side effects:
2322:Generated_Source\PSoC5/Segments.c **** *  None
2323:Generated_Source\PSoC5/Segments.c **** *
2324:Generated_Source\PSoC5/Segments.c **** *******************************************************************************/
2325:Generated_Source\PSoC5/Segments.c **** void Segments_Write16SegDigitHex(uint8 digit, uint8 position)
2326:Generated_Source\PSoC5/Segments.c **** 
2327:Generated_Source\PSoC5/Segments.c **** {
2328:Generated_Source\PSoC5/Segments.c ****     uint16 charDisplay;
2329:Generated_Source\PSoC5/Segments.c **** 
2330:Generated_Source\PSoC5/Segments.c ****     if(position < Segments_NUM_COM)
2331:Generated_Source\PSoC5/Segments.c ****     {
2332:Generated_Source\PSoC5/Segments.c ****         charDisplay = Segments_EncodeNumber16Seg(digit);
2333:Generated_Source\PSoC5/Segments.c ****         Segments_segLBuffer[position] = LO8(charDisplay);
2334:Generated_Source\PSoC5/Segments.c ****         #if (Segments_NUM_SEG > 8u)
2335:Generated_Source\PSoC5/Segments.c ****             Segments_segMBuffer[position] = HI8(charDisplay);
2336:Generated_Source\PSoC5/Segments.c ****         #endif /* (Segments_NUM_SEG > 8u) */
2337:Generated_Source\PSoC5/Segments.c ****     }
2338:Generated_Source\PSoC5/Segments.c **** }
2339:Generated_Source\PSoC5/Segments.c **** 
2340:Generated_Source\PSoC5/Segments.c **** 
2341:Generated_Source\PSoC5/Segments.c **** /*******************************************************************************
2342:Generated_Source\PSoC5/Segments.c **** * Function Name: Segments_PutDecimalPoint
2343:Generated_Source\PSoC5/Segments.c **** ********************************************************************************
2344:Generated_Source\PSoC5/Segments.c **** *
2345:Generated_Source\PSoC5/Segments.c **** * Summary:
2346:Generated_Source\PSoC5/Segments.c **** *  Sets or clears the decimal point at the specified position.
2347:Generated_Source\PSoC5/Segments.c **** *
2348:Generated_Source\PSoC5/Segments.c **** * Parameters:
2349:Generated_Source\PSoC5/Segments.c **** *  uint8 dp: If the value is > 0 the decimal point will be set, if zero, the 
2350:Generated_Source\PSoC5/Segments.c **** *            decimal point will be cleared.
2351:Generated_Source\PSoC5/Segments.c **** *  uint8 position: The position at which to adjust the decimal point.
2352:Generated_Source\PSoC5/Segments.c **** * Return:
2353:Generated_Source\PSoC5/Segments.c **** *  None
2354:Generated_Source\PSoC5/Segments.c **** *
2355:Generated_Source\PSoC5/Segments.c **** * Side effects:
2356:Generated_Source\PSoC5/Segments.c **** *  None
2357:Generated_Source\PSoC5/Segments.c **** *
2358:Generated_Source\PSoC5/Segments.c **** *******************************************************************************/
2359:Generated_Source\PSoC5/Segments.c **** void Segments_PutDecimalPoint(uint8 dp, uint8 position)
2360:Generated_Source\PSoC5/Segments.c **** 
2361:Generated_Source\PSoC5/Segments.c **** {
 900              		.loc 1 2361 0
 901              		.cfi_startproc
 902              		@ args = 0, pretend = 0, frame = 0
 903              		@ frame_needed = 0, uses_anonymous_args = 0
ARM GAS  C:\Users\Esteban\AppData\Local\Temp\ccHxlO6N.s 			page 59


 904              		@ link register save eliminated.
 905              	.LVL101:
2362:Generated_Source\PSoC5/Segments.c ****     uint8 value;
2363:Generated_Source\PSoC5/Segments.c ****     uint8 relPosition;
2364:Generated_Source\PSoC5/Segments.c ****     
2365:Generated_Source\PSoC5/Segments.c ****     value = Segments_DEC_POINT_VALUE;
2366:Generated_Source\PSoC5/Segments.c ****     
2367:Generated_Source\PSoC5/Segments.c ****     if(position < Segments_NUM_COM)
 906              		.loc 1 2367 0
 907 0000 0329     		cmp	r1, #3
 908 0002 0BD8     		bhi	.L88
 909              	.LVL102:
2368:Generated_Source\PSoC5/Segments.c ****     {
2369:Generated_Source\PSoC5/Segments.c ****         relPosition = position;
2370:Generated_Source\PSoC5/Segments.c ****         if(dp != 0u)
 910              		.loc 1 2370 0
 911 0004 28B1     		cbz	r0, .L90
2371:Generated_Source\PSoC5/Segments.c ****         {
2372:Generated_Source\PSoC5/Segments.c ****             #if(Segments_SEG_DRIVE == Segments_HIGH)
2373:Generated_Source\PSoC5/Segments.c ****                 Segments_segLBuffer[relPosition] |= value;
 912              		.loc 1 2373 0
 913 0006 064A     		ldr	r2, .L91
 914 0008 535C     		ldrb	r3, [r2, r1]	@ zero_extendqisi2
 915 000a 63F07F03 		orn	r3, r3, #127
 916 000e 5354     		strb	r3, [r2, r1]
 917 0010 7047     		bx	lr
 918              	.L90:
2374:Generated_Source\PSoC5/Segments.c ****             #else
2375:Generated_Source\PSoC5/Segments.c ****                 Segments_segLBuffer[relPosition] &= value;
2376:Generated_Source\PSoC5/Segments.c ****             #endif /* (Segments_SEG_DRIVE == Segments_HIGH) */
2377:Generated_Source\PSoC5/Segments.c ****         }
2378:Generated_Source\PSoC5/Segments.c ****         else
2379:Generated_Source\PSoC5/Segments.c ****         {
2380:Generated_Source\PSoC5/Segments.c ****             #if(Segments_SEG_DRIVE == Segments_HIGH)
2381:Generated_Source\PSoC5/Segments.c ****                 Segments_segLBuffer[relPosition] &= ((uint8)(~(uint8)value));
 919              		.loc 1 2381 0
 920 0012 034A     		ldr	r2, .L91
 921 0014 535C     		ldrb	r3, [r2, r1]	@ zero_extendqisi2
 922 0016 03F07F03 		and	r3, r3, #127
 923 001a 5354     		strb	r3, [r2, r1]
 924              	.LVL103:
 925              	.L88:
 926 001c 7047     		bx	lr
 927              	.L92:
 928 001e 00BF     		.align	2
 929              	.L91:
 930 0020 00000000 		.word	Segments_segLBuffer
 931              		.cfi_endproc
 932              	.LFE32:
 933              		.size	Segments_PutDecimalPoint, .-Segments_PutDecimalPoint
 934              		.section	.text.Segments_GetDecimalPoint,"ax",%progbits
 935              		.align	2
 936              		.global	Segments_GetDecimalPoint
 937              		.thumb
 938              		.thumb_func
 939              		.type	Segments_GetDecimalPoint, %function
 940              	Segments_GetDecimalPoint:
ARM GAS  C:\Users\Esteban\AppData\Local\Temp\ccHxlO6N.s 			page 60


 941              	.LFB33:
2382:Generated_Source\PSoC5/Segments.c ****             #else
2383:Generated_Source\PSoC5/Segments.c ****                 Segments_segLBuffer[relPosition] |= ((uint8)(~(uint8)value));
2384:Generated_Source\PSoC5/Segments.c ****             #endif /* (Segments_SEG_DRIVE == Segments_HIGH) */
2385:Generated_Source\PSoC5/Segments.c ****         }
2386:Generated_Source\PSoC5/Segments.c ****     } 
2387:Generated_Source\PSoC5/Segments.c ****     else if (position < Segments_TWO_NUM_COM)
2388:Generated_Source\PSoC5/Segments.c ****     {
2389:Generated_Source\PSoC5/Segments.c ****         #if (Segments_NUM_SEG > 8u)
2390:Generated_Source\PSoC5/Segments.c ****             relPosition = position - Segments_NUM_COM;
2391:Generated_Source\PSoC5/Segments.c ****             if(dp != 0u)
2392:Generated_Source\PSoC5/Segments.c ****             {
2393:Generated_Source\PSoC5/Segments.c ****                 #if(Segments_SEG_DRIVE == Segments_HIGH)
2394:Generated_Source\PSoC5/Segments.c ****                     Segments_segMBuffer[relPosition] |= value;
2395:Generated_Source\PSoC5/Segments.c ****                 #else
2396:Generated_Source\PSoC5/Segments.c ****                     Segments_segMBuffer[relPosition] &= value;
2397:Generated_Source\PSoC5/Segments.c ****                 #endif /* (Segments_SEG_DRIVE == Segments_HIGH) */
2398:Generated_Source\PSoC5/Segments.c ****             }
2399:Generated_Source\PSoC5/Segments.c ****             else
2400:Generated_Source\PSoC5/Segments.c ****             {
2401:Generated_Source\PSoC5/Segments.c ****                 #if(Segments_SEG_DRIVE == Segments_HIGH)
2402:Generated_Source\PSoC5/Segments.c ****                     Segments_segMBuffer[relPosition] &= ((uint8)(~(uint8)value));
2403:Generated_Source\PSoC5/Segments.c ****                 #else
2404:Generated_Source\PSoC5/Segments.c ****                     Segments_segMBuffer[relPosition] |= ((uint8)(~(uint8)value));
2405:Generated_Source\PSoC5/Segments.c ****                 #endif /* (Segments_SEG_DRIVE == Segments_HIGH) */
2406:Generated_Source\PSoC5/Segments.c ****             }
2407:Generated_Source\PSoC5/Segments.c ****         #endif /* (Segments_NUM_SEG > 8u) */
2408:Generated_Source\PSoC5/Segments.c ****     } 
2409:Generated_Source\PSoC5/Segments.c ****     else
2410:Generated_Source\PSoC5/Segments.c ****     {
2411:Generated_Source\PSoC5/Segments.c ****         #if (Segments_NUM_SEG > 16u)
2412:Generated_Source\PSoC5/Segments.c ****             relPosition = position - Segments_TWO_NUM_COM;
2413:Generated_Source\PSoC5/Segments.c ****             if(relPosition < Segments_NUM_COM)
2414:Generated_Source\PSoC5/Segments.c ****             {
2415:Generated_Source\PSoC5/Segments.c ****                 if(dp != 0u)
2416:Generated_Source\PSoC5/Segments.c ****                 {
2417:Generated_Source\PSoC5/Segments.c ****                     #if(Segments_SEG_DRIVE == Segments_HIGH)
2418:Generated_Source\PSoC5/Segments.c ****                         Segments_segHBuffer[relPosition] |= value;
2419:Generated_Source\PSoC5/Segments.c ****                     #else
2420:Generated_Source\PSoC5/Segments.c ****                         Segments_segHBuffer[relPosition] &= value;
2421:Generated_Source\PSoC5/Segments.c ****                     #endif /* (Segments_SEG_DRIVE == Segments_HIGH) */
2422:Generated_Source\PSoC5/Segments.c ****                 }
2423:Generated_Source\PSoC5/Segments.c ****                 else
2424:Generated_Source\PSoC5/Segments.c ****                 {
2425:Generated_Source\PSoC5/Segments.c ****                     #if(Segments_SEG_DRIVE == Segments_HIGH)
2426:Generated_Source\PSoC5/Segments.c ****                         Segments_segHBuffer[relPosition] &= ((uint8)(~(uint8)value));
2427:Generated_Source\PSoC5/Segments.c ****                     #else
2428:Generated_Source\PSoC5/Segments.c ****                         Segments_segHBuffer[relPosition] |= ((uint8)(~(uint8)value));
2429:Generated_Source\PSoC5/Segments.c ****                     #endif /* (Segments_SEG_DRIVE == Segments_HIGH) */
2430:Generated_Source\PSoC5/Segments.c ****                 }
2431:Generated_Source\PSoC5/Segments.c ****             }
2432:Generated_Source\PSoC5/Segments.c ****         #endif /* (Segments_NUM_SEG > 16u) */
2433:Generated_Source\PSoC5/Segments.c ****     }
2434:Generated_Source\PSoC5/Segments.c **** }
2435:Generated_Source\PSoC5/Segments.c **** 
2436:Generated_Source\PSoC5/Segments.c **** 
2437:Generated_Source\PSoC5/Segments.c **** /*******************************************************************************
ARM GAS  C:\Users\Esteban\AppData\Local\Temp\ccHxlO6N.s 			page 61


2438:Generated_Source\PSoC5/Segments.c **** * Function Name: Segments_GetDecimalPoint
2439:Generated_Source\PSoC5/Segments.c **** ********************************************************************************
2440:Generated_Source\PSoC5/Segments.c **** *
2441:Generated_Source\PSoC5/Segments.c **** * Summary:
2442:Generated_Source\PSoC5/Segments.c **** *  Returns zero if the decimal point is not set and one if the decimal point 
2443:Generated_Source\PSoC5/Segments.c **** *  is set.
2444:Generated_Source\PSoC5/Segments.c **** *
2445:Generated_Source\PSoC5/Segments.c **** * Parameters:
2446:Generated_Source\PSoC5/Segments.c **** *  uint8 position: The position in which to query the decimal point value.
2447:Generated_Source\PSoC5/Segments.c **** *
2448:Generated_Source\PSoC5/Segments.c **** * Return:
2449:Generated_Source\PSoC5/Segments.c **** *  Returns the current state of the decimal point (segment #7 on a 7-seg 
2450:Generated_Source\PSoC5/Segments.c **** *  display). '1' indicates the decimal point is on. '0' indicates the decimal 
2451:Generated_Source\PSoC5/Segments.c **** *  point is off.
2452:Generated_Source\PSoC5/Segments.c **** *
2453:Generated_Source\PSoC5/Segments.c **** * Side effects:
2454:Generated_Source\PSoC5/Segments.c **** *  None
2455:Generated_Source\PSoC5/Segments.c **** *
2456:Generated_Source\PSoC5/Segments.c **** *******************************************************************************/
2457:Generated_Source\PSoC5/Segments.c **** uint8 Segments_GetDecimalPoint(uint8 position) 
2458:Generated_Source\PSoC5/Segments.c **** {
 942              		.loc 1 2458 0
 943              		.cfi_startproc
 944              		@ args = 0, pretend = 0, frame = 0
 945              		@ frame_needed = 0, uses_anonymous_args = 0
 946              		@ link register save eliminated.
 947              	.LVL104:
2459:Generated_Source\PSoC5/Segments.c ****     uint8 value;
2460:Generated_Source\PSoC5/Segments.c ****     uint8 relPosition;
2461:Generated_Source\PSoC5/Segments.c ****     uint8 decPointVal = 0u;
2462:Generated_Source\PSoC5/Segments.c ****     
2463:Generated_Source\PSoC5/Segments.c ****     if(position < Segments_NUM_COM)
 948              		.loc 1 2463 0
 949 0000 0328     		cmp	r0, #3
 950 0002 03D8     		bhi	.L95
 951              	.LVL105:
2464:Generated_Source\PSoC5/Segments.c ****     {
2465:Generated_Source\PSoC5/Segments.c ****         relPosition = position;
2466:Generated_Source\PSoC5/Segments.c ****         decPointVal = (uint8)((uint8)(Segments_segLBuffer[relPosition]) >> Segments_DEC_POINT);
 952              		.loc 1 2466 0
 953 0004 024B     		ldr	r3, .L96
 954 0006 185C     		ldrb	r0, [r3, r0]	@ zero_extendqisi2
 955              	.LVL106:
 956 0008 C009     		lsrs	r0, r0, #7
 957              	.LVL107:
 958 000a 7047     		bx	lr
 959              	.LVL108:
 960              	.L95:
2461:Generated_Source\PSoC5/Segments.c ****     
 961              		.loc 1 2461 0
 962 000c 0020     		movs	r0, #0
 963              	.LVL109:
2467:Generated_Source\PSoC5/Segments.c ****     } 
2468:Generated_Source\PSoC5/Segments.c ****     else if (position < Segments_TWO_NUM_COM)
2469:Generated_Source\PSoC5/Segments.c ****     {
2470:Generated_Source\PSoC5/Segments.c ****         #if (Segments_NUM_SEG > 8u) 
2471:Generated_Source\PSoC5/Segments.c ****             relPosition = position - Segments_NUM_COM;
ARM GAS  C:\Users\Esteban\AppData\Local\Temp\ccHxlO6N.s 			page 62


2472:Generated_Source\PSoC5/Segments.c ****             decPointVal = (uint8)((uint8)(Segments_segMBuffer[relPosition]) >> Segments_DEC_POINT);
2473:Generated_Source\PSoC5/Segments.c ****         #endif /* (Segments_NUM_SEG > 8u) */
2474:Generated_Source\PSoC5/Segments.c ****     }
2475:Generated_Source\PSoC5/Segments.c ****     else
2476:Generated_Source\PSoC5/Segments.c ****     {
2477:Generated_Source\PSoC5/Segments.c ****         #if (Segments_NUM_SEG > 16u)
2478:Generated_Source\PSoC5/Segments.c ****             relPosition = position - Segments_TWO_NUM_COM;
2479:Generated_Source\PSoC5/Segments.c ****             if(relPosition < Segments_NUM_COM)
2480:Generated_Source\PSoC5/Segments.c ****             {
2481:Generated_Source\PSoC5/Segments.c ****                 decPointVal = (uint8)((uint8)(Segments_segHBuffer[relPosition]) >> Segments_DEC_POI
2482:Generated_Source\PSoC5/Segments.c ****             }
2483:Generated_Source\PSoC5/Segments.c ****         #endif /* (Segments_NUM_SEG > 16u) */
2484:Generated_Source\PSoC5/Segments.c ****     }
2485:Generated_Source\PSoC5/Segments.c ****     
2486:Generated_Source\PSoC5/Segments.c ****     #if(Segments_SEG_DRIVE == Segments_HIGH)
2487:Generated_Source\PSoC5/Segments.c ****         value = (uint8)(decPointVal & Segments_DEC_POINT_MASK);
2488:Generated_Source\PSoC5/Segments.c ****     #else
2489:Generated_Source\PSoC5/Segments.c ****         value = (uint8)((uint8)((uint8)~decPointVal) & Segments_DEC_POINT_MASK);
2490:Generated_Source\PSoC5/Segments.c ****     #endif /* (Segments_SEG_DRIVE == Segments_HIGH) */
2491:Generated_Source\PSoC5/Segments.c ****     
2492:Generated_Source\PSoC5/Segments.c ****     return(value);
2493:Generated_Source\PSoC5/Segments.c **** }
 964              		.loc 1 2493 0
 965 000e 7047     		bx	lr
 966              	.L97:
 967              		.align	2
 968              	.L96:
 969 0010 00000000 		.word	Segments_segLBuffer
 970              		.cfi_endproc
 971              	.LFE33:
 972              		.size	Segments_GetDecimalPoint, .-Segments_GetDecimalPoint
 973              		.section	.text.Segments_EncodeNumber7Seg,"ax",%progbits
 974              		.align	2
 975              		.global	Segments_EncodeNumber7Seg
 976              		.thumb
 977              		.thumb_func
 978              		.type	Segments_EncodeNumber7Seg, %function
 979              	Segments_EncodeNumber7Seg:
 980              	.LFB34:
2494:Generated_Source\PSoC5/Segments.c **** 
2495:Generated_Source\PSoC5/Segments.c **** 
2496:Generated_Source\PSoC5/Segments.c **** /*******************************************************************************
2497:Generated_Source\PSoC5/Segments.c **** * Function Name: Segments_EncodeNumber7Seg
2498:Generated_Source\PSoC5/Segments.c **** ********************************************************************************
2499:Generated_Source\PSoC5/Segments.c **** *
2500:Generated_Source\PSoC5/Segments.c **** * Summary:
2501:Generated_Source\PSoC5/Segments.c **** *  Converts the lower 4 bits of the input into 7-segment data that will display 
2502:Generated_Source\PSoC5/Segments.c **** *  the number in hex on a display. The returned data can be written directly 
2503:Generated_Source\PSoC5/Segments.c **** *  into the display RAM to display the desired number. It is not necessary to 
2504:Generated_Source\PSoC5/Segments.c **** *  use this function since higher level API are provided to both decode the 
2505:Generated_Source\PSoC5/Segments.c **** *  value and write it to the display RAM.
2506:Generated_Source\PSoC5/Segments.c **** *
2507:Generated_Source\PSoC5/Segments.c **** * Parameters:
2508:Generated_Source\PSoC5/Segments.c **** *  uint8 number: A number between 0x0 and 0xF to be converted into segment data.
2509:Generated_Source\PSoC5/Segments.c **** *
2510:Generated_Source\PSoC5/Segments.c **** * Return:
2511:Generated_Source\PSoC5/Segments.c **** *  The value to be written into the display RAM for displaying the specific
ARM GAS  C:\Users\Esteban\AppData\Local\Temp\ccHxlO6N.s 			page 63


2512:Generated_Source\PSoC5/Segments.c **** *  number.
2513:Generated_Source\PSoC5/Segments.c **** *
2514:Generated_Source\PSoC5/Segments.c **** * Side effects:
2515:Generated_Source\PSoC5/Segments.c **** *  None
2516:Generated_Source\PSoC5/Segments.c **** *
2517:Generated_Source\PSoC5/Segments.c **** *******************************************************************************/
2518:Generated_Source\PSoC5/Segments.c **** uint8 Segments_EncodeNumber7Seg(uint8 number) 
2519:Generated_Source\PSoC5/Segments.c **** {
 981              		.loc 1 2519 0
 982              		.cfi_startproc
 983              		@ args = 0, pretend = 0, frame = 0
 984              		@ frame_needed = 0, uses_anonymous_args = 0
 985              		@ link register save eliminated.
 986              	.LVL110:
2520:Generated_Source\PSoC5/Segments.c ****     /* 7-segment numerical LUT */
2521:Generated_Source\PSoC5/Segments.c ****     #if(Segments_SEG_DRIVE == Segments_HIGH)
2522:Generated_Source\PSoC5/Segments.c ****         static const uint8 CYCODE Segments_7SegDigits[16] =
2523:Generated_Source\PSoC5/Segments.c ****               /*--------------------------------------------------------*/
2524:Generated_Source\PSoC5/Segments.c ****               /*  '0'    '1'    '2'    '3'    '4'    '5'    '6'    '7'  */
2525:Generated_Source\PSoC5/Segments.c ****               /*--------------------------------------------------------*/
2526:Generated_Source\PSoC5/Segments.c ****                 {0x3fu, 0x06u, 0x5bu, 0x4fu, 0x66u, 0x6du, 0x7du, 0x07u,
2527:Generated_Source\PSoC5/Segments.c ****               /*--------------------------------------------------------*/
2528:Generated_Source\PSoC5/Segments.c ****               /*  '8'    '9'    'A'    'B'    'C'    'D'    'E'    'F'  */
2529:Generated_Source\PSoC5/Segments.c ****               /*--------------------------------------------------------*/
2530:Generated_Source\PSoC5/Segments.c ****                  0x7fu, 0x6fu, 0x77u, 0x7cu, 0x39u, 0x5eu, 0x79u, 0x71u};
2531:Generated_Source\PSoC5/Segments.c ****     #else
2532:Generated_Source\PSoC5/Segments.c ****         static const uint8 CYCODE Segments_7SegDigits[16] =
2533:Generated_Source\PSoC5/Segments.c ****               /*--------------------------------------------------------*/
2534:Generated_Source\PSoC5/Segments.c ****               /*  '0'    '1'    '2'    '3'    '4'    '5'    '6'    '7'  */
2535:Generated_Source\PSoC5/Segments.c ****               /*--------------------------------------------------------*/
2536:Generated_Source\PSoC5/Segments.c ****                 {0xc0u, 0xf9u, 0xa4u, 0xb0u, 0x99u, 0x92u, 0x82u, 0xf8u,
2537:Generated_Source\PSoC5/Segments.c ****               /*--------------------------------------------------------*/
2538:Generated_Source\PSoC5/Segments.c ****               /*  '8'    '9'    'A'    'B'    'C'    'D'    'E'    'F'  */
2539:Generated_Source\PSoC5/Segments.c ****               /*--------------------------------------------------------*/
2540:Generated_Source\PSoC5/Segments.c ****                  0x80u, 0x90u, 0x88u, 0x83u, 0xc6u, 0xa1u, 0x86u, 0x8eu};
2541:Generated_Source\PSoC5/Segments.c ****     #endif /*  Segments_SEG_DRIVE */
2542:Generated_Source\PSoC5/Segments.c **** 
2543:Generated_Source\PSoC5/Segments.c ****     uint8 valNum;
2544:Generated_Source\PSoC5/Segments.c ****     uint8 valHex;
2545:Generated_Source\PSoC5/Segments.c ****     
2546:Generated_Source\PSoC5/Segments.c ****     valNum = (uint8)(number & Segments_NIBBLE_MASK);
 987              		.loc 1 2546 0
 988 0000 00F00F00 		and	r0, r0, #15
 989              	.LVL111:
2547:Generated_Source\PSoC5/Segments.c ****     
2548:Generated_Source\PSoC5/Segments.c ****     valHex = Segments_7SegDigits[valNum];
2549:Generated_Source\PSoC5/Segments.c ****     
2550:Generated_Source\PSoC5/Segments.c ****     return(valHex);
2551:Generated_Source\PSoC5/Segments.c **** }
 990              		.loc 1 2551 0
 991 0004 014B     		ldr	r3, .L99
 992 0006 185C     		ldrb	r0, [r3, r0]	@ zero_extendqisi2
 993              	.LVL112:
 994 0008 7047     		bx	lr
 995              	.L100:
 996 000a 00BF     		.align	2
 997              	.L99:
ARM GAS  C:\Users\Esteban\AppData\Local\Temp\ccHxlO6N.s 			page 64


 998 000c 00000000 		.word	.LANCHOR2
 999              		.cfi_endproc
 1000              	.LFE34:
 1001              		.size	Segments_EncodeNumber7Seg, .-Segments_EncodeNumber7Seg
 1002              		.section	.text.Segments_Write7SegNumberHex,"ax",%progbits
 1003              		.align	2
 1004              		.global	Segments_Write7SegNumberHex
 1005              		.thumb
 1006              		.thumb_func
 1007              		.type	Segments_Write7SegNumberHex, %function
 1008              	Segments_Write7SegNumberHex:
 1009              	.LFB15:
1122:Generated_Source\PSoC5/Segments.c ****     uint8 i;
 1010              		.loc 1 1122 0
 1011              		.cfi_startproc
 1012              		@ args = 0, pretend = 0, frame = 8
 1013              		@ frame_needed = 0, uses_anonymous_args = 0
 1014              	.LVL113:
 1015 0000 2DE9F043 		push	{r4, r5, r6, r7, r8, r9, lr}
 1016              		.cfi_def_cfa_offset 28
 1017              		.cfi_offset 4, -28
 1018              		.cfi_offset 5, -24
 1019              		.cfi_offset 6, -20
 1020              		.cfi_offset 7, -16
 1021              		.cfi_offset 8, -12
 1022              		.cfi_offset 9, -8
 1023              		.cfi_offset 14, -4
 1024 0004 83B0     		sub	sp, sp, #12
 1025              		.cfi_def_cfa_offset 40
 1026 0006 8146     		mov	r9, r0
 1027 0008 0E46     		mov	r6, r1
 1028 000a 1446     		mov	r4, r2
 1029 000c 9846     		mov	r8, r3
 1030              	.LVL114:
1128:Generated_Source\PSoC5/Segments.c ****     uint32 numberVal;
 1031              		.loc 1 1128 0
 1032 000e 0023     		movs	r3, #0
 1033              	.LVL115:
 1034 0010 0093     		str	r3, [sp]
 1035 0012 0193     		str	r3, [sp, #4]
 1036              	.LVL116:
1134:Generated_Source\PSoC5/Segments.c ****     {
 1037              		.loc 1 1134 0
 1038 0014 0329     		cmp	r1, #3
 1039 0016 0AD9     		bls	.L127
1139:Generated_Source\PSoC5/Segments.c ****     {
 1040              		.loc 1 1139 0
 1041 0018 0729     		cmp	r1, #7
 1042 001a 03D8     		bhi	.L103
 1043              	.LVL117:
1142:Generated_Source\PSoC5/Segments.c ****     }
 1044              		.loc 1 1142 0
 1045 001c 0E1F     		subs	r6, r1, #4
 1046 001e F6B2     		uxtb	r6, r6
 1047              	.LVL118:
1141:Generated_Source\PSoC5/Segments.c ****         relPosition = position - Segments_NUM_COM;
 1048              		.loc 1 1141 0
ARM GAS  C:\Users\Esteban\AppData\Local\Temp\ccHxlO6N.s 			page 65


 1049 0020 0127     		movs	r7, #1
 1050 0022 05E0     		b	.L102
 1051              	.LVL119:
 1052              	.L103:
1147:Generated_Source\PSoC5/Segments.c ****     }
 1053              		.loc 1 1147 0
 1054 0024 A1F10806 		sub	r6, r1, #8
 1055 0028 F6B2     		uxtb	r6, r6
 1056              	.LVL120:
1146:Generated_Source\PSoC5/Segments.c ****         relPosition = position - Segments_TWO_NUM_COM;
 1057              		.loc 1 1146 0
 1058 002a 0227     		movs	r7, #2
 1059 002c 00E0     		b	.L102
 1060              	.LVL121:
 1061              	.L127:
1136:Generated_Source\PSoC5/Segments.c ****         relPosition = position;
 1062              		.loc 1 1136 0
 1063 002e 0027     		movs	r7, #0
 1064              	.L102:
 1065              	.LVL122:
1151:Generated_Source\PSoC5/Segments.c ****     {
 1066              		.loc 1 1151 0
 1067 0030 2346     		mov	r3, r4
 1068 0032 0BE0     		b	.L104
 1069              	.LVL123:
 1070              	.L105:
1154:Generated_Source\PSoC5/Segments.c ****         numberVal = (uint32)((uint32)numberVal >> Segments_SHIFT_NIBBLE);
 1071              		.loc 1 1154 0 discriminator 3
 1072 0034 5D1E     		subs	r5, r3, #1
 1073 0036 09F00F00 		and	r0, r9, #15
 1074 003a FFF7FEFF 		bl	Segments_EncodeNumber7Seg
 1075              	.LVL124:
 1076 003e 02AB     		add	r3, sp, #8
 1077 0040 2B44     		add	r3, r3, r5
 1078 0042 03F8080C 		strb	r0, [r3, #-8]
1155:Generated_Source\PSoC5/Segments.c ****     }
 1079              		.loc 1 1155 0 discriminator 3
 1080 0046 4FEA1919 		lsr	r9, r9, #4
 1081              	.LVL125:
1151:Generated_Source\PSoC5/Segments.c ****     {
 1082              		.loc 1 1151 0 discriminator 3
 1083 004a EBB2     		uxtb	r3, r5
 1084              	.LVL126:
 1085              	.L104:
1151:Generated_Source\PSoC5/Segments.c ****     {
 1086              		.loc 1 1151 0 is_stmt 0 discriminator 1
 1087 004c 002B     		cmp	r3, #0
 1088 004e F1D1     		bne	.L105
1159:Generated_Source\PSoC5/Segments.c ****     {
 1089              		.loc 1 1159 0 is_stmt 1
 1090 0050 B8F1020F 		cmp	r8, #2
 1091 0054 14D1     		bne	.L128
 1092 0056 17E0     		b	.L107
 1093              	.LVL127:
 1094              	.L109:
1163:Generated_Source\PSoC5/Segments.c ****             {
 1095              		.loc 1 1163 0
ARM GAS  C:\Users\Esteban\AppData\Local\Temp\ccHxlO6N.s 			page 66


 1096 0058 1946     		mov	r1, r3
 1097 005a 02A8     		add	r0, sp, #8
 1098 005c 1844     		add	r0, r0, r3
 1099 005e 10F8080C 		ldrb	r0, [r0, #-8]	@ zero_extendqisi2
 1100 0062 3F28     		cmp	r0, #63
 1101 0064 10D1     		bne	.L107
1170:Generated_Source\PSoC5/Segments.c ****                 {
 1102              		.loc 1 1170 0
 1103 0066 601E     		subs	r0, r4, #1
 1104 0068 8242     		cmp	r2, r0
 1105 006a 06D0     		beq	.L108
1173:Generated_Source\PSoC5/Segments.c ****                     zeroCount++;
 1106              		.loc 1 1173 0
 1107 006c 02A8     		add	r0, sp, #8
 1108 006e 0144     		add	r1, r1, r0
 1109 0070 0020     		movs	r0, #0
 1110 0072 01F8080C 		strb	r0, [r1, #-8]
1174:Generated_Source\PSoC5/Segments.c ****                 }
 1111              		.loc 1 1174 0
 1112 0076 0132     		adds	r2, r2, #1
 1113              	.LVL128:
 1114 0078 D2B2     		uxtb	r2, r2
